
USB_Changer.elf:     file format elf32-littlearm

Sections:
Idx Name          Size      VMA       LMA       File off  Algn
  0 .text         0000688c  10001000  10001000  00001000  2**3
                  CONTENTS, ALLOC, LOAD, READONLY, CODE
  1 .eh_frame     00000000  1000788c  1000788c  0000788c  2**2
                  CONTENTS, ALLOC, LOAD, READONLY, DATA
  2 .VENEER_Code  00000110  2000000c  1000788c  0000800c  2**2
                  CONTENTS, ALLOC, LOAD, READONLY, CODE
  3 Stack         00000404  2000011c  00000000  0000011c  2**0
                  ALLOC
  4 .data         00000120  20000520  1000799c  00008520  2**2
                  CONTENTS, ALLOC, LOAD, DATA
  5 .bss          00000198  20000640  00000524  00008640  2**2
                  ALLOC
  6 .no_init      00000004  20003ffc  00003ee0  0000011c  2**2
                  ALLOC
  7 .debug_aranges 00000848  00000000  00000000  00008640  2**3
                  CONTENTS, READONLY, DEBUGGING
  8 .debug_info   00010537  00000000  00000000  00008e88  2**0
                  CONTENTS, READONLY, DEBUGGING
  9 .debug_abbrev 00002633  00000000  00000000  000193bf  2**0
                  CONTENTS, READONLY, DEBUGGING
 10 .debug_line   00004711  00000000  00000000  0001b9f2  2**0
                  CONTENTS, READONLY, DEBUGGING
 11 .debug_frame  000020ec  00000000  00000000  00020104  2**2
                  CONTENTS, READONLY, DEBUGGING
 12 .debug_str    00005c08  00000000  00000000  000221f0  2**0
                  CONTENTS, READONLY, DEBUGGING
 13 .debug_loc    00002818  00000000  00000000  00027df8  2**0
                  CONTENTS, READONLY, DEBUGGING
 14 .debug_ranges 00000690  00000000  00000000  0002a610  2**3
                  CONTENTS, READONLY, DEBUGGING
 15 .build_attributes 00000a2d  00000000  00000000  0002aca0  2**0
                  CONTENTS, READONLY

Disassembly of section .text:

10001000 <__Vectors>:
10001000:	20 05 00 20 19 10 00 10 00 00 00 00 99 10 00 10      .. ............
10001010:	00 04 01 00 00 00 00 80                             ........

10001018 <Reset_Handler>:
    .thumb_func 
    .globl  Reset_Handler
    .type   Reset_Handler, %function
Reset_Handler: 
/* Initialize interrupt veneer */
	ldr	r1, =eROData
10001018:	4911      	ldr	r1, [pc, #68]	; (10001060 <__copy_data+0xe>)
	ldr	r2, =VeneerStart
1000101a:	4a12      	ldr	r2, [pc, #72]	; (10001064 <__copy_data+0x12>)
	ldr	r3, =VeneerEnd
1000101c:	4b12      	ldr	r3, [pc, #72]	; (10001068 <__copy_data+0x16>)
	bl  __copy_data
1000101e:	f000 f818 	bl	10001052 <__copy_data>

    ldr  r0, =SystemInit
10001022:	4812      	ldr	r0, [pc, #72]	; (1000106c <__copy_data+0x1a>)
    blx  r0
10001024:	4780      	blx	r0
	
/* Initialize data */
	ldr	r1, =DataLoadAddr
10001026:	4912      	ldr	r1, [pc, #72]	; (10001070 <__copy_data+0x1e>)
	ldr	r2, =__data_start
10001028:	4a12      	ldr	r2, [pc, #72]	; (10001074 <__copy_data+0x22>)
	ldr	r3, =__data_end
1000102a:	4b13      	ldr	r3, [pc, #76]	; (10001078 <__copy_data+0x26>)
	bl  __copy_data
1000102c:	f000 f811 	bl	10001052 <__copy_data>

/* RAM code */
	ldr	r1, =__ram_code_load
10001030:	4912      	ldr	r1, [pc, #72]	; (1000107c <__copy_data+0x2a>)
	ldr	r2, =__ram_code_start
10001032:	4a13      	ldr	r2, [pc, #76]	; (10001080 <__copy_data+0x2e>)
	ldr	r3, =__ram_code_end
10001034:	4b13      	ldr	r3, [pc, #76]	; (10001084 <__copy_data+0x32>)
	bl  __copy_data
10001036:	f000 f80c 	bl	10001052 <__copy_data>
 *    __bss_end__: end of the BSS section.
 *
 *  Both addresses must be aligned to 4 bytes boundary.
 */
#ifndef __SKIP_BSS_CLEAR
	ldr	r1, =__bss_start
1000103a:	4913      	ldr	r1, [pc, #76]	; (10001088 <__copy_data+0x36>)
	ldr	r2, =__bss_end
1000103c:	4a13      	ldr	r2, [pc, #76]	; (1000108c <__copy_data+0x3a>)

	movs	r0, 0
1000103e:	2000      	movs	r0, #0

	subs	r2, r1
10001040:	1a52      	subs	r2, r2, r1
	ble	.L_loop3_done
10001042:	dd02      	ble.n	1000104a <Reset_Handler+0x32>

.L_loop3:
	subs	r2, #4
10001044:	3a04      	subs	r2, #4
	str	r0, [r1, r2]
10001046:	5088      	str	r0, [r1, r2]
	bgt	.L_loop3
10001048:	dcfc      	bgt.n	10001044 <Reset_Handler+0x2c>
.L_loop3_done:
#endif /* __SKIP_BSS_CLEAR */

#ifndef __SKIP_LIBC_INIT_ARRAY
    ldr  r0, =__libc_init_array
1000104a:	4811      	ldr	r0, [pc, #68]	; (10001090 <__copy_data+0x3e>)
    blx  r0
1000104c:	4780      	blx	r0
#endif

    ldr  r0, =main
1000104e:	4811      	ldr	r0, [pc, #68]	; (10001094 <__copy_data+0x42>)
    blx  r0
10001050:	4780      	blx	r0

10001052 <__copy_data>:
 *    r3: end of the section to copy to
 *
 *  All addresses must be aligned to 4 bytes boundary.
 *  Uses r0
 */
	subs	r3, r2
10001052:	1a9b      	subs	r3, r3, r2
	ble	.L_loop_done
10001054:	dd03      	ble.n	1000105e <__copy_data+0xc>

.L_loop:
	subs	r3, #4
10001056:	3b04      	subs	r3, #4
	ldr	r0, [r1,r3]
10001058:	58c8      	ldr	r0, [r1, r3]
	str	r0, [r2,r3]
1000105a:	50d0      	str	r0, [r2, r3]
	bgt	.L_loop
1000105c:	dcfb      	bgt.n	10001056 <__copy_data+0x4>

.L_loop_done:
	bx  lr
1000105e:	4770      	bx	lr
    .thumb_func 
    .globl  Reset_Handler
    .type   Reset_Handler, %function
Reset_Handler: 
/* Initialize interrupt veneer */
	ldr	r1, =eROData
10001060:	1000788c 	.word	0x1000788c
	ldr	r2, =VeneerStart
10001064:	2000000c 	.word	0x2000000c
	ldr	r3, =VeneerEnd
10001068:	2000011c 	.word	0x2000011c
	bl  __copy_data

    ldr  r0, =SystemInit
1000106c:	1000109d 	.word	0x1000109d
    blx  r0
	
/* Initialize data */
	ldr	r1, =DataLoadAddr
10001070:	1000799c 	.word	0x1000799c
	ldr	r2, =__data_start
10001074:	20000520 	.word	0x20000520
	ldr	r3, =__data_end
10001078:	20000640 	.word	0x20000640
	bl  __copy_data

/* RAM code */
	ldr	r1, =__ram_code_load
1000107c:	10007abc 	.word	0x10007abc
	ldr	r2, =__ram_code_start
10001080:	20000640 	.word	0x20000640
	ldr	r3, =__ram_code_end
10001084:	20000640 	.word	0x20000640
 *    __bss_end__: end of the BSS section.
 *
 *  Both addresses must be aligned to 4 bytes boundary.
 */
#ifndef __SKIP_BSS_CLEAR
	ldr	r1, =__bss_start
10001088:	20000640 	.word	0x20000640
	ldr	r2, =__bss_end
1000108c:	200007d8 	.word	0x200007d8
	bgt	.L_loop3
.L_loop3_done:
#endif /* __SKIP_BSS_CLEAR */

#ifndef __SKIP_LIBC_INIT_ARRAY
    ldr  r0, =__libc_init_array
10001090:	10003d55 	.word	0x10003d55
    blx  r0
#endif

    ldr  r0, =main
10001094:	1000336d 	.word	0x1000336d

10001098 <CCU40_0_IRQHandler>:
    
    .thumb_func
    .weak Default_handler
    .type Default_handler, %function
Default_handler:
    b  .
10001098:	e7fe      	b.n	10001098 <CCU40_0_IRQHandler>
	...

1000109c <SystemInit>:
/*******************************************************************************
 * API IMPLEMENTATION
 *******************************************************************************/

__WEAK void SystemInit(void)
{    
1000109c:	b580      	push	{r7, lr}
1000109e:	af00      	add	r7, sp, #0
  SystemCoreSetup();
100010a0:	f001 fcc4 	bl	10002a2c <SystemCoreSetup>
  SystemCoreClockSetup();
100010a4:	f001 fd08 	bl	10002ab8 <SystemCoreClockSetup>
}
100010a8:	46bd      	mov	sp, r7
100010aa:	bd80      	pop	{r7, pc}

100010ac <SystemCoreClockUpdate>:
  
  SystemCoreClockUpdate();
}

__WEAK void SystemCoreClockUpdate(void)
{
100010ac:	b580      	push	{r7, lr}
100010ae:	af00      	add	r7, sp, #0
  static uint32_t IDIV, FDIV;

  IDIV = ((SCU_CLK->CLKCR) & SCU_CLK_CLKCR_IDIV_Msk) >> SCU_CLK_CLKCR_IDIV_Pos;
100010b0:	4b12      	ldr	r3, [pc, #72]	; (100010fc <SystemCoreClockUpdate+0x50>)
100010b2:	681a      	ldr	r2, [r3, #0]
100010b4:	23ff      	movs	r3, #255	; 0xff
100010b6:	021b      	lsls	r3, r3, #8
100010b8:	4013      	ands	r3, r2
100010ba:	0a1a      	lsrs	r2, r3, #8
100010bc:	4b10      	ldr	r3, [pc, #64]	; (10001100 <SystemCoreClockUpdate+0x54>)
100010be:	601a      	str	r2, [r3, #0]
  FDIV = ((SCU_CLK->CLKCR) & SCU_CLK_CLKCR_FDIV_Msk) >> SCU_CLK_CLKCR_FDIV_Pos;
100010c0:	4b0e      	ldr	r3, [pc, #56]	; (100010fc <SystemCoreClockUpdate+0x50>)
100010c2:	681b      	ldr	r3, [r3, #0]
100010c4:	22ff      	movs	r2, #255	; 0xff
100010c6:	401a      	ands	r2, r3
100010c8:	4b0e      	ldr	r3, [pc, #56]	; (10001104 <SystemCoreClockUpdate+0x58>)
100010ca:	601a      	str	r2, [r3, #0]
  
  if (IDIV != 0)
100010cc:	4b0c      	ldr	r3, [pc, #48]	; (10001100 <SystemCoreClockUpdate+0x54>)
100010ce:	681b      	ldr	r3, [r3, #0]
100010d0:	2b00      	cmp	r3, #0
100010d2:	d00e      	beq.n	100010f2 <SystemCoreClockUpdate+0x46>
  {
    /* Fractional divider is enabled and used */
    SystemCoreClock = ((DCO1_FREQUENCY << 6U) / ((IDIV << 8) + FDIV)) << 1U;
100010d4:	4b0a      	ldr	r3, [pc, #40]	; (10001100 <SystemCoreClockUpdate+0x54>)
100010d6:	681b      	ldr	r3, [r3, #0]
100010d8:	021a      	lsls	r2, r3, #8
100010da:	4b0a      	ldr	r3, [pc, #40]	; (10001104 <SystemCoreClockUpdate+0x58>)
100010dc:	681b      	ldr	r3, [r3, #0]
100010de:	18d3      	adds	r3, r2, r3
100010e0:	4809      	ldr	r0, [pc, #36]	; (10001108 <SystemCoreClockUpdate+0x5c>)
100010e2:	1c19      	adds	r1, r3, #0
100010e4:	f002 fc90 	bl	10003a08 <__aeabi_uidiv>
100010e8:	1c03      	adds	r3, r0, #0
100010ea:	005a      	lsls	r2, r3, #1
100010ec:	4b07      	ldr	r3, [pc, #28]	; (1000110c <SystemCoreClockUpdate+0x60>)
100010ee:	601a      	str	r2, [r3, #0]
100010f0:	e002      	b.n	100010f8 <SystemCoreClockUpdate+0x4c>
  }
  else
  {
    /* Fractional divider bypassed. Simply divide DCO_DCLK by 2 */
    SystemCoreClock = DCO1_FREQUENCY >> 1U;
100010f2:	4b06      	ldr	r3, [pc, #24]	; (1000110c <SystemCoreClockUpdate+0x60>)
100010f4:	4a06      	ldr	r2, [pc, #24]	; (10001110 <SystemCoreClockUpdate+0x64>)
100010f6:	601a      	str	r2, [r3, #0]
  }
}
100010f8:	46bd      	mov	sp, r7
100010fa:	bd80      	pop	{r7, pc}
100010fc:	40010300 	.word	0x40010300
10001100:	20000640 	.word	0x20000640
10001104:	20000644 	.word	0x20000644
10001108:	f4240000 	.word	0xf4240000
1000110c:	20003ffc 	.word	0x20003ffc
10001110:	01e84800 	.word	0x01e84800

10001114 <XMC_GPIO_Init>:
/*******************************************************************************
 * API IMPLEMENTATION
 *******************************************************************************/

void XMC_GPIO_Init(XMC_GPIO_PORT_t *const port, const uint8_t pin, const XMC_GPIO_CONFIG_t *const config)
{
10001114:	b590      	push	{r4, r7, lr}
10001116:	b085      	sub	sp, #20
10001118:	af00      	add	r7, sp, #0
1000111a:	60f8      	str	r0, [r7, #12]
1000111c:	607a      	str	r2, [r7, #4]
1000111e:	230b      	movs	r3, #11
10001120:	18fb      	adds	r3, r7, r3
10001122:	1c0a      	adds	r2, r1, #0
10001124:	701a      	strb	r2, [r3, #0]
  XMC_ASSERT("XMC_GPIO_Init: Invalid port", XMC_GPIO_CHECK_PORT(port));
  XMC_ASSERT("XMC_GPIO_Init: Invalid mode", XMC_GPIO_IsModeValid(config->mode));
  XMC_ASSERT("XMC_GPIO_Init: Invalid input hysteresis", XMC_GPIO_CHECK_INPUT_HYSTERESIS(config->input_hysteresis));

  /* Switch to input */
  port->IOCR[pin >> 2U] &= ~(uint32_t)((uint32_t)PORT_IOCR_PC_Msk << (PORT_IOCR_PC_Size * (pin & 0x3U)));
10001126:	230b      	movs	r3, #11
10001128:	18fb      	adds	r3, r7, r3
1000112a:	781b      	ldrb	r3, [r3, #0]
1000112c:	089b      	lsrs	r3, r3, #2
1000112e:	b2db      	uxtb	r3, r3
10001130:	1c18      	adds	r0, r3, #0
10001132:	230b      	movs	r3, #11
10001134:	18fb      	adds	r3, r7, r3
10001136:	781b      	ldrb	r3, [r3, #0]
10001138:	089b      	lsrs	r3, r3, #2
1000113a:	b2db      	uxtb	r3, r3
1000113c:	1c1a      	adds	r2, r3, #0
1000113e:	68fb      	ldr	r3, [r7, #12]
10001140:	3204      	adds	r2, #4
10001142:	0092      	lsls	r2, r2, #2
10001144:	58d3      	ldr	r3, [r2, r3]
10001146:	220b      	movs	r2, #11
10001148:	18ba      	adds	r2, r7, r2
1000114a:	7812      	ldrb	r2, [r2, #0]
1000114c:	2103      	movs	r1, #3
1000114e:	400a      	ands	r2, r1
10001150:	00d2      	lsls	r2, r2, #3
10001152:	1c11      	adds	r1, r2, #0
10001154:	22f8      	movs	r2, #248	; 0xf8
10001156:	408a      	lsls	r2, r1
10001158:	43d2      	mvns	r2, r2
1000115a:	401a      	ands	r2, r3
1000115c:	1c11      	adds	r1, r2, #0
1000115e:	68fb      	ldr	r3, [r7, #12]
10001160:	1d02      	adds	r2, r0, #4
10001162:	0092      	lsls	r2, r2, #2
10001164:	50d1      	str	r1, [r2, r3]

  /* HW port control is disabled */
  port->HWSEL &= ~(uint32_t)((uint32_t)PORT_HWSEL_Msk << ((uint32_t)pin << 1U));
10001166:	68fb      	ldr	r3, [r7, #12]
10001168:	6f5b      	ldr	r3, [r3, #116]	; 0x74
1000116a:	220b      	movs	r2, #11
1000116c:	18ba      	adds	r2, r7, r2
1000116e:	7812      	ldrb	r2, [r2, #0]
10001170:	0052      	lsls	r2, r2, #1
10001172:	1c11      	adds	r1, r2, #0
10001174:	2203      	movs	r2, #3
10001176:	408a      	lsls	r2, r1
10001178:	43d2      	mvns	r2, r2
1000117a:	401a      	ands	r2, r3
1000117c:	68fb      	ldr	r3, [r7, #12]
1000117e:	675a      	str	r2, [r3, #116]	; 0x74

  /* Set input hysteresis */
  port->PHCR[(uint32_t)pin >> 3U] &= ~(uint32_t)((uint32_t)PORT_PHCR_Msk << ((uint32_t)PORT_PHCR_Size * ((uint32_t)pin & 0x7U)));
10001180:	230b      	movs	r3, #11
10001182:	18fb      	adds	r3, r7, r3
10001184:	781b      	ldrb	r3, [r3, #0]
10001186:	08db      	lsrs	r3, r3, #3
10001188:	b2db      	uxtb	r3, r3
1000118a:	1c18      	adds	r0, r3, #0
1000118c:	230b      	movs	r3, #11
1000118e:	18fb      	adds	r3, r7, r3
10001190:	781b      	ldrb	r3, [r3, #0]
10001192:	08db      	lsrs	r3, r3, #3
10001194:	b2db      	uxtb	r3, r3
10001196:	1c1a      	adds	r2, r3, #0
10001198:	68fb      	ldr	r3, [r7, #12]
1000119a:	3210      	adds	r2, #16
1000119c:	0092      	lsls	r2, r2, #2
1000119e:	58d3      	ldr	r3, [r2, r3]
100011a0:	220b      	movs	r2, #11
100011a2:	18ba      	adds	r2, r7, r2
100011a4:	7812      	ldrb	r2, [r2, #0]
100011a6:	2107      	movs	r1, #7
100011a8:	400a      	ands	r2, r1
100011aa:	0092      	lsls	r2, r2, #2
100011ac:	1c11      	adds	r1, r2, #0
100011ae:	2204      	movs	r2, #4
100011b0:	408a      	lsls	r2, r1
100011b2:	43d2      	mvns	r2, r2
100011b4:	401a      	ands	r2, r3
100011b6:	1c11      	adds	r1, r2, #0
100011b8:	68fb      	ldr	r3, [r7, #12]
100011ba:	1c02      	adds	r2, r0, #0
100011bc:	3210      	adds	r2, #16
100011be:	0092      	lsls	r2, r2, #2
100011c0:	50d1      	str	r1, [r2, r3]
  port->PHCR[(uint32_t)pin >> 3U] |= (uint32_t)config->input_hysteresis << ((uint32_t)PORT_PHCR_Size * ((uint32_t)pin & 0x7U));
100011c2:	230b      	movs	r3, #11
100011c4:	18fb      	adds	r3, r7, r3
100011c6:	781b      	ldrb	r3, [r3, #0]
100011c8:	08db      	lsrs	r3, r3, #3
100011ca:	b2db      	uxtb	r3, r3
100011cc:	1c18      	adds	r0, r3, #0
100011ce:	230b      	movs	r3, #11
100011d0:	18fb      	adds	r3, r7, r3
100011d2:	781b      	ldrb	r3, [r3, #0]
100011d4:	08db      	lsrs	r3, r3, #3
100011d6:	b2db      	uxtb	r3, r3
100011d8:	1c1a      	adds	r2, r3, #0
100011da:	68fb      	ldr	r3, [r7, #12]
100011dc:	3210      	adds	r2, #16
100011de:	0092      	lsls	r2, r2, #2
100011e0:	58d2      	ldr	r2, [r2, r3]
100011e2:	687b      	ldr	r3, [r7, #4]
100011e4:	785b      	ldrb	r3, [r3, #1]
100011e6:	1c1c      	adds	r4, r3, #0
100011e8:	230b      	movs	r3, #11
100011ea:	18fb      	adds	r3, r7, r3
100011ec:	781b      	ldrb	r3, [r3, #0]
100011ee:	2107      	movs	r1, #7
100011f0:	400b      	ands	r3, r1
100011f2:	009b      	lsls	r3, r3, #2
100011f4:	409c      	lsls	r4, r3
100011f6:	1c23      	adds	r3, r4, #0
100011f8:	431a      	orrs	r2, r3
100011fa:	1c11      	adds	r1, r2, #0
100011fc:	68fb      	ldr	r3, [r7, #12]
100011fe:	1c02      	adds	r2, r0, #0
10001200:	3210      	adds	r2, #16
10001202:	0092      	lsls	r2, r2, #2
10001204:	50d1      	str	r1, [r2, r3]

  /* Enable digital input */
  if (XMC_GPIO_CHECK_ANALOG_PORT(port))
10001206:	68fb      	ldr	r3, [r7, #12]
10001208:	4a20      	ldr	r2, [pc, #128]	; (1000128c <XMC_GPIO_Init+0x178>)
1000120a:	4293      	cmp	r3, r2
1000120c:	d10b      	bne.n	10001226 <XMC_GPIO_Init+0x112>
  {
    port->PDISC &= ~(uint32_t)((uint32_t)0x1U << pin);
1000120e:	68fb      	ldr	r3, [r7, #12]
10001210:	6e1b      	ldr	r3, [r3, #96]	; 0x60
10001212:	220b      	movs	r2, #11
10001214:	18ba      	adds	r2, r7, r2
10001216:	7812      	ldrb	r2, [r2, #0]
10001218:	2101      	movs	r1, #1
1000121a:	4091      	lsls	r1, r2
1000121c:	1c0a      	adds	r2, r1, #0
1000121e:	43d2      	mvns	r2, r2
10001220:	401a      	ands	r2, r3
10001222:	68fb      	ldr	r3, [r7, #12]
10001224:	661a      	str	r2, [r3, #96]	; 0x60
  }

  if ((config->mode & XMC_GPIO_MODE_OE) != 0)
10001226:	687b      	ldr	r3, [r7, #4]
10001228:	781b      	ldrb	r3, [r3, #0]
1000122a:	b2db      	uxtb	r3, r3
1000122c:	b25b      	sxtb	r3, r3
1000122e:	2b00      	cmp	r3, #0
10001230:	da07      	bge.n	10001242 <XMC_GPIO_Init+0x12e>
  {
    /* If output is enabled */

    /* Set output level */
    port->OMR = (uint32_t)config->output_level << pin;
10001232:	687b      	ldr	r3, [r7, #4]
10001234:	685a      	ldr	r2, [r3, #4]
10001236:	230b      	movs	r3, #11
10001238:	18fb      	adds	r3, r7, r3
1000123a:	781b      	ldrb	r3, [r3, #0]
1000123c:	409a      	lsls	r2, r3
1000123e:	68fb      	ldr	r3, [r7, #12]
10001240:	605a      	str	r2, [r3, #4]
  }

  /* Set mode */
  port->IOCR[pin >> 2U] |= (uint32_t)config->mode << (PORT_IOCR_PC_Size * (pin & 0x3U));
10001242:	230b      	movs	r3, #11
10001244:	18fb      	adds	r3, r7, r3
10001246:	781b      	ldrb	r3, [r3, #0]
10001248:	089b      	lsrs	r3, r3, #2
1000124a:	b2db      	uxtb	r3, r3
1000124c:	1c18      	adds	r0, r3, #0
1000124e:	230b      	movs	r3, #11
10001250:	18fb      	adds	r3, r7, r3
10001252:	781b      	ldrb	r3, [r3, #0]
10001254:	089b      	lsrs	r3, r3, #2
10001256:	b2db      	uxtb	r3, r3
10001258:	1c1a      	adds	r2, r3, #0
1000125a:	68fb      	ldr	r3, [r7, #12]
1000125c:	3204      	adds	r2, #4
1000125e:	0092      	lsls	r2, r2, #2
10001260:	58d2      	ldr	r2, [r2, r3]
10001262:	687b      	ldr	r3, [r7, #4]
10001264:	781b      	ldrb	r3, [r3, #0]
10001266:	1c1c      	adds	r4, r3, #0
10001268:	230b      	movs	r3, #11
1000126a:	18fb      	adds	r3, r7, r3
1000126c:	781b      	ldrb	r3, [r3, #0]
1000126e:	2103      	movs	r1, #3
10001270:	400b      	ands	r3, r1
10001272:	00db      	lsls	r3, r3, #3
10001274:	409c      	lsls	r4, r3
10001276:	1c23      	adds	r3, r4, #0
10001278:	431a      	orrs	r2, r3
1000127a:	1c11      	adds	r1, r2, #0
1000127c:	68fb      	ldr	r3, [r7, #12]
1000127e:	1d02      	adds	r2, r0, #4
10001280:	0092      	lsls	r2, r2, #2
10001282:	50d1      	str	r1, [r2, r3]
}
10001284:	46bd      	mov	sp, r7
10001286:	b005      	add	sp, #20
10001288:	bd90      	pop	{r4, r7, pc}
1000128a:	46c0      	nop			; (mov r8, r8)
1000128c:	40040200 	.word	0x40040200

10001290 <XMC_SCU_LockProtectedBits>:
#endif
}

/* API to lock protected bitfields from being modified */
void XMC_SCU_LockProtectedBits(void)
{
10001290:	b580      	push	{r7, lr}
10001292:	af00      	add	r7, sp, #0
  SCU_GENERAL->PASSWD = SCU_GCU_PASSWD_PROT_ENABLE;
10001294:	4b02      	ldr	r3, [pc, #8]	; (100012a0 <XMC_SCU_LockProtectedBits+0x10>)
10001296:	22c3      	movs	r2, #195	; 0xc3
10001298:	625a      	str	r2, [r3, #36]	; 0x24
}
1000129a:	46bd      	mov	sp, r7
1000129c:	bd80      	pop	{r7, pc}
1000129e:	46c0      	nop			; (mov r8, r8)
100012a0:	40010000 	.word	0x40010000

100012a4 <XMC_SCU_UnlockProtectedBits>:

/* API to make protected bitfields available for modification */
void XMC_SCU_UnlockProtectedBits(void)
{
100012a4:	b580      	push	{r7, lr}
100012a6:	af00      	add	r7, sp, #0
  SCU_GENERAL->PASSWD = SCU_GCU_PASSWD_PROT_DISABLE;
100012a8:	4b05      	ldr	r3, [pc, #20]	; (100012c0 <XMC_SCU_UnlockProtectedBits+0x1c>)
100012aa:	22c0      	movs	r2, #192	; 0xc0
100012ac:	625a      	str	r2, [r3, #36]	; 0x24

  while (((SCU_GENERAL->PASSWD) & SCU_GENERAL_PASSWD_PROTS_Msk))
100012ae:	46c0      	nop			; (mov r8, r8)
100012b0:	4b03      	ldr	r3, [pc, #12]	; (100012c0 <XMC_SCU_UnlockProtectedBits+0x1c>)
100012b2:	6a5b      	ldr	r3, [r3, #36]	; 0x24
100012b4:	2204      	movs	r2, #4
100012b6:	4013      	ands	r3, r2
100012b8:	d1fa      	bne.n	100012b0 <XMC_SCU_UnlockProtectedBits+0xc>
  {
    /* Loop until the lock is removed */
  }
}
100012ba:	46bd      	mov	sp, r7
100012bc:	bd80      	pop	{r7, pc}
100012be:	46c0      	nop			; (mov r8, r8)
100012c0:	40010000 	.word	0x40010000

100012c4 <XMC_SCU_CLOCK_Init>:
}


/* API which initializes the clock tree ofthe device */
void XMC_SCU_CLOCK_Init(const XMC_SCU_CLOCK_CONFIG_t *const config)
{
100012c4:	b580      	push	{r7, lr}
100012c6:	b082      	sub	sp, #8
100012c8:	af00      	add	r7, sp, #0
100012ca:	6078      	str	r0, [r7, #4]
  /* Remove protection */
  XMC_SCU_UnlockProtectedBits();
100012cc:	f7ff ffea 	bl	100012a4 <XMC_SCU_UnlockProtectedBits>
  SCU_CLK->CLKCR1 = (SCU_CLK->CLKCR1 & ~SCU_CLK_CLKCR1_DCLKSEL_Msk) |
                    config->dclk_src;

#endif
  /* Update PCLK selection mux. */
  SCU_CLK->CLKCR = (SCU_CLK->CLKCR & (uint32_t)~(SCU_CLK_CLKCR_PCLKSEL_Msk | SCU_CLK_CLKCR_RTCCLKSEL_Msk)) |
100012d0:	4a0c      	ldr	r2, [pc, #48]	; (10001304 <XMC_SCU_CLOCK_Init+0x40>)
100012d2:	4b0c      	ldr	r3, [pc, #48]	; (10001304 <XMC_SCU_CLOCK_Init+0x40>)
100012d4:	681b      	ldr	r3, [r3, #0]
100012d6:	490c      	ldr	r1, [pc, #48]	; (10001308 <XMC_SCU_CLOCK_Init+0x44>)
100012d8:	4019      	ands	r1, r3
                   config->rtc_src |
100012da:	687b      	ldr	r3, [r7, #4]
100012dc:	689b      	ldr	r3, [r3, #8]
  SCU_CLK->CLKCR1 = (SCU_CLK->CLKCR1 & ~SCU_CLK_CLKCR1_DCLKSEL_Msk) |
                    config->dclk_src;

#endif
  /* Update PCLK selection mux. */
  SCU_CLK->CLKCR = (SCU_CLK->CLKCR & (uint32_t)~(SCU_CLK_CLKCR_PCLKSEL_Msk | SCU_CLK_CLKCR_RTCCLKSEL_Msk)) |
100012de:	4319      	orrs	r1, r3
                   config->rtc_src |
                   config->pclk_src;
100012e0:	687b      	ldr	r3, [r7, #4]
100012e2:	685b      	ldr	r3, [r3, #4]
                    config->dclk_src;

#endif
  /* Update PCLK selection mux. */
  SCU_CLK->CLKCR = (SCU_CLK->CLKCR & (uint32_t)~(SCU_CLK_CLKCR_PCLKSEL_Msk | SCU_CLK_CLKCR_RTCCLKSEL_Msk)) |
                   config->rtc_src |
100012e4:	430b      	orrs	r3, r1
  SCU_CLK->CLKCR1 = (SCU_CLK->CLKCR1 & ~SCU_CLK_CLKCR1_DCLKSEL_Msk) |
                    config->dclk_src;

#endif
  /* Update PCLK selection mux. */
  SCU_CLK->CLKCR = (SCU_CLK->CLKCR & (uint32_t)~(SCU_CLK_CLKCR_PCLKSEL_Msk | SCU_CLK_CLKCR_RTCCLKSEL_Msk)) |
100012e6:	6013      	str	r3, [r2, #0]
                   config->rtc_src |
                   config->pclk_src;

  /* Close the lock opened above. */
  XMC_SCU_LockProtectedBits();
100012e8:	f7ff ffd2 	bl	10001290 <XMC_SCU_LockProtectedBits>

  /* Update the dividers now */
  XMC_SCU_CLOCK_ScaleMCLKFrequency(config->idiv, config->fdiv);
100012ec:	687b      	ldr	r3, [r7, #4]
100012ee:	785b      	ldrb	r3, [r3, #1]
100012f0:	1c1a      	adds	r2, r3, #0
100012f2:	687b      	ldr	r3, [r7, #4]
100012f4:	781b      	ldrb	r3, [r3, #0]
100012f6:	1c10      	adds	r0, r2, #0
100012f8:	1c19      	adds	r1, r3, #0
100012fa:	f000 f825 	bl	10001348 <XMC_SCU_CLOCK_ScaleMCLKFrequency>

}
100012fe:	46bd      	mov	sp, r7
10001300:	b002      	add	sp, #8
10001302:	bd80      	pop	{r7, pc}
10001304:	40010300 	.word	0x40010300
10001308:	fff0ffff 	.word	0xfff0ffff

1000130c <XMC_SCU_CLOCK_UngatePeripheralClock>:
  XMC_SCU_LockProtectedBits();
}

/* API which ungates a clock note at its source */
void XMC_SCU_CLOCK_UngatePeripheralClock(const XMC_SCU_PERIPHERAL_CLOCK_t peripheral)
{
1000130c:	b580      	push	{r7, lr}
1000130e:	b082      	sub	sp, #8
10001310:	af00      	add	r7, sp, #0
10001312:	1c02      	adds	r2, r0, #0
10001314:	1dbb      	adds	r3, r7, #6
10001316:	801a      	strh	r2, [r3, #0]
  XMC_SCU_UnlockProtectedBits();
10001318:	f7ff ffc4 	bl	100012a4 <XMC_SCU_UnlockProtectedBits>
  SCU_CLK->CGATCLR0 |= (uint32_t)peripheral;
1000131c:	4b09      	ldr	r3, [pc, #36]	; (10001344 <XMC_SCU_CLOCK_UngatePeripheralClock+0x38>)
1000131e:	4a09      	ldr	r2, [pc, #36]	; (10001344 <XMC_SCU_CLOCK_UngatePeripheralClock+0x38>)
10001320:	6911      	ldr	r1, [r2, #16]
10001322:	1dba      	adds	r2, r7, #6
10001324:	8812      	ldrh	r2, [r2, #0]
10001326:	430a      	orrs	r2, r1
10001328:	611a      	str	r2, [r3, #16]
  while ((SCU_CLK->CLKCR) & SCU_CLK_CLKCR_VDDC2LOW_Msk)
1000132a:	46c0      	nop			; (mov r8, r8)
1000132c:	4b05      	ldr	r3, [pc, #20]	; (10001344 <XMC_SCU_CLOCK_UngatePeripheralClock+0x38>)
1000132e:	681a      	ldr	r2, [r3, #0]
10001330:	2380      	movs	r3, #128	; 0x80
10001332:	05db      	lsls	r3, r3, #23
10001334:	4013      	ands	r3, r2
10001336:	d1f9      	bne.n	1000132c <XMC_SCU_CLOCK_UngatePeripheralClock+0x20>
  {
    /* Wait voltage suply stabilization */
  }
  XMC_SCU_LockProtectedBits();
10001338:	f7ff ffaa 	bl	10001290 <XMC_SCU_LockProtectedBits>
}
1000133c:	46bd      	mov	sp, r7
1000133e:	b002      	add	sp, #8
10001340:	bd80      	pop	{r7, pc}
10001342:	46c0      	nop			; (mov r8, r8)
10001344:	40010300 	.word	0x40010300

10001348 <XMC_SCU_CLOCK_ScaleMCLKFrequency>:
}


/* A utility routine which updates the fractional dividers in steps */
void XMC_SCU_CLOCK_ScaleMCLKFrequency(uint32_t idiv, uint32_t fdiv)
{
10001348:	b580      	push	{r7, lr}
1000134a:	b084      	sub	sp, #16
1000134c:	af00      	add	r7, sp, #0
1000134e:	6078      	str	r0, [r7, #4]
10001350:	6039      	str	r1, [r7, #0]
  /* Find out current and target value of idiv */
  uint32_t curr_idiv;

  XMC_SCU_UnlockProtectedBits();
10001352:	f7ff ffa7 	bl	100012a4 <XMC_SCU_UnlockProtectedBits>

  /* Take a snapshot of value already programmed into IDIV */
  curr_idiv = (SCU_CLK->CLKCR & SCU_CLK_CLKCR_IDIV_Msk) >> SCU_CLK_CLKCR_IDIV_Pos;
10001356:	4b21      	ldr	r3, [pc, #132]	; (100013dc <XMC_SCU_CLOCK_ScaleMCLKFrequency+0x94>)
10001358:	681a      	ldr	r2, [r3, #0]
1000135a:	23ff      	movs	r3, #255	; 0xff
1000135c:	021b      	lsls	r3, r3, #8
1000135e:	4013      	ands	r3, r2
10001360:	0a1b      	lsrs	r3, r3, #8
10001362:	60fb      	str	r3, [r7, #12]

  SCU_CLK->CLKCR = (SCU_CLK->CLKCR & (uint32_t)~(SCU_CLK_CLKCR_FDIV_Msk | SCU_CLK_CLKCR_CNTADJ_Msk)) |
                   (uint32_t)((fdiv & 0xffU) << SCU_CLK_CLKCR_FDIV_Pos) |
                   (uint32_t)(1023UL << SCU_CLK_CLKCR_CNTADJ_Pos);
#else
  SCU_CLK->CLKCR = (SCU_CLK->CLKCR & (uint32_t)~(SCU_CLK_CLKCR_FDIV_Msk | SCU_CLK_CLKCR_CNTADJ_Msk)) |
10001364:	4b1d      	ldr	r3, [pc, #116]	; (100013dc <XMC_SCU_CLOCK_ScaleMCLKFrequency+0x94>)
10001366:	4a1d      	ldr	r2, [pc, #116]	; (100013dc <XMC_SCU_CLOCK_ScaleMCLKFrequency+0x94>)
10001368:	6812      	ldr	r2, [r2, #0]
1000136a:	491d      	ldr	r1, [pc, #116]	; (100013e0 <XMC_SCU_CLOCK_ScaleMCLKFrequency+0x98>)
1000136c:	4011      	ands	r1, r2
1000136e:	683a      	ldr	r2, [r7, #0]
10001370:	430a      	orrs	r2, r1
                   (uint32_t)(fdiv << SCU_CLK_CLKCR_FDIV_Pos) |
10001372:	491c      	ldr	r1, [pc, #112]	; (100013e4 <XMC_SCU_CLOCK_ScaleMCLKFrequency+0x9c>)
10001374:	430a      	orrs	r2, r1

  SCU_CLK->CLKCR = (SCU_CLK->CLKCR & (uint32_t)~(SCU_CLK_CLKCR_FDIV_Msk | SCU_CLK_CLKCR_CNTADJ_Msk)) |
                   (uint32_t)((fdiv & 0xffU) << SCU_CLK_CLKCR_FDIV_Pos) |
                   (uint32_t)(1023UL << SCU_CLK_CLKCR_CNTADJ_Pos);
#else
  SCU_CLK->CLKCR = (SCU_CLK->CLKCR & (uint32_t)~(SCU_CLK_CLKCR_FDIV_Msk | SCU_CLK_CLKCR_CNTADJ_Msk)) |
10001376:	601a      	str	r2, [r3, #0]
                   (uint32_t)(fdiv << SCU_CLK_CLKCR_FDIV_Pos) |
                   (uint32_t)(1023UL << SCU_CLK_CLKCR_CNTADJ_Pos);
#endif

  while ((SCU_CLK->CLKCR)& SCU_CLK_CLKCR_VDDC2LOW_Msk)
10001378:	46c0      	nop			; (mov r8, r8)
1000137a:	4b18      	ldr	r3, [pc, #96]	; (100013dc <XMC_SCU_CLOCK_ScaleMCLKFrequency+0x94>)
1000137c:	681a      	ldr	r2, [r3, #0]
1000137e:	2380      	movs	r3, #128	; 0x80
10001380:	05db      	lsls	r3, r3, #23
10001382:	4013      	ands	r3, r2
10001384:	d1f9      	bne.n	1000137a <XMC_SCU_CLOCK_ScaleMCLKFrequency+0x32>
  {
    /* Spin until the core supply stabilizes */
  }

  if (curr_idiv <= idiv)
10001386:	68fa      	ldr	r2, [r7, #12]
10001388:	687b      	ldr	r3, [r7, #4]
1000138a:	429a      	cmp	r2, r3
1000138c:	d806      	bhi.n	1000139c <XMC_SCU_CLOCK_ScaleMCLKFrequency+0x54>
  {
    /* Requested IDIV is greater than currently programmed IDIV. So downscale the frequency */
    XMC_SCU_CLOCK_lFrequencyDownScaling(curr_idiv, idiv);
1000138e:	68fa      	ldr	r2, [r7, #12]
10001390:	687b      	ldr	r3, [r7, #4]
10001392:	1c10      	adds	r0, r2, #0
10001394:	1c19      	adds	r1, r3, #0
10001396:	f000 f853 	bl	10001440 <XMC_SCU_CLOCK_lFrequencyDownScaling>
1000139a:	e005      	b.n	100013a8 <XMC_SCU_CLOCK_ScaleMCLKFrequency+0x60>
  }
  else
  {
    /* Requested IDIV is lower than currently programmed IDIV. So upscale the frequency */
    XMC_SCU_CLOCK_lFrequencyUpScaling(curr_idiv, idiv);
1000139c:	68fa      	ldr	r2, [r7, #12]
1000139e:	687b      	ldr	r3, [r7, #4]
100013a0:	1c10      	adds	r0, r2, #0
100013a2:	1c19      	adds	r1, r3, #0
100013a4:	f000 f822 	bl	100013ec <XMC_SCU_CLOCK_lFrequencyUpScaling>
  }

  SCU_CLK->CLKCR = (SCU_CLK->CLKCR & (uint32_t)~(SCU_CLK_CLKCR_IDIV_Msk | SCU_CLK_CLKCR_CNTADJ_Msk)) |
100013a8:	4b0c      	ldr	r3, [pc, #48]	; (100013dc <XMC_SCU_CLOCK_ScaleMCLKFrequency+0x94>)
100013aa:	4a0c      	ldr	r2, [pc, #48]	; (100013dc <XMC_SCU_CLOCK_ScaleMCLKFrequency+0x94>)
100013ac:	6812      	ldr	r2, [r2, #0]
100013ae:	490e      	ldr	r1, [pc, #56]	; (100013e8 <XMC_SCU_CLOCK_ScaleMCLKFrequency+0xa0>)
100013b0:	4011      	ands	r1, r2
                   (uint32_t)(idiv << SCU_CLK_CLKCR_IDIV_Pos) | (uint32_t)(1023UL << SCU_CLK_CLKCR_CNTADJ_Pos);
100013b2:	687a      	ldr	r2, [r7, #4]
100013b4:	0212      	lsls	r2, r2, #8
  {
    /* Requested IDIV is lower than currently programmed IDIV. So upscale the frequency */
    XMC_SCU_CLOCK_lFrequencyUpScaling(curr_idiv, idiv);
  }

  SCU_CLK->CLKCR = (SCU_CLK->CLKCR & (uint32_t)~(SCU_CLK_CLKCR_IDIV_Msk | SCU_CLK_CLKCR_CNTADJ_Msk)) |
100013b6:	430a      	orrs	r2, r1
                   (uint32_t)(idiv << SCU_CLK_CLKCR_IDIV_Pos) | (uint32_t)(1023UL << SCU_CLK_CLKCR_CNTADJ_Pos);
100013b8:	490a      	ldr	r1, [pc, #40]	; (100013e4 <XMC_SCU_CLOCK_ScaleMCLKFrequency+0x9c>)
100013ba:	430a      	orrs	r2, r1
  {
    /* Requested IDIV is lower than currently programmed IDIV. So upscale the frequency */
    XMC_SCU_CLOCK_lFrequencyUpScaling(curr_idiv, idiv);
  }

  SCU_CLK->CLKCR = (SCU_CLK->CLKCR & (uint32_t)~(SCU_CLK_CLKCR_IDIV_Msk | SCU_CLK_CLKCR_CNTADJ_Msk)) |
100013bc:	601a      	str	r2, [r3, #0]
                   (uint32_t)(idiv << SCU_CLK_CLKCR_IDIV_Pos) | (uint32_t)(1023UL << SCU_CLK_CLKCR_CNTADJ_Pos);

  while ((SCU_CLK->CLKCR) & SCU_CLK_CLKCR_VDDC2LOW_Msk)
100013be:	46c0      	nop			; (mov r8, r8)
100013c0:	4b06      	ldr	r3, [pc, #24]	; (100013dc <XMC_SCU_CLOCK_ScaleMCLKFrequency+0x94>)
100013c2:	681a      	ldr	r2, [r3, #0]
100013c4:	2380      	movs	r3, #128	; 0x80
100013c6:	05db      	lsls	r3, r3, #23
100013c8:	4013      	ands	r3, r2
100013ca:	d1f9      	bne.n	100013c0 <XMC_SCU_CLOCK_ScaleMCLKFrequency+0x78>
  {
    /* Wait voltage suply stabilization */
  }

  XMC_SCU_LockProtectedBits();
100013cc:	f7ff ff60 	bl	10001290 <XMC_SCU_LockProtectedBits>

  SystemCoreClockUpdate();
100013d0:	f7ff fe6c 	bl	100010ac <SystemCoreClockUpdate>

}
100013d4:	46bd      	mov	sp, r7
100013d6:	b004      	add	sp, #16
100013d8:	bd80      	pop	{r7, pc}
100013da:	46c0      	nop			; (mov r8, r8)
100013dc:	40010300 	.word	0x40010300
100013e0:	c00fff00 	.word	0xc00fff00
100013e4:	3ff00000 	.word	0x3ff00000
100013e8:	c00f00ff 	.word	0xc00f00ff

100013ec <XMC_SCU_CLOCK_lFrequencyUpScaling>:

/* Utility routine to perform frequency up scaling */
static void XMC_SCU_CLOCK_lFrequencyUpScaling(uint32_t curr_idiv, uint32_t target_idiv)
{
100013ec:	b580      	push	{r7, lr}
100013ee:	b082      	sub	sp, #8
100013f0:	af00      	add	r7, sp, #0
100013f2:	6078      	str	r0, [r7, #4]
100013f4:	6039      	str	r1, [r7, #0]
  while (curr_idiv > (target_idiv * 4UL))
100013f6:	e014      	b.n	10001422 <XMC_SCU_CLOCK_lFrequencyUpScaling+0x36>
  {
    curr_idiv = (uint32_t)(curr_idiv >> 2UL);   /* Divide by 4. */
100013f8:	687b      	ldr	r3, [r7, #4]
100013fa:	089b      	lsrs	r3, r3, #2
100013fc:	607b      	str	r3, [r7, #4]

    SCU_CLK->CLKCR = (SCU_CLK->CLKCR & (uint32_t)~(SCU_CLK_CLKCR_IDIV_Msk | SCU_CLK_CLKCR_CNTADJ_Msk)) |
100013fe:	4b0d      	ldr	r3, [pc, #52]	; (10001434 <XMC_SCU_CLOCK_lFrequencyUpScaling+0x48>)
10001400:	4a0c      	ldr	r2, [pc, #48]	; (10001434 <XMC_SCU_CLOCK_lFrequencyUpScaling+0x48>)
10001402:	6812      	ldr	r2, [r2, #0]
10001404:	490c      	ldr	r1, [pc, #48]	; (10001438 <XMC_SCU_CLOCK_lFrequencyUpScaling+0x4c>)
10001406:	4011      	ands	r1, r2
                     (uint32_t)(curr_idiv << SCU_CLK_CLKCR_IDIV_Pos) |
10001408:	687a      	ldr	r2, [r7, #4]
1000140a:	0212      	lsls	r2, r2, #8
{
  while (curr_idiv > (target_idiv * 4UL))
  {
    curr_idiv = (uint32_t)(curr_idiv >> 2UL);   /* Divide by 4. */

    SCU_CLK->CLKCR = (SCU_CLK->CLKCR & (uint32_t)~(SCU_CLK_CLKCR_IDIV_Msk | SCU_CLK_CLKCR_CNTADJ_Msk)) |
1000140c:	430a      	orrs	r2, r1
                     (uint32_t)(curr_idiv << SCU_CLK_CLKCR_IDIV_Pos) |
1000140e:	490b      	ldr	r1, [pc, #44]	; (1000143c <XMC_SCU_CLOCK_lFrequencyUpScaling+0x50>)
10001410:	430a      	orrs	r2, r1
{
  while (curr_idiv > (target_idiv * 4UL))
  {
    curr_idiv = (uint32_t)(curr_idiv >> 2UL);   /* Divide by 4. */

    SCU_CLK->CLKCR = (SCU_CLK->CLKCR & (uint32_t)~(SCU_CLK_CLKCR_IDIV_Msk | SCU_CLK_CLKCR_CNTADJ_Msk)) |
10001412:	601a      	str	r2, [r3, #0]
                     (uint32_t)(curr_idiv << SCU_CLK_CLKCR_IDIV_Pos) |
                     (uint32_t)(1023UL << SCU_CLK_CLKCR_CNTADJ_Pos);

    while (SCU_CLK->CLKCR & SCU_CLK_CLKCR_VDDC2LOW_Msk)
10001414:	46c0      	nop			; (mov r8, r8)
10001416:	4b07      	ldr	r3, [pc, #28]	; (10001434 <XMC_SCU_CLOCK_lFrequencyUpScaling+0x48>)
10001418:	681a      	ldr	r2, [r3, #0]
1000141a:	2380      	movs	r3, #128	; 0x80
1000141c:	05db      	lsls	r3, r3, #23
1000141e:	4013      	ands	r3, r2
10001420:	d1f9      	bne.n	10001416 <XMC_SCU_CLOCK_lFrequencyUpScaling+0x2a>
}

/* Utility routine to perform frequency up scaling */
static void XMC_SCU_CLOCK_lFrequencyUpScaling(uint32_t curr_idiv, uint32_t target_idiv)
{
  while (curr_idiv > (target_idiv * 4UL))
10001422:	683b      	ldr	r3, [r7, #0]
10001424:	009a      	lsls	r2, r3, #2
10001426:	687b      	ldr	r3, [r7, #4]
10001428:	429a      	cmp	r2, r3
1000142a:	d3e5      	bcc.n	100013f8 <XMC_SCU_CLOCK_lFrequencyUpScaling+0xc>
    while (SCU_CLK->CLKCR & SCU_CLK_CLKCR_VDDC2LOW_Msk)
    {
      /* Wait voltage suply stabilization */
    }
  }
}
1000142c:	46bd      	mov	sp, r7
1000142e:	b002      	add	sp, #8
10001430:	bd80      	pop	{r7, pc}
10001432:	46c0      	nop			; (mov r8, r8)
10001434:	40010300 	.word	0x40010300
10001438:	c00f00ff 	.word	0xc00f00ff
1000143c:	3ff00000 	.word	0x3ff00000

10001440 <XMC_SCU_CLOCK_lFrequencyDownScaling>:

/* Utility routine to perform frequency down scaling */
static void XMC_SCU_CLOCK_lFrequencyDownScaling(uint32_t curr_idiv, uint32_t target_idiv)
{
10001440:	b580      	push	{r7, lr}
10001442:	b082      	sub	sp, #8
10001444:	af00      	add	r7, sp, #0
10001446:	6078      	str	r0, [r7, #4]
10001448:	6039      	str	r1, [r7, #0]

  while ((curr_idiv * 4UL) < target_idiv)
1000144a:	e019      	b.n	10001480 <XMC_SCU_CLOCK_lFrequencyDownScaling+0x40>
  {
    if (0U == curr_idiv)
1000144c:	687b      	ldr	r3, [r7, #4]
1000144e:	2b00      	cmp	r3, #0
10001450:	d101      	bne.n	10001456 <XMC_SCU_CLOCK_lFrequencyDownScaling+0x16>
    {
      curr_idiv = 1U;
10001452:	2301      	movs	r3, #1
10001454:	607b      	str	r3, [r7, #4]
    }
    curr_idiv  = (uint32_t)(curr_idiv << 2UL);   /* Multiply by 4. */
10001456:	687b      	ldr	r3, [r7, #4]
10001458:	009b      	lsls	r3, r3, #2
1000145a:	607b      	str	r3, [r7, #4]
    SCU_CLK->CLKCR = (SCU_CLK->CLKCR & (uint32_t)~(SCU_CLK_CLKCR_IDIV_Msk | SCU_CLK_CLKCR_CNTADJ_Msk)) |
1000145c:	4b0c      	ldr	r3, [pc, #48]	; (10001490 <XMC_SCU_CLOCK_lFrequencyDownScaling+0x50>)
1000145e:	4a0c      	ldr	r2, [pc, #48]	; (10001490 <XMC_SCU_CLOCK_lFrequencyDownScaling+0x50>)
10001460:	6812      	ldr	r2, [r2, #0]
10001462:	490c      	ldr	r1, [pc, #48]	; (10001494 <XMC_SCU_CLOCK_lFrequencyDownScaling+0x54>)
10001464:	4011      	ands	r1, r2
                     (uint32_t)(curr_idiv << SCU_CLK_CLKCR_IDIV_Pos) |
10001466:	687a      	ldr	r2, [r7, #4]
10001468:	0212      	lsls	r2, r2, #8
    if (0U == curr_idiv)
    {
      curr_idiv = 1U;
    }
    curr_idiv  = (uint32_t)(curr_idiv << 2UL);   /* Multiply by 4. */
    SCU_CLK->CLKCR = (SCU_CLK->CLKCR & (uint32_t)~(SCU_CLK_CLKCR_IDIV_Msk | SCU_CLK_CLKCR_CNTADJ_Msk)) |
1000146a:	430a      	orrs	r2, r1
                     (uint32_t)(curr_idiv << SCU_CLK_CLKCR_IDIV_Pos) |
1000146c:	490a      	ldr	r1, [pc, #40]	; (10001498 <XMC_SCU_CLOCK_lFrequencyDownScaling+0x58>)
1000146e:	430a      	orrs	r2, r1
    if (0U == curr_idiv)
    {
      curr_idiv = 1U;
    }
    curr_idiv  = (uint32_t)(curr_idiv << 2UL);   /* Multiply by 4. */
    SCU_CLK->CLKCR = (SCU_CLK->CLKCR & (uint32_t)~(SCU_CLK_CLKCR_IDIV_Msk | SCU_CLK_CLKCR_CNTADJ_Msk)) |
10001470:	601a      	str	r2, [r3, #0]
                     (uint32_t)(curr_idiv << SCU_CLK_CLKCR_IDIV_Pos) |
                     (uint32_t)(1023UL << SCU_CLK_CLKCR_CNTADJ_Pos);

    while (SCU_CLK->CLKCR & SCU_CLK_CLKCR_VDDC2LOW_Msk)
10001472:	46c0      	nop			; (mov r8, r8)
10001474:	4b06      	ldr	r3, [pc, #24]	; (10001490 <XMC_SCU_CLOCK_lFrequencyDownScaling+0x50>)
10001476:	681a      	ldr	r2, [r3, #0]
10001478:	2380      	movs	r3, #128	; 0x80
1000147a:	05db      	lsls	r3, r3, #23
1000147c:	4013      	ands	r3, r2
1000147e:	d1f9      	bne.n	10001474 <XMC_SCU_CLOCK_lFrequencyDownScaling+0x34>

/* Utility routine to perform frequency down scaling */
static void XMC_SCU_CLOCK_lFrequencyDownScaling(uint32_t curr_idiv, uint32_t target_idiv)
{

  while ((curr_idiv * 4UL) < target_idiv)
10001480:	687b      	ldr	r3, [r7, #4]
10001482:	009a      	lsls	r2, r3, #2
10001484:	683b      	ldr	r3, [r7, #0]
10001486:	429a      	cmp	r2, r3
10001488:	d3e0      	bcc.n	1000144c <XMC_SCU_CLOCK_lFrequencyDownScaling+0xc>
    while (SCU_CLK->CLKCR & SCU_CLK_CLKCR_VDDC2LOW_Msk)
    {
      /* Wait voltage suply stabilization */
    }
  }
}
1000148a:	46bd      	mov	sp, r7
1000148c:	b002      	add	sp, #8
1000148e:	bd80      	pop	{r7, pc}
10001490:	40010300 	.word	0x40010300
10001494:	c00f00ff 	.word	0xc00f00ff
10001498:	3ff00000 	.word	0x3ff00000

1000149c <XMC_CCU4_StartPrescaler>:
 * \par<b>Related APIs:</b><br>
 * XMC_CCU4_Init()<BR> XMC_CCU4_EnableClock()<BR> XMC_CCU4_DisableClock()<BR> XMC_CCU4_StartPrescaler()<BR>
 * XMC_CCU4_StopPrescaler().
 */
__STATIC_INLINE void XMC_CCU4_StartPrescaler(XMC_CCU4_MODULE_t *const module)
{
1000149c:	b580      	push	{r7, lr}
1000149e:	b082      	sub	sp, #8
100014a0:	af00      	add	r7, sp, #0
100014a2:	6078      	str	r0, [r7, #4]
  XMC_ASSERT("XMC_CCU4_StartPrescaler:Invalid Module Pointer", XMC_CCU4_IsValidModule(module));
  module->GIDLC = (uint32_t) CCU4_GIDLC_SPRB_Msk;
100014a4:	687b      	ldr	r3, [r7, #4]
100014a6:	2280      	movs	r2, #128	; 0x80
100014a8:	0052      	lsls	r2, r2, #1
100014aa:	60da      	str	r2, [r3, #12]
}
100014ac:	46bd      	mov	sp, r7
100014ae:	b002      	add	sp, #8
100014b0:	bd80      	pop	{r7, pc}
100014b2:	46c0      	nop			; (mov r8, r8)

100014b4 <XMC_CCU4_lUngateClock>:
    XMC_ASSERT("XMC_CCU4_lGateClock:Invalid Module Pointer", 0);
  }
}

__STATIC_INLINE void XMC_CCU4_lUngateClock(const XMC_CCU4_MODULE_t *const module)
{
100014b4:	b580      	push	{r7, lr}
100014b6:	b082      	sub	sp, #8
100014b8:	af00      	add	r7, sp, #0
100014ba:	6078      	str	r0, [r7, #4]
  if (module == CCU40)
100014bc:	687b      	ldr	r3, [r7, #4]
100014be:	4a04      	ldr	r2, [pc, #16]	; (100014d0 <XMC_CCU4_lUngateClock+0x1c>)
100014c0:	4293      	cmp	r3, r2
100014c2:	d102      	bne.n	100014ca <XMC_CCU4_lUngateClock+0x16>
  {
    XMC_SCU_CLOCK_UngatePeripheralClock(XMC_SCU_PERIPHERAL_CLOCK_CCU40);
100014c4:	2004      	movs	r0, #4
100014c6:	f7ff ff21 	bl	1000130c <XMC_SCU_CLOCK_UngatePeripheralClock>
#endif
  else
  {
    XMC_ASSERT("XMC_CCU4_lUngateClock:Invalid Module Pointer", 0);
  }
}
100014ca:	46bd      	mov	sp, r7
100014cc:	b002      	add	sp, #8
100014ce:	bd80      	pop	{r7, pc}
100014d0:	48040000 	.word	0x48040000

100014d4 <XMC_CCU4_EnableModule>:
/*********************************************************************************************************************
 * API IMPLEMENTATION
 ********************************************************************************************************************/

void XMC_CCU4_EnableModule(XMC_CCU4_MODULE_t *const module)
{
100014d4:	b580      	push	{r7, lr}
100014d6:	b082      	sub	sp, #8
100014d8:	af00      	add	r7, sp, #0
100014da:	6078      	str	r0, [r7, #4]
  /* Enable CCU4 module clock */
  XMC_SCU_CLOCK_EnableClock(XMC_SCU_CLOCK_CCU);
#endif

#if defined(CLOCK_GATING_SUPPORTED)
  XMC_CCU4_lUngateClock(module);
100014dc:	687b      	ldr	r3, [r7, #4]
100014de:	1c18      	adds	r0, r3, #0
100014e0:	f7ff ffe8 	bl	100014b4 <XMC_CCU4_lUngateClock>
#endif

#if defined(PERIPHERAL_RESET_SUPPORTED)
  XMC_CCU4_lDeassertReset(module);
#endif
}
100014e4:	46bd      	mov	sp, r7
100014e6:	b002      	add	sp, #8
100014e8:	bd80      	pop	{r7, pc}
100014ea:	46c0      	nop			; (mov r8, r8)

100014ec <XMC_CCU4_Init>:
#endif
}

/* API to initialize CCU4 global resources  */
void XMC_CCU4_Init(XMC_CCU4_MODULE_t *const module, const XMC_CCU4_SLICE_MCMS_ACTION_t mcs_action)
{
100014ec:	b580      	push	{r7, lr}
100014ee:	b084      	sub	sp, #16
100014f0:	af00      	add	r7, sp, #0
100014f2:	6078      	str	r0, [r7, #4]
100014f4:	1c0a      	adds	r2, r1, #0
100014f6:	1cfb      	adds	r3, r7, #3
100014f8:	701a      	strb	r2, [r3, #0]

  XMC_ASSERT("XMC_CCU4_Init:Invalid module pointer", XMC_CCU4_IsValidModule(module));
  XMC_ASSERT("XMC_CCU4_Init:Invalid mcs action", XMC_CCU4_SLICE_CHECK_MCS_ACTION(mcs_action));

  /* Enable CCU4 module */
  XMC_CCU4_EnableModule(module);
100014fa:	687b      	ldr	r3, [r7, #4]
100014fc:	1c18      	adds	r0, r3, #0
100014fe:	f7ff ffe9 	bl	100014d4 <XMC_CCU4_EnableModule>
  /* Start the prescaler */
  XMC_CCU4_StartPrescaler(module);
10001502:	687b      	ldr	r3, [r7, #4]
10001504:	1c18      	adds	r0, r3, #0
10001506:	f7ff ffc9 	bl	1000149c <XMC_CCU4_StartPrescaler>

  gctrl = module->GCTRL;
1000150a:	687b      	ldr	r3, [r7, #4]
1000150c:	681b      	ldr	r3, [r3, #0]
1000150e:	60fb      	str	r3, [r7, #12]
  gctrl &= ~((uint32_t) CCU4_GCTRL_MSDE_Msk);
10001510:	68fb      	ldr	r3, [r7, #12]
10001512:	4a07      	ldr	r2, [pc, #28]	; (10001530 <XMC_CCU4_Init+0x44>)
10001514:	4013      	ands	r3, r2
10001516:	60fb      	str	r3, [r7, #12]
  gctrl |= ((uint32_t) mcs_action) << CCU4_GCTRL_MSDE_Pos;
10001518:	1cfb      	adds	r3, r7, #3
1000151a:	781b      	ldrb	r3, [r3, #0]
1000151c:	039b      	lsls	r3, r3, #14
1000151e:	68fa      	ldr	r2, [r7, #12]
10001520:	4313      	orrs	r3, r2
10001522:	60fb      	str	r3, [r7, #12]

  module->GCTRL = gctrl;
10001524:	687b      	ldr	r3, [r7, #4]
10001526:	68fa      	ldr	r2, [r7, #12]
10001528:	601a      	str	r2, [r3, #0]
}
1000152a:	46bd      	mov	sp, r7
1000152c:	b004      	add	sp, #16
1000152e:	bd80      	pop	{r7, pc}
10001530:	ffff3fff 	.word	0xffff3fff

10001534 <XMC_CCU4_SetMultiChannelShadowTransferMode>:
  module->GCTRL = gctrl;
}

/* API to configure the multichannel shadow transfer request via SW and via the CCU4x.MCSS input. */
void XMC_CCU4_SetMultiChannelShadowTransferMode(XMC_CCU4_MODULE_t *const module, const uint32_t slice_mode_msk)
{
10001534:	b580      	push	{r7, lr}
10001536:	b084      	sub	sp, #16
10001538:	af00      	add	r7, sp, #0
1000153a:	6078      	str	r0, [r7, #4]
1000153c:	6039      	str	r1, [r7, #0]
  uint32_t gctrl;

  XMC_ASSERT("XMC_CCU4_SetMultiChannelShadowTransferMode:Invalid module Pointer", XMC_CCU4_IsValidModule(module));

  gctrl = module->GCTRL;
1000153e:	687b      	ldr	r3, [r7, #4]
10001540:	681b      	ldr	r3, [r3, #0]
10001542:	60fb      	str	r3, [r7, #12]
  gctrl &= ~((uint32_t)slice_mode_msk >> 16U);
10001544:	683b      	ldr	r3, [r7, #0]
10001546:	0c1b      	lsrs	r3, r3, #16
10001548:	43da      	mvns	r2, r3
1000154a:	68fb      	ldr	r3, [r7, #12]
1000154c:	4013      	ands	r3, r2
1000154e:	60fb      	str	r3, [r7, #12]
  gctrl |= ((uint32_t)slice_mode_msk & 0xFFFFU);
10001550:	683b      	ldr	r3, [r7, #0]
10001552:	041b      	lsls	r3, r3, #16
10001554:	0c1b      	lsrs	r3, r3, #16
10001556:	68fa      	ldr	r2, [r7, #12]
10001558:	4313      	orrs	r3, r2
1000155a:	60fb      	str	r3, [r7, #12]
  module->GCTRL = gctrl;
1000155c:	687b      	ldr	r3, [r7, #4]
1000155e:	68fa      	ldr	r2, [r7, #12]
10001560:	601a      	str	r2, [r3, #0]
}
10001562:	46bd      	mov	sp, r7
10001564:	b004      	add	sp, #16
10001566:	bd80      	pop	{r7, pc}

10001568 <XMC_CCU4_SLICE_CompareInit>:

/* API to configure CC4 Slice as Timer */
void XMC_CCU4_SLICE_CompareInit(XMC_CCU4_SLICE_t *const slice,
                                const XMC_CCU4_SLICE_COMPARE_CONFIG_t *const compare_init)
{
10001568:	b580      	push	{r7, lr}
1000156a:	b082      	sub	sp, #8
1000156c:	af00      	add	r7, sp, #0
1000156e:	6078      	str	r0, [r7, #4]
10001570:	6039      	str	r1, [r7, #0]
  XMC_ASSERT("XMC_CCU4_SLICE_CompareInit:Invalid Slice Pointer", XMC_CCU4_IsValidSlice(slice));
  XMC_ASSERT("XMC_CCU4_SLICE_CompareInit:Compare Init Pointer is NULL",
             (XMC_CCU4_SLICE_COMPARE_CONFIG_t *) NULL != compare_init);

  /* Program the timer mode */
  slice->TC = compare_init->tc;
10001572:	683b      	ldr	r3, [r7, #0]
10001574:	681a      	ldr	r2, [r3, #0]
10001576:	687b      	ldr	r3, [r7, #4]
10001578:	615a      	str	r2, [r3, #20]
  /* Enable the timer concatenation */
  slice->CMC = ((uint32_t) compare_init->timer_concatenation << CCU4_CC4_CMC_TCE_Pos);
1000157a:	683b      	ldr	r3, [r7, #0]
1000157c:	795b      	ldrb	r3, [r3, #5]
1000157e:	069b      	lsls	r3, r3, #26
10001580:	0fdb      	lsrs	r3, r3, #31
10001582:	b2db      	uxtb	r3, r3
10001584:	051a      	lsls	r2, r3, #20
10001586:	687b      	ldr	r3, [r7, #4]
10001588:	605a      	str	r2, [r3, #4]
  /* Program initial prescaler divider value */
  slice->PSC = (uint32_t) compare_init->prescaler_initval;
1000158a:	683b      	ldr	r3, [r7, #0]
1000158c:	791b      	ldrb	r3, [r3, #4]
1000158e:	071b      	lsls	r3, r3, #28
10001590:	0f1b      	lsrs	r3, r3, #28
10001592:	b2db      	uxtb	r3, r3
10001594:	1c1a      	adds	r2, r3, #0
10001596:	687b      	ldr	r3, [r7, #4]
10001598:	625a      	str	r2, [r3, #36]	; 0x24
  /* Program the dither compare value */
  slice->DITS = (uint32_t) compare_init->dither_limit;
1000159a:	683b      	ldr	r3, [r7, #0]
1000159c:	795b      	ldrb	r3, [r3, #5]
1000159e:	071b      	lsls	r3, r3, #28
100015a0:	0f1b      	lsrs	r3, r3, #28
100015a2:	b2db      	uxtb	r3, r3
100015a4:	1c1a      	adds	r2, r3, #0
100015a6:	687b      	ldr	r3, [r7, #4]
100015a8:	621a      	str	r2, [r3, #32]
  /* Program timer output passive level */
  slice->PSL = (uint32_t) compare_init->passive_level;
100015aa:	683b      	ldr	r3, [r7, #0]
100015ac:	795b      	ldrb	r3, [r3, #5]
100015ae:	06db      	lsls	r3, r3, #27
100015b0:	0fdb      	lsrs	r3, r3, #31
100015b2:	b2db      	uxtb	r3, r3
100015b4:	1c1a      	adds	r2, r3, #0
100015b6:	687b      	ldr	r3, [r7, #4]
100015b8:	619a      	str	r2, [r3, #24]
  /* Program floating prescaler compare value */
  slice->FPCS = (uint32_t) compare_init->float_limit;
100015ba:	683b      	ldr	r3, [r7, #0]
100015bc:	791b      	ldrb	r3, [r3, #4]
100015be:	061b      	lsls	r3, r3, #24
100015c0:	0f1b      	lsrs	r3, r3, #28
100015c2:	b2db      	uxtb	r3, r3
100015c4:	1c1a      	adds	r2, r3, #0
100015c6:	687b      	ldr	r3, [r7, #4]
100015c8:	62da      	str	r2, [r3, #44]	; 0x2c
}
100015ca:	46bd      	mov	sp, r7
100015cc:	b002      	add	sp, #8
100015ce:	bd80      	pop	{r7, pc}

100015d0 <XMC_CCU4_SLICE_StartConfig>:

/* API to configure the Start trigger function of a slice */
void XMC_CCU4_SLICE_StartConfig(XMC_CCU4_SLICE_t *const slice,
                                const XMC_CCU4_SLICE_EVENT_t event,
                                const XMC_CCU4_SLICE_START_MODE_t start_mode)
{
100015d0:	b580      	push	{r7, lr}
100015d2:	b084      	sub	sp, #16
100015d4:	af00      	add	r7, sp, #0
100015d6:	6078      	str	r0, [r7, #4]
100015d8:	1c08      	adds	r0, r1, #0
100015da:	1c11      	adds	r1, r2, #0
100015dc:	1cfb      	adds	r3, r7, #3
100015de:	1c02      	adds	r2, r0, #0
100015e0:	701a      	strb	r2, [r3, #0]
100015e2:	1cbb      	adds	r3, r7, #2
100015e4:	1c0a      	adds	r2, r1, #0
100015e6:	701a      	strb	r2, [r3, #0]
  XMC_ASSERT("XMC_CCU4_SLICE_StartConfig:Invalid Event ID", XMC_CCU4_SLICE_CHECK_EVENT_ID(event));
  XMC_ASSERT("XMC_CCU4_SLICE_StartConfig:Invalid Start Mode",
             ((start_mode == XMC_CCU4_SLICE_START_MODE_TIMER_START_CLEAR) || \
              (start_mode == XMC_CCU4_SLICE_START_MODE_TIMER_START)));
  /* First, Bind the event with the stop function */
  cmc = slice->CMC;
100015e8:	687b      	ldr	r3, [r7, #4]
100015ea:	685b      	ldr	r3, [r3, #4]
100015ec:	60bb      	str	r3, [r7, #8]
  cmc &= ~((uint32_t) CCU4_CC4_CMC_STRTS_Msk);
100015ee:	68bb      	ldr	r3, [r7, #8]
100015f0:	2203      	movs	r2, #3
100015f2:	4393      	bics	r3, r2
100015f4:	60bb      	str	r3, [r7, #8]
  cmc |= ((uint32_t) event) << CCU4_CC4_CMC_STRTS_Pos;
100015f6:	1cfb      	adds	r3, r7, #3
100015f8:	781b      	ldrb	r3, [r3, #0]
100015fa:	68ba      	ldr	r2, [r7, #8]
100015fc:	4313      	orrs	r3, r2
100015fe:	60bb      	str	r3, [r7, #8]

  slice->CMC = cmc;
10001600:	687b      	ldr	r3, [r7, #4]
10001602:	68ba      	ldr	r2, [r7, #8]
10001604:	605a      	str	r2, [r3, #4]

  tc  = slice->TC;
10001606:	687b      	ldr	r3, [r7, #4]
10001608:	695b      	ldr	r3, [r3, #20]
1000160a:	60fb      	str	r3, [r7, #12]
  /* Next, Configure the start mode */
  if (start_mode == XMC_CCU4_SLICE_START_MODE_TIMER_START_CLEAR)
1000160c:	1cbb      	adds	r3, r7, #2
1000160e:	781b      	ldrb	r3, [r3, #0]
10001610:	2b01      	cmp	r3, #1
10001612:	d105      	bne.n	10001620 <XMC_CCU4_SLICE_StartConfig+0x50>
  {
    tc |= (uint32_t)CCU4_CC4_TC_STRM_Msk;
10001614:	68fb      	ldr	r3, [r7, #12]
10001616:	2280      	movs	r2, #128	; 0x80
10001618:	00d2      	lsls	r2, r2, #3
1000161a:	4313      	orrs	r3, r2
1000161c:	60fb      	str	r3, [r7, #12]
1000161e:	e003      	b.n	10001628 <XMC_CCU4_SLICE_StartConfig+0x58>
  }
  else
  {
    tc &= ~((uint32_t)CCU4_CC4_TC_STRM_Msk);
10001620:	68fb      	ldr	r3, [r7, #12]
10001622:	4a04      	ldr	r2, [pc, #16]	; (10001634 <XMC_CCU4_SLICE_StartConfig+0x64>)
10001624:	4013      	ands	r3, r2
10001626:	60fb      	str	r3, [r7, #12]
  }

  slice->TC = tc;
10001628:	687b      	ldr	r3, [r7, #4]
1000162a:	68fa      	ldr	r2, [r7, #12]
1000162c:	615a      	str	r2, [r3, #20]
}
1000162e:	46bd      	mov	sp, r7
10001630:	b004      	add	sp, #16
10001632:	bd80      	pop	{r7, pc}
10001634:	fffffbff 	.word	0xfffffbff

10001638 <XMC_CCU4_SLICE_StopConfig>:

/* API to configure the Stop trigger function of a slice */
void XMC_CCU4_SLICE_StopConfig(XMC_CCU4_SLICE_t *const slice,
                               const XMC_CCU4_SLICE_EVENT_t event,
                               const XMC_CCU4_SLICE_END_MODE_t end_mode)
{
10001638:	b580      	push	{r7, lr}
1000163a:	b084      	sub	sp, #16
1000163c:	af00      	add	r7, sp, #0
1000163e:	6078      	str	r0, [r7, #4]
10001640:	1c08      	adds	r0, r1, #0
10001642:	1c11      	adds	r1, r2, #0
10001644:	1cfb      	adds	r3, r7, #3
10001646:	1c02      	adds	r2, r0, #0
10001648:	701a      	strb	r2, [r3, #0]
1000164a:	1cbb      	adds	r3, r7, #2
1000164c:	1c0a      	adds	r2, r1, #0
1000164e:	701a      	strb	r2, [r3, #0]
  XMC_ASSERT("XMC_CCU4_SLICE_StopConfig:Invalid Slice Pointer", XMC_CCU4_IsValidSlice(slice));
  XMC_ASSERT("XMC_CCU4_SLICE_StopConfig:Invalid Event ID", XMC_CCU4_SLICE_CHECK_EVENT_ID(event));
  XMC_ASSERT("XMC_CCU4_SLICE_StopConfig:Invalid Start Mode", XMC_CCU4_CHECK_END_MODE(end_mode));

  /* First, Bind the event with the stop function */
  cmc = slice->CMC;
10001650:	687b      	ldr	r3, [r7, #4]
10001652:	685b      	ldr	r3, [r3, #4]
10001654:	60fb      	str	r3, [r7, #12]
  cmc &= ~((uint32_t) CCU4_CC4_CMC_ENDS_Msk);
10001656:	68fb      	ldr	r3, [r7, #12]
10001658:	220c      	movs	r2, #12
1000165a:	4393      	bics	r3, r2
1000165c:	60fb      	str	r3, [r7, #12]
  cmc |= ((uint32_t) event) << CCU4_CC4_CMC_ENDS_Pos;
1000165e:	1cfb      	adds	r3, r7, #3
10001660:	781b      	ldrb	r3, [r3, #0]
10001662:	009b      	lsls	r3, r3, #2
10001664:	68fa      	ldr	r2, [r7, #12]
10001666:	4313      	orrs	r3, r2
10001668:	60fb      	str	r3, [r7, #12]

  slice->CMC = cmc;
1000166a:	687b      	ldr	r3, [r7, #4]
1000166c:	68fa      	ldr	r2, [r7, #12]
1000166e:	605a      	str	r2, [r3, #4]

  /* Next, Configure the stop mode */
  tc = slice->TC;
10001670:	687b      	ldr	r3, [r7, #4]
10001672:	695b      	ldr	r3, [r3, #20]
10001674:	60bb      	str	r3, [r7, #8]
  tc &= ~((uint32_t) CCU4_CC4_TC_ENDM_Msk);
10001676:	68bb      	ldr	r3, [r7, #8]
10001678:	4a07      	ldr	r2, [pc, #28]	; (10001698 <XMC_CCU4_SLICE_StopConfig+0x60>)
1000167a:	4013      	ands	r3, r2
1000167c:	60bb      	str	r3, [r7, #8]
  tc |= ((uint32_t) end_mode) << CCU4_CC4_TC_ENDM_Pos;
1000167e:	1cbb      	adds	r3, r7, #2
10001680:	781b      	ldrb	r3, [r3, #0]
10001682:	021b      	lsls	r3, r3, #8
10001684:	68ba      	ldr	r2, [r7, #8]
10001686:	4313      	orrs	r3, r2
10001688:	60bb      	str	r3, [r7, #8]

  slice->TC = tc;
1000168a:	687b      	ldr	r3, [r7, #4]
1000168c:	68ba      	ldr	r2, [r7, #8]
1000168e:	615a      	str	r2, [r3, #20]
}
10001690:	46bd      	mov	sp, r7
10001692:	b004      	add	sp, #16
10001694:	bd80      	pop	{r7, pc}
10001696:	46c0      	nop			; (mov r8, r8)
10001698:	fffffcff 	.word	0xfffffcff

1000169c <XMC_CCU4_SLICE_LoadConfig>:

/* API to configure the Load trigger function of a slice */
void XMC_CCU4_SLICE_LoadConfig(XMC_CCU4_SLICE_t *const slice, const XMC_CCU4_SLICE_EVENT_t event)
{
1000169c:	b580      	push	{r7, lr}
1000169e:	b084      	sub	sp, #16
100016a0:	af00      	add	r7, sp, #0
100016a2:	6078      	str	r0, [r7, #4]
100016a4:	1c0a      	adds	r2, r1, #0
100016a6:	1cfb      	adds	r3, r7, #3
100016a8:	701a      	strb	r2, [r3, #0]

  XMC_ASSERT("XMC_CCU4_SLICE_LoadConfig:Invalid Slice Pointer", XMC_CCU4_IsValidSlice(slice));
  XMC_ASSERT("XMC_CCU4_SLICE_LoadConfig:Invalid Event ID", XMC_CCU4_SLICE_CHECK_EVENT_ID(event));

  /* Bind the event with the load function */
  cmc = slice->CMC;
100016aa:	687b      	ldr	r3, [r7, #4]
100016ac:	685b      	ldr	r3, [r3, #4]
100016ae:	60fb      	str	r3, [r7, #12]
  cmc &= ~((uint32_t) CCU4_CC4_CMC_LDS_Msk);
100016b0:	68fb      	ldr	r3, [r7, #12]
100016b2:	4a07      	ldr	r2, [pc, #28]	; (100016d0 <XMC_CCU4_SLICE_LoadConfig+0x34>)
100016b4:	4013      	ands	r3, r2
100016b6:	60fb      	str	r3, [r7, #12]
  cmc |= ((uint32_t) event) << CCU4_CC4_CMC_LDS_Pos;
100016b8:	1cfb      	adds	r3, r7, #3
100016ba:	781b      	ldrb	r3, [r3, #0]
100016bc:	031b      	lsls	r3, r3, #12
100016be:	68fa      	ldr	r2, [r7, #12]
100016c0:	4313      	orrs	r3, r2
100016c2:	60fb      	str	r3, [r7, #12]

  slice->CMC = cmc;
100016c4:	687b      	ldr	r3, [r7, #4]
100016c6:	68fa      	ldr	r2, [r7, #12]
100016c8:	605a      	str	r2, [r3, #4]
}
100016ca:	46bd      	mov	sp, r7
100016cc:	b004      	add	sp, #16
100016ce:	bd80      	pop	{r7, pc}
100016d0:	ffffcfff 	.word	0xffffcfff

100016d4 <XMC_CCU4_SLICE_ModulationConfig>:
/* API to configure the slice modulation function */
void XMC_CCU4_SLICE_ModulationConfig(XMC_CCU4_SLICE_t *const slice,
                                     const XMC_CCU4_SLICE_EVENT_t event,
                                     const XMC_CCU4_SLICE_MODULATION_MODE_t mod_mode,
                                     const bool synch_with_pwm)
{
100016d4:	b590      	push	{r4, r7, lr}
100016d6:	b085      	sub	sp, #20
100016d8:	af00      	add	r7, sp, #0
100016da:	6078      	str	r0, [r7, #4]
100016dc:	1c0c      	adds	r4, r1, #0
100016de:	1c10      	adds	r0, r2, #0
100016e0:	1c19      	adds	r1, r3, #0
100016e2:	1cfb      	adds	r3, r7, #3
100016e4:	1c22      	adds	r2, r4, #0
100016e6:	701a      	strb	r2, [r3, #0]
100016e8:	1cbb      	adds	r3, r7, #2
100016ea:	1c02      	adds	r2, r0, #0
100016ec:	701a      	strb	r2, [r3, #0]
100016ee:	1c7b      	adds	r3, r7, #1
100016f0:	1c0a      	adds	r2, r1, #0
100016f2:	701a      	strb	r2, [r3, #0]
  XMC_ASSERT("XMC_CCU4_SLICE_ModulationConfig:Invalid Event ID", XMC_CCU4_SLICE_CHECK_EVENT_ID(event));
  XMC_ASSERT("XMC_CCU4_SLICE_ModulationConfig:Invalid Modulation Mode",
             ((mod_mode == XMC_CCU4_SLICE_MODULATION_MODE_CLEAR_OUT) || \
              (mod_mode == XMC_CCU4_SLICE_MODULATION_MODE_CLEAR_ST_OUT)));

  tc  = slice->TC;
100016f4:	687b      	ldr	r3, [r7, #4]
100016f6:	695b      	ldr	r3, [r3, #20]
100016f8:	60fb      	str	r3, [r7, #12]
  cmc = slice->CMC;
100016fa:	687b      	ldr	r3, [r7, #4]
100016fc:	685b      	ldr	r3, [r3, #4]
100016fe:	60bb      	str	r3, [r7, #8]

  /* First, Bind the event with the modulation function */
  cmc &= ~((uint32_t) CCU4_CC4_CMC_MOS_Msk);
10001700:	68bb      	ldr	r3, [r7, #8]
10001702:	4a17      	ldr	r2, [pc, #92]	; (10001760 <XMC_CCU4_SLICE_ModulationConfig+0x8c>)
10001704:	4013      	ands	r3, r2
10001706:	60bb      	str	r3, [r7, #8]
  cmc |= ((uint32_t) event) << CCU4_CC4_CMC_MOS_Pos;
10001708:	1cfb      	adds	r3, r7, #3
1000170a:	781b      	ldrb	r3, [r3, #0]
1000170c:	049b      	lsls	r3, r3, #18
1000170e:	68ba      	ldr	r2, [r7, #8]
10001710:	4313      	orrs	r3, r2
10001712:	60bb      	str	r3, [r7, #8]
  slice->CMC = cmc;
10001714:	687b      	ldr	r3, [r7, #4]
10001716:	68ba      	ldr	r2, [r7, #8]
10001718:	605a      	str	r2, [r3, #4]

  /* Next, Modulation mode */
  if (mod_mode == XMC_CCU4_SLICE_MODULATION_MODE_CLEAR_OUT)
1000171a:	1cbb      	adds	r3, r7, #2
1000171c:	781b      	ldrb	r3, [r3, #0]
1000171e:	2b01      	cmp	r3, #1
10001720:	d105      	bne.n	1000172e <XMC_CCU4_SLICE_ModulationConfig+0x5a>
  {
    tc |= (uint32_t) CCU4_CC4_TC_EMT_Msk;
10001722:	68fb      	ldr	r3, [r7, #12]
10001724:	2280      	movs	r2, #128	; 0x80
10001726:	0452      	lsls	r2, r2, #17
10001728:	4313      	orrs	r3, r2
1000172a:	60fb      	str	r3, [r7, #12]
1000172c:	e003      	b.n	10001736 <XMC_CCU4_SLICE_ModulationConfig+0x62>
  }
  else
  {
    tc &= ~((uint32_t) CCU4_CC4_TC_EMT_Msk);
1000172e:	68fb      	ldr	r3, [r7, #12]
10001730:	4a0c      	ldr	r2, [pc, #48]	; (10001764 <XMC_CCU4_SLICE_ModulationConfig+0x90>)
10001732:	4013      	ands	r3, r2
10001734:	60fb      	str	r3, [r7, #12]
  }

  /* Synchronization of modulation effect with PWM cycle */
  if (synch_with_pwm == (bool) true)
10001736:	1c7b      	adds	r3, r7, #1
10001738:	781b      	ldrb	r3, [r3, #0]
1000173a:	2b00      	cmp	r3, #0
1000173c:	d005      	beq.n	1000174a <XMC_CCU4_SLICE_ModulationConfig+0x76>
  {
    tc |= (uint32_t) CCU4_CC4_TC_EMS_Msk;
1000173e:	68fb      	ldr	r3, [r7, #12]
10001740:	2280      	movs	r2, #128	; 0x80
10001742:	0412      	lsls	r2, r2, #16
10001744:	4313      	orrs	r3, r2
10001746:	60fb      	str	r3, [r7, #12]
10001748:	e003      	b.n	10001752 <XMC_CCU4_SLICE_ModulationConfig+0x7e>
  }
  else
  {
    tc &= ~((uint32_t) CCU4_CC4_TC_EMS_Msk);
1000174a:	68fb      	ldr	r3, [r7, #12]
1000174c:	4a06      	ldr	r2, [pc, #24]	; (10001768 <XMC_CCU4_SLICE_ModulationConfig+0x94>)
1000174e:	4013      	ands	r3, r2
10001750:	60fb      	str	r3, [r7, #12]
  }

  slice->TC = tc;
10001752:	687b      	ldr	r3, [r7, #4]
10001754:	68fa      	ldr	r2, [r7, #12]
10001756:	615a      	str	r2, [r3, #20]
}
10001758:	46bd      	mov	sp, r7
1000175a:	b005      	add	sp, #20
1000175c:	bd90      	pop	{r4, r7, pc}
1000175e:	46c0      	nop			; (mov r8, r8)
10001760:	fff3ffff 	.word	0xfff3ffff
10001764:	feffffff 	.word	0xfeffffff
10001768:	ff7fffff 	.word	0xff7fffff

1000176c <XMC_CCU4_SLICE_CountConfig>:

/* API to configure the slice count function */
void XMC_CCU4_SLICE_CountConfig(XMC_CCU4_SLICE_t *const slice, const XMC_CCU4_SLICE_EVENT_t event)
{
1000176c:	b580      	push	{r7, lr}
1000176e:	b084      	sub	sp, #16
10001770:	af00      	add	r7, sp, #0
10001772:	6078      	str	r0, [r7, #4]
10001774:	1c0a      	adds	r2, r1, #0
10001776:	1cfb      	adds	r3, r7, #3
10001778:	701a      	strb	r2, [r3, #0]

  XMC_ASSERT("XMC_CCU4_SLICE_CountConfig:Invalid Slice Pointer", XMC_CCU4_IsValidSlice(slice));
  XMC_ASSERT("XMC_CCU4_SLICE_CountConfig:Invalid Event ID", XMC_CCU4_SLICE_CHECK_EVENT_ID(event));

  /* Bind the event with the count function */
  cmc = slice->CMC;
1000177a:	687b      	ldr	r3, [r7, #4]
1000177c:	685b      	ldr	r3, [r3, #4]
1000177e:	60fb      	str	r3, [r7, #12]
  cmc &= ~((uint32_t) CCU4_CC4_CMC_CNTS_Msk);
10001780:	68fb      	ldr	r3, [r7, #12]
10001782:	4a07      	ldr	r2, [pc, #28]	; (100017a0 <XMC_CCU4_SLICE_CountConfig+0x34>)
10001784:	4013      	ands	r3, r2
10001786:	60fb      	str	r3, [r7, #12]
  cmc |= ((uint32_t) event) << CCU4_CC4_CMC_CNTS_Pos;
10001788:	1cfb      	adds	r3, r7, #3
1000178a:	781b      	ldrb	r3, [r3, #0]
1000178c:	039b      	lsls	r3, r3, #14
1000178e:	68fa      	ldr	r2, [r7, #12]
10001790:	4313      	orrs	r3, r2
10001792:	60fb      	str	r3, [r7, #12]

  slice->CMC = cmc;
10001794:	687b      	ldr	r3, [r7, #4]
10001796:	68fa      	ldr	r2, [r7, #12]
10001798:	605a      	str	r2, [r3, #4]
}
1000179a:	46bd      	mov	sp, r7
1000179c:	b004      	add	sp, #16
1000179e:	bd80      	pop	{r7, pc}
100017a0:	ffff3fff 	.word	0xffff3fff

100017a4 <XMC_CCU4_SLICE_GateConfig>:

/* API to configure slice gate function */
void XMC_CCU4_SLICE_GateConfig(XMC_CCU4_SLICE_t *const slice, const XMC_CCU4_SLICE_EVENT_t event)
{
100017a4:	b580      	push	{r7, lr}
100017a6:	b084      	sub	sp, #16
100017a8:	af00      	add	r7, sp, #0
100017aa:	6078      	str	r0, [r7, #4]
100017ac:	1c0a      	adds	r2, r1, #0
100017ae:	1cfb      	adds	r3, r7, #3
100017b0:	701a      	strb	r2, [r3, #0]

  XMC_ASSERT("XMC_CCU4_SLICE_GateConfig:Invalid Slice Pointer", XMC_CCU4_IsValidSlice(slice));
  XMC_ASSERT("XMC_CCU4_SLICE_GateConfig:Invalid Event ID", XMC_CCU4_SLICE_CHECK_EVENT_ID(event));

  /* Bind the event with the gate function */
  cmc = slice->CMC;
100017b2:	687b      	ldr	r3, [r7, #4]
100017b4:	685b      	ldr	r3, [r3, #4]
100017b6:	60fb      	str	r3, [r7, #12]
  cmc &= ~((uint32_t) CCU4_CC4_CMC_GATES_Msk);
100017b8:	68fb      	ldr	r3, [r7, #12]
100017ba:	4a07      	ldr	r2, [pc, #28]	; (100017d8 <XMC_CCU4_SLICE_GateConfig+0x34>)
100017bc:	4013      	ands	r3, r2
100017be:	60fb      	str	r3, [r7, #12]
  cmc |= ((uint32_t) event) << CCU4_CC4_CMC_GATES_Pos;
100017c0:	1cfb      	adds	r3, r7, #3
100017c2:	781b      	ldrb	r3, [r3, #0]
100017c4:	021b      	lsls	r3, r3, #8
100017c6:	68fa      	ldr	r2, [r7, #12]
100017c8:	4313      	orrs	r3, r2
100017ca:	60fb      	str	r3, [r7, #12]

  slice->CMC = cmc;
100017cc:	687b      	ldr	r3, [r7, #4]
100017ce:	68fa      	ldr	r2, [r7, #12]
100017d0:	605a      	str	r2, [r3, #4]
}
100017d2:	46bd      	mov	sp, r7
100017d4:	b004      	add	sp, #16
100017d6:	bd80      	pop	{r7, pc}
100017d8:	fffffcff 	.word	0xfffffcff

100017dc <XMC_CCU4_SLICE_DirectionConfig>:
  slice->CMC = cmc;
}

/* API to configure direction function */
void XMC_CCU4_SLICE_DirectionConfig(XMC_CCU4_SLICE_t *const slice, const XMC_CCU4_SLICE_EVENT_t event)
{
100017dc:	b580      	push	{r7, lr}
100017de:	b084      	sub	sp, #16
100017e0:	af00      	add	r7, sp, #0
100017e2:	6078      	str	r0, [r7, #4]
100017e4:	1c0a      	adds	r2, r1, #0
100017e6:	1cfb      	adds	r3, r7, #3
100017e8:	701a      	strb	r2, [r3, #0]

  XMC_ASSERT("XMC_CCU4_SLICE_DirectionConfig:Invalid Slice Pointer", XMC_CCU4_IsValidSlice(slice));
  XMC_ASSERT("XMC_CCU4_SLICE_DirectionConfig:Invalid Event ID", XMC_CCU4_SLICE_CHECK_EVENT_ID(event));

  /* Bind the event with the direction function */
  cmc = slice->CMC;
100017ea:	687b      	ldr	r3, [r7, #4]
100017ec:	685b      	ldr	r3, [r3, #4]
100017ee:	60fb      	str	r3, [r7, #12]
  cmc &= ~((uint32_t) CCU4_CC4_CMC_UDS_Msk);
100017f0:	68fb      	ldr	r3, [r7, #12]
100017f2:	4a07      	ldr	r2, [pc, #28]	; (10001810 <XMC_CCU4_SLICE_DirectionConfig+0x34>)
100017f4:	4013      	ands	r3, r2
100017f6:	60fb      	str	r3, [r7, #12]
  cmc |= ((uint32_t) event) << CCU4_CC4_CMC_UDS_Pos;
100017f8:	1cfb      	adds	r3, r7, #3
100017fa:	781b      	ldrb	r3, [r3, #0]
100017fc:	029b      	lsls	r3, r3, #10
100017fe:	68fa      	ldr	r2, [r7, #12]
10001800:	4313      	orrs	r3, r2
10001802:	60fb      	str	r3, [r7, #12]

  slice->CMC = cmc;
10001804:	687b      	ldr	r3, [r7, #4]
10001806:	68fa      	ldr	r2, [r7, #12]
10001808:	605a      	str	r2, [r3, #4]
}
1000180a:	46bd      	mov	sp, r7
1000180c:	b004      	add	sp, #16
1000180e:	bd80      	pop	{r7, pc}
10001810:	fffff3ff 	.word	0xfffff3ff

10001814 <XMC_CCU4_SLICE_StatusBitOverrideConfig>:

/* API to configure slice status bit override function */
void XMC_CCU4_SLICE_StatusBitOverrideConfig(XMC_CCU4_SLICE_t *const slice)
{
10001814:	b580      	push	{r7, lr}
10001816:	b084      	sub	sp, #16
10001818:	af00      	add	r7, sp, #0
1000181a:	6078      	str	r0, [r7, #4]
  uint32_t cmc;

  XMC_ASSERT("XMC_CCU4_SLICE_StatusBitOverrideConfig:Invalid Slice Pointer", XMC_CCU4_IsValidSlice(slice));

  /* Bind the event with the override function */
  cmc = slice->CMC;
1000181c:	687b      	ldr	r3, [r7, #4]
1000181e:	685b      	ldr	r3, [r3, #4]
10001820:	60fb      	str	r3, [r7, #12]
  /* Map status bit trigger override to Event 1 &
         status bit value override to Event 2 */
  cmc &= ~((uint32_t) CCU4_CC4_CMC_OFS_Msk);
10001822:	68fb      	ldr	r3, [r7, #12]
10001824:	4a06      	ldr	r2, [pc, #24]	; (10001840 <XMC_CCU4_SLICE_StatusBitOverrideConfig+0x2c>)
10001826:	4013      	ands	r3, r2
10001828:	60fb      	str	r3, [r7, #12]
  cmc |= ((uint32_t) 1) << CCU4_CC4_CMC_OFS_Pos;
1000182a:	68fb      	ldr	r3, [r7, #12]
1000182c:	2280      	movs	r2, #128	; 0x80
1000182e:	0252      	lsls	r2, r2, #9
10001830:	4313      	orrs	r3, r2
10001832:	60fb      	str	r3, [r7, #12]

  slice->CMC = cmc;
10001834:	687b      	ldr	r3, [r7, #4]
10001836:	68fa      	ldr	r2, [r7, #12]
10001838:	605a      	str	r2, [r3, #4]
}
1000183a:	46bd      	mov	sp, r7
1000183c:	b004      	add	sp, #16
1000183e:	bd80      	pop	{r7, pc}
10001840:	fffeffff 	.word	0xfffeffff

10001844 <XMC_CCU4_SLICE_TrapConfig>:

/* API to configure trap function */
void XMC_CCU4_SLICE_TrapConfig(XMC_CCU4_SLICE_t *const slice,
                               const XMC_CCU4_SLICE_TRAP_EXIT_MODE_t exit_mode,
                               const bool synch_with_pwm)
{
10001844:	b580      	push	{r7, lr}
10001846:	b084      	sub	sp, #16
10001848:	af00      	add	r7, sp, #0
1000184a:	6078      	str	r0, [r7, #4]
1000184c:	1c08      	adds	r0, r1, #0
1000184e:	1c11      	adds	r1, r2, #0
10001850:	1cfb      	adds	r3, r7, #3
10001852:	1c02      	adds	r2, r0, #0
10001854:	701a      	strb	r2, [r3, #0]
10001856:	1cbb      	adds	r3, r7, #2
10001858:	1c0a      	adds	r2, r1, #0
1000185a:	701a      	strb	r2, [r3, #0]
  XMC_ASSERT("XMC_CCU4_SLICE_TrapConfig:Invalid Slice Pointer", XMC_CCU4_IsValidSlice(slice));
  XMC_ASSERT("XMC_CCU4_SLICE_TrapConfig:Invalid Exit Mode", ((exit_mode == XMC_CCU4_SLICE_TRAP_EXIT_MODE_AUTOMATIC) || \
             (exit_mode == XMC_CCU4_SLICE_TRAP_EXIT_MODE_SW)));

  /* First, Map trap function to Event 2 */
  cmc = slice->CMC;
1000185c:	687b      	ldr	r3, [r7, #4]
1000185e:	685b      	ldr	r3, [r3, #4]
10001860:	60bb      	str	r3, [r7, #8]
  cmc &= ~((uint32_t) CCU4_CC4_CMC_TS_Msk);
10001862:	68bb      	ldr	r3, [r7, #8]
10001864:	4a17      	ldr	r2, [pc, #92]	; (100018c4 <XMC_CCU4_SLICE_TrapConfig+0x80>)
10001866:	4013      	ands	r3, r2
10001868:	60bb      	str	r3, [r7, #8]
  cmc |= ((uint32_t) 1) << CCU4_CC4_CMC_TS_Pos;
1000186a:	68bb      	ldr	r3, [r7, #8]
1000186c:	2280      	movs	r2, #128	; 0x80
1000186e:	0292      	lsls	r2, r2, #10
10001870:	4313      	orrs	r3, r2
10001872:	60bb      	str	r3, [r7, #8]
  slice->CMC = cmc;
10001874:	687b      	ldr	r3, [r7, #4]
10001876:	68ba      	ldr	r2, [r7, #8]
10001878:	605a      	str	r2, [r3, #4]

  /* Next, Configure synchronization option */
  tc = slice->TC;
1000187a:	687b      	ldr	r3, [r7, #4]
1000187c:	695b      	ldr	r3, [r3, #20]
1000187e:	60fb      	str	r3, [r7, #12]

  if (synch_with_pwm == (bool) true)
10001880:	1cbb      	adds	r3, r7, #2
10001882:	781b      	ldrb	r3, [r3, #0]
10001884:	2b00      	cmp	r3, #0
10001886:	d005      	beq.n	10001894 <XMC_CCU4_SLICE_TrapConfig+0x50>
  {
    tc |= (uint32_t) CCU4_CC4_TC_TRPSE_Msk;
10001888:	68fb      	ldr	r3, [r7, #12]
1000188a:	2280      	movs	r2, #128	; 0x80
1000188c:	0392      	lsls	r2, r2, #14
1000188e:	4313      	orrs	r3, r2
10001890:	60fb      	str	r3, [r7, #12]
10001892:	e003      	b.n	1000189c <XMC_CCU4_SLICE_TrapConfig+0x58>
  }
  else
  {
    tc &= ~((uint32_t) CCU4_CC4_TC_TRPSE_Msk);
10001894:	68fb      	ldr	r3, [r7, #12]
10001896:	4a0c      	ldr	r2, [pc, #48]	; (100018c8 <XMC_CCU4_SLICE_TrapConfig+0x84>)
10001898:	4013      	ands	r3, r2
1000189a:	60fb      	str	r3, [r7, #12]
  }

  /* Configure exit mode */
  if (exit_mode == XMC_CCU4_SLICE_TRAP_EXIT_MODE_SW)
1000189c:	1cfb      	adds	r3, r7, #3
1000189e:	781b      	ldrb	r3, [r3, #0]
100018a0:	2b01      	cmp	r3, #1
100018a2:	d105      	bne.n	100018b0 <XMC_CCU4_SLICE_TrapConfig+0x6c>
  {
    tc |= (uint32_t) CCU4_CC4_TC_TRPSW_Msk;
100018a4:	68fb      	ldr	r3, [r7, #12]
100018a6:	2280      	movs	r2, #128	; 0x80
100018a8:	03d2      	lsls	r2, r2, #15
100018aa:	4313      	orrs	r3, r2
100018ac:	60fb      	str	r3, [r7, #12]
100018ae:	e003      	b.n	100018b8 <XMC_CCU4_SLICE_TrapConfig+0x74>
  }
  else
  {
    tc &= ~((uint32_t) CCU4_CC4_TC_TRPSW_Msk);
100018b0:	68fb      	ldr	r3, [r7, #12]
100018b2:	4a06      	ldr	r2, [pc, #24]	; (100018cc <XMC_CCU4_SLICE_TrapConfig+0x88>)
100018b4:	4013      	ands	r3, r2
100018b6:	60fb      	str	r3, [r7, #12]
  }

  slice->TC = tc;
100018b8:	687b      	ldr	r3, [r7, #4]
100018ba:	68fa      	ldr	r2, [r7, #12]
100018bc:	615a      	str	r2, [r3, #20]
}
100018be:	46bd      	mov	sp, r7
100018c0:	b004      	add	sp, #16
100018c2:	bd80      	pop	{r7, pc}
100018c4:	fffdffff 	.word	0xfffdffff
100018c8:	ffdfffff 	.word	0xffdfffff
100018cc:	ffbfffff 	.word	0xffbfffff

100018d0 <XMC_CCU4_SLICE_ConfigureStatusBitOverrideEvent>:

/* API to configure a slice Status Bit Override event */
void XMC_CCU4_SLICE_ConfigureStatusBitOverrideEvent(XMC_CCU4_SLICE_t *const slice,
    const XMC_CCU4_SLICE_EVENT_CONFIG_t *const ev1_config,
    const XMC_CCU4_SLICE_EVENT_CONFIG_t *const ev2_config)
{
100018d0:	b580      	push	{r7, lr}
100018d2:	b086      	sub	sp, #24
100018d4:	af00      	add	r7, sp, #0
100018d6:	60f8      	str	r0, [r7, #12]
100018d8:	60b9      	str	r1, [r7, #8]
100018da:	607a      	str	r2, [r7, #4]
  ins &= ~(((uint32_t) XMC_CCU4_SLICE_EVENT_INPUT_CONFIG_MASK) << CCU4_CC4_INS1_EV2IS_Pos);
  ins |= ((uint32_t) ev2_config->mapped_input) << CCU4_CC4_INS1_EV2IS_Pos;

  slice->INS1 = ins;
#else
  ins = slice->INS;
100018dc:	68fb      	ldr	r3, [r7, #12]
100018de:	681b      	ldr	r3, [r3, #0]
100018e0:	617b      	str	r3, [r7, #20]

  /* Configure the edge sensitivity for event 1 */
  ins &= ~(((uint32_t) XMC_CCU4_SLICE_EVENT_EDGE_CONFIG_MASK) << CCU4_CC4_INS_EV1EM_Pos);
100018e2:	697b      	ldr	r3, [r7, #20]
100018e4:	4a2a      	ldr	r2, [pc, #168]	; (10001990 <XMC_CCU4_SLICE_ConfigureStatusBitOverrideEvent+0xc0>)
100018e6:	4013      	ands	r3, r2
100018e8:	617b      	str	r3, [r7, #20]
  ins |= ((uint32_t) ev1_config->edge) << CCU4_CC4_INS_EV1EM_Pos;
100018ea:	68bb      	ldr	r3, [r7, #8]
100018ec:	785b      	ldrb	r3, [r3, #1]
100018ee:	049b      	lsls	r3, r3, #18
100018f0:	697a      	ldr	r2, [r7, #20]
100018f2:	4313      	orrs	r3, r2
100018f4:	617b      	str	r3, [r7, #20]

  /* Configure the edge sensitivity for event 2 */
  ins &= ~(((uint32_t) XMC_CCU4_SLICE_EVENT_EDGE_CONFIG_MASK) << CCU4_CC4_INS_EV2EM_Pos);
100018f6:	697b      	ldr	r3, [r7, #20]
100018f8:	4a26      	ldr	r2, [pc, #152]	; (10001994 <XMC_CCU4_SLICE_ConfigureStatusBitOverrideEvent+0xc4>)
100018fa:	4013      	ands	r3, r2
100018fc:	617b      	str	r3, [r7, #20]
  ins |= ((uint32_t) ev2_config->edge) << CCU4_CC4_INS_EV2EM_Pos;
100018fe:	687b      	ldr	r3, [r7, #4]
10001900:	785b      	ldrb	r3, [r3, #1]
10001902:	051b      	lsls	r3, r3, #20
10001904:	697a      	ldr	r2, [r7, #20]
10001906:	4313      	orrs	r3, r2
10001908:	617b      	str	r3, [r7, #20]

  /* Configure the level sensitivity for event 1 */
  ins &= ~(((uint32_t) XMC_CCU4_SLICE_EVENT_LEVEL_CONFIG_MASK) << CCU4_CC4_INS_EV1LM_Pos);
1000190a:	697b      	ldr	r3, [r7, #20]
1000190c:	4a22      	ldr	r2, [pc, #136]	; (10001998 <XMC_CCU4_SLICE_ConfigureStatusBitOverrideEvent+0xc8>)
1000190e:	4013      	ands	r3, r2
10001910:	617b      	str	r3, [r7, #20]
  ins |= ((uint32_t) ev1_config->level) << CCU4_CC4_INS_EV1LM_Pos;
10001912:	68bb      	ldr	r3, [r7, #8]
10001914:	789b      	ldrb	r3, [r3, #2]
10001916:	05db      	lsls	r3, r3, #23
10001918:	697a      	ldr	r2, [r7, #20]
1000191a:	4313      	orrs	r3, r2
1000191c:	617b      	str	r3, [r7, #20]

  /* Configure the level sensitivity for event 2 */
  ins &= ~(((uint32_t) XMC_CCU4_SLICE_EVENT_LEVEL_CONFIG_MASK) << CCU4_CC4_INS_EV2LM_Pos);
1000191e:	697b      	ldr	r3, [r7, #20]
10001920:	4a1e      	ldr	r2, [pc, #120]	; (1000199c <XMC_CCU4_SLICE_ConfigureStatusBitOverrideEvent+0xcc>)
10001922:	4013      	ands	r3, r2
10001924:	617b      	str	r3, [r7, #20]
  ins |= ((uint32_t) ev2_config->level) << CCU4_CC4_INS_EV2LM_Pos;
10001926:	687b      	ldr	r3, [r7, #4]
10001928:	789b      	ldrb	r3, [r3, #2]
1000192a:	061b      	lsls	r3, r3, #24
1000192c:	697a      	ldr	r2, [r7, #20]
1000192e:	4313      	orrs	r3, r2
10001930:	617b      	str	r3, [r7, #20]

  /* Configure the debounce filter for event 1 */
  ins &= ~(((uint32_t) XMC_CCU4_SLICE_EVENT_FILTER_CONFIG_MASK) << CCU4_CC4_INS_LPF1M_Pos);
10001932:	697b      	ldr	r3, [r7, #20]
10001934:	4a1a      	ldr	r2, [pc, #104]	; (100019a0 <XMC_CCU4_SLICE_ConfigureStatusBitOverrideEvent+0xd0>)
10001936:	4013      	ands	r3, r2
10001938:	617b      	str	r3, [r7, #20]
  ins |= ((uint32_t) ev1_config->duration) << CCU4_CC4_INS_LPF1M_Pos;
1000193a:	68bb      	ldr	r3, [r7, #8]
1000193c:	78db      	ldrb	r3, [r3, #3]
1000193e:	06db      	lsls	r3, r3, #27
10001940:	697a      	ldr	r2, [r7, #20]
10001942:	4313      	orrs	r3, r2
10001944:	617b      	str	r3, [r7, #20]

  /* Configure the debounce filter for event 2 */
  ins &= ~(((uint32_t) XMC_CCU4_SLICE_EVENT_FILTER_CONFIG_MASK) << CCU4_CC4_INS_LPF2M_Pos);
10001946:	697b      	ldr	r3, [r7, #20]
10001948:	4a16      	ldr	r2, [pc, #88]	; (100019a4 <XMC_CCU4_SLICE_ConfigureStatusBitOverrideEvent+0xd4>)
1000194a:	4013      	ands	r3, r2
1000194c:	617b      	str	r3, [r7, #20]
  ins |= ((uint32_t) ev2_config->duration) << CCU4_CC4_INS_LPF2M_Pos;
1000194e:	687b      	ldr	r3, [r7, #4]
10001950:	78db      	ldrb	r3, [r3, #3]
10001952:	075b      	lsls	r3, r3, #29
10001954:	697a      	ldr	r2, [r7, #20]
10001956:	4313      	orrs	r3, r2
10001958:	617b      	str	r3, [r7, #20]

  /* Next, the input for Event1 */
  ins &= ~(((uint32_t) XMC_CCU4_SLICE_EVENT_INPUT_CONFIG_MASK) << CCU4_CC4_INS_EV1IS_Pos);
1000195a:	697b      	ldr	r3, [r7, #20]
1000195c:	22f0      	movs	r2, #240	; 0xf0
1000195e:	4393      	bics	r3, r2
10001960:	617b      	str	r3, [r7, #20]
  ins |= ((uint32_t) ev1_config->mapped_input) << CCU4_CC4_INS_EV1IS_Pos;
10001962:	68bb      	ldr	r3, [r7, #8]
10001964:	781b      	ldrb	r3, [r3, #0]
10001966:	011b      	lsls	r3, r3, #4
10001968:	697a      	ldr	r2, [r7, #20]
1000196a:	4313      	orrs	r3, r2
1000196c:	617b      	str	r3, [r7, #20]

  /* Finally, the input for Event2 */
  ins &= ~(((uint32_t) XMC_CCU4_SLICE_EVENT_INPUT_CONFIG_MASK) << CCU4_CC4_INS_EV2IS_Pos);
1000196e:	697b      	ldr	r3, [r7, #20]
10001970:	4a0d      	ldr	r2, [pc, #52]	; (100019a8 <XMC_CCU4_SLICE_ConfigureStatusBitOverrideEvent+0xd8>)
10001972:	4013      	ands	r3, r2
10001974:	617b      	str	r3, [r7, #20]
  ins |= ((uint32_t) ev2_config->mapped_input) << CCU4_CC4_INS_EV2IS_Pos;
10001976:	687b      	ldr	r3, [r7, #4]
10001978:	781b      	ldrb	r3, [r3, #0]
1000197a:	021b      	lsls	r3, r3, #8
1000197c:	697a      	ldr	r2, [r7, #20]
1000197e:	4313      	orrs	r3, r2
10001980:	617b      	str	r3, [r7, #20]

  slice->INS = ins;
10001982:	68fb      	ldr	r3, [r7, #12]
10001984:	697a      	ldr	r2, [r7, #20]
10001986:	601a      	str	r2, [r3, #0]
#endif
}
10001988:	46bd      	mov	sp, r7
1000198a:	b006      	add	sp, #24
1000198c:	bd80      	pop	{r7, pc}
1000198e:	46c0      	nop			; (mov r8, r8)
10001990:	fff3ffff 	.word	0xfff3ffff
10001994:	ffcfffff 	.word	0xffcfffff
10001998:	ff7fffff 	.word	0xff7fffff
1000199c:	feffffff 	.word	0xfeffffff
100019a0:	e7ffffff 	.word	0xe7ffffff
100019a4:	9fffffff 	.word	0x9fffffff
100019a8:	fffff0ff 	.word	0xfffff0ff

100019ac <XMC_CCU4_SLICE_ConfigureEvent>:

/* API to configure a slice trigger event */
void XMC_CCU4_SLICE_ConfigureEvent(XMC_CCU4_SLICE_t *const slice,
                                   const XMC_CCU4_SLICE_EVENT_t event,
                                   const XMC_CCU4_SLICE_EVENT_CONFIG_t *const config)
{
100019ac:	b580      	push	{r7, lr}
100019ae:	b088      	sub	sp, #32
100019b0:	af00      	add	r7, sp, #0
100019b2:	60f8      	str	r0, [r7, #12]
100019b4:	607a      	str	r2, [r7, #4]
100019b6:	230b      	movs	r3, #11
100019b8:	18fb      	adds	r3, r7, r3
100019ba:	1c0a      	adds	r2, r1, #0
100019bc:	701a      	strb	r2, [r3, #0]
             ((config->level == XMC_CCU4_SLICE_EVENT_LEVEL_SENSITIVITY_ACTIVE_HIGH) || \
              (config->level == XMC_CCU4_SLICE_EVENT_LEVEL_SENSITIVITY_ACTIVE_LOW)));
  XMC_ASSERT("XMC_CCU4_SLICE_ConfigureEvent:Invalid Debounce Period",
             XMC_CCU4_SLICE_CHECK_EVENT_FILTER(config->duration));
  /* Calculate offset with reference to event */
  offset = ((uint8_t) event) - 1U;
100019be:	231f      	movs	r3, #31
100019c0:	18fb      	adds	r3, r7, r3
100019c2:	220b      	movs	r2, #11
100019c4:	18ba      	adds	r2, r7, r2
100019c6:	7812      	ldrb	r2, [r2, #0]
100019c8:	3a01      	subs	r2, #1
100019ca:	701a      	strb	r2, [r3, #0]
  ins |= ((uint32_t) config->mapped_input) << pos;

  slice->INS1 = ins;

#else
  ins = slice->INS;
100019cc:	68fb      	ldr	r3, [r7, #12]
100019ce:	681b      	ldr	r3, [r3, #0]
100019d0:	61bb      	str	r3, [r7, #24]

  /* First, configure the edge sensitivity */
  pos = ((uint8_t) CCU4_CC4_INS_EV0EM_Pos) + (uint8_t)(offset << 1U);
100019d2:	231f      	movs	r3, #31
100019d4:	18fb      	adds	r3, r7, r3
100019d6:	781b      	ldrb	r3, [r3, #0]
100019d8:	18db      	adds	r3, r3, r3
100019da:	b2da      	uxtb	r2, r3
100019dc:	2317      	movs	r3, #23
100019de:	18fb      	adds	r3, r7, r3
100019e0:	3210      	adds	r2, #16
100019e2:	701a      	strb	r2, [r3, #0]
  ins &= ~(((uint32_t) XMC_CCU4_SLICE_EVENT_EDGE_CONFIG_MASK) << pos);
100019e4:	2317      	movs	r3, #23
100019e6:	18fb      	adds	r3, r7, r3
100019e8:	781b      	ldrb	r3, [r3, #0]
100019ea:	2203      	movs	r2, #3
100019ec:	409a      	lsls	r2, r3
100019ee:	1c13      	adds	r3, r2, #0
100019f0:	43da      	mvns	r2, r3
100019f2:	69bb      	ldr	r3, [r7, #24]
100019f4:	4013      	ands	r3, r2
100019f6:	61bb      	str	r3, [r7, #24]
  ins |= ((uint32_t) config->edge) << pos;
100019f8:	687b      	ldr	r3, [r7, #4]
100019fa:	785b      	ldrb	r3, [r3, #1]
100019fc:	1c1a      	adds	r2, r3, #0
100019fe:	2317      	movs	r3, #23
10001a00:	18fb      	adds	r3, r7, r3
10001a02:	781b      	ldrb	r3, [r3, #0]
10001a04:	409a      	lsls	r2, r3
10001a06:	1c13      	adds	r3, r2, #0
10001a08:	69ba      	ldr	r2, [r7, #24]
10001a0a:	4313      	orrs	r3, r2
10001a0c:	61bb      	str	r3, [r7, #24]

  /* Next, the level */
  pos = ((uint8_t) CCU4_CC4_INS_EV0LM_Pos) + offset;
10001a0e:	2317      	movs	r3, #23
10001a10:	18fb      	adds	r3, r7, r3
10001a12:	221f      	movs	r2, #31
10001a14:	18ba      	adds	r2, r7, r2
10001a16:	7812      	ldrb	r2, [r2, #0]
10001a18:	3216      	adds	r2, #22
10001a1a:	701a      	strb	r2, [r3, #0]
  ins &= ~(((uint32_t) XMC_CCU4_SLICE_EVENT_LEVEL_CONFIG_MASK) << pos);
10001a1c:	2317      	movs	r3, #23
10001a1e:	18fb      	adds	r3, r7, r3
10001a20:	781b      	ldrb	r3, [r3, #0]
10001a22:	2201      	movs	r2, #1
10001a24:	409a      	lsls	r2, r3
10001a26:	1c13      	adds	r3, r2, #0
10001a28:	43da      	mvns	r2, r3
10001a2a:	69bb      	ldr	r3, [r7, #24]
10001a2c:	4013      	ands	r3, r2
10001a2e:	61bb      	str	r3, [r7, #24]
  ins |= ((uint32_t) config->level) << pos;
10001a30:	687b      	ldr	r3, [r7, #4]
10001a32:	789b      	ldrb	r3, [r3, #2]
10001a34:	1c1a      	adds	r2, r3, #0
10001a36:	2317      	movs	r3, #23
10001a38:	18fb      	adds	r3, r7, r3
10001a3a:	781b      	ldrb	r3, [r3, #0]
10001a3c:	409a      	lsls	r2, r3
10001a3e:	1c13      	adds	r3, r2, #0
10001a40:	69ba      	ldr	r2, [r7, #24]
10001a42:	4313      	orrs	r3, r2
10001a44:	61bb      	str	r3, [r7, #24]

  /* Next, the debounce filter */
  pos = ((uint8_t) CCU4_CC4_INS_LPF0M_Pos) + (uint8_t)(offset << 1U);
10001a46:	231f      	movs	r3, #31
10001a48:	18fb      	adds	r3, r7, r3
10001a4a:	781b      	ldrb	r3, [r3, #0]
10001a4c:	18db      	adds	r3, r3, r3
10001a4e:	b2da      	uxtb	r2, r3
10001a50:	2317      	movs	r3, #23
10001a52:	18fb      	adds	r3, r7, r3
10001a54:	3219      	adds	r2, #25
10001a56:	701a      	strb	r2, [r3, #0]
  ins &= ~(((uint32_t) XMC_CCU4_SLICE_EVENT_FILTER_CONFIG_MASK) << pos);
10001a58:	2317      	movs	r3, #23
10001a5a:	18fb      	adds	r3, r7, r3
10001a5c:	781b      	ldrb	r3, [r3, #0]
10001a5e:	2203      	movs	r2, #3
10001a60:	409a      	lsls	r2, r3
10001a62:	1c13      	adds	r3, r2, #0
10001a64:	43da      	mvns	r2, r3
10001a66:	69bb      	ldr	r3, [r7, #24]
10001a68:	4013      	ands	r3, r2
10001a6a:	61bb      	str	r3, [r7, #24]
  ins |= ((uint32_t) config->duration) << pos;
10001a6c:	687b      	ldr	r3, [r7, #4]
10001a6e:	78db      	ldrb	r3, [r3, #3]
10001a70:	1c1a      	adds	r2, r3, #0
10001a72:	2317      	movs	r3, #23
10001a74:	18fb      	adds	r3, r7, r3
10001a76:	781b      	ldrb	r3, [r3, #0]
10001a78:	409a      	lsls	r2, r3
10001a7a:	1c13      	adds	r3, r2, #0
10001a7c:	69ba      	ldr	r2, [r7, #24]
10001a7e:	4313      	orrs	r3, r2
10001a80:	61bb      	str	r3, [r7, #24]

  /* Finally the input */
  pos = ((uint8_t) CCU4_CC4_INS_EV0IS_Pos) + (uint8_t)(offset << 2U);
10001a82:	2317      	movs	r3, #23
10001a84:	18fb      	adds	r3, r7, r3
10001a86:	221f      	movs	r2, #31
10001a88:	18ba      	adds	r2, r7, r2
10001a8a:	7812      	ldrb	r2, [r2, #0]
10001a8c:	0092      	lsls	r2, r2, #2
10001a8e:	701a      	strb	r2, [r3, #0]
  ins &= ~(((uint32_t) XMC_CCU4_SLICE_EVENT_INPUT_CONFIG_MASK) << pos);
10001a90:	2317      	movs	r3, #23
10001a92:	18fb      	adds	r3, r7, r3
10001a94:	781b      	ldrb	r3, [r3, #0]
10001a96:	220f      	movs	r2, #15
10001a98:	409a      	lsls	r2, r3
10001a9a:	1c13      	adds	r3, r2, #0
10001a9c:	43da      	mvns	r2, r3
10001a9e:	69bb      	ldr	r3, [r7, #24]
10001aa0:	4013      	ands	r3, r2
10001aa2:	61bb      	str	r3, [r7, #24]
  ins |= ((uint32_t) config->mapped_input) << pos;
10001aa4:	687b      	ldr	r3, [r7, #4]
10001aa6:	781b      	ldrb	r3, [r3, #0]
10001aa8:	1c1a      	adds	r2, r3, #0
10001aaa:	2317      	movs	r3, #23
10001aac:	18fb      	adds	r3, r7, r3
10001aae:	781b      	ldrb	r3, [r3, #0]
10001ab0:	409a      	lsls	r2, r3
10001ab2:	1c13      	adds	r3, r2, #0
10001ab4:	69ba      	ldr	r2, [r7, #24]
10001ab6:	4313      	orrs	r3, r2
10001ab8:	61bb      	str	r3, [r7, #24]

  slice->INS = ins;
10001aba:	68fb      	ldr	r3, [r7, #12]
10001abc:	69ba      	ldr	r2, [r7, #24]
10001abe:	601a      	str	r2, [r3, #0]
#endif
}
10001ac0:	46bd      	mov	sp, r7
10001ac2:	b008      	add	sp, #32
10001ac4:	bd80      	pop	{r7, pc}
10001ac6:	46c0      	nop			; (mov r8, r8)

10001ac8 <XMC_CCU4_SLICE_SetInterruptNode>:

/* Binds a capcom event to an NVIC node  */
void XMC_CCU4_SLICE_SetInterruptNode(XMC_CCU4_SLICE_t *const slice,
                                     const XMC_CCU4_SLICE_IRQ_ID_t event,
                                     const XMC_CCU4_SLICE_SR_ID_t sr)
{
10001ac8:	b580      	push	{r7, lr}
10001aca:	b086      	sub	sp, #24
10001acc:	af00      	add	r7, sp, #0
10001ace:	6078      	str	r0, [r7, #4]
10001ad0:	1c08      	adds	r0, r1, #0
10001ad2:	1c11      	adds	r1, r2, #0
10001ad4:	1cfb      	adds	r3, r7, #3
10001ad6:	1c02      	adds	r2, r0, #0
10001ad8:	701a      	strb	r2, [r3, #0]
10001ada:	1cbb      	adds	r3, r7, #2
10001adc:	1c0a      	adds	r2, r1, #0
10001ade:	701a      	strb	r2, [r3, #0]

  XMC_ASSERT("XMC_CCU4_SLICE_SetInterruptNode:Invalid Slice Pointer", XMC_CCU4_IsValidSlice(slice));
  XMC_ASSERT("XMC_CCU4_SLICE_SetInterruptNode:Invalid SR ID ", XMC_CCU4_SLICE_CHECK_SR_ID(sr));
  XMC_ASSERT("XMC_CCU4_SLICE_SetInterruptNode:Invalid event", XMC_CCU4_SLICE_CHECK_INTERRUPT(event));

  switch (event)
10001ae0:	1cfb      	adds	r3, r7, #3
10001ae2:	781b      	ldrb	r3, [r3, #0]
10001ae4:	2b0b      	cmp	r3, #11
10001ae6:	d820      	bhi.n	10001b2a <XMC_CCU4_SLICE_SetInterruptNode+0x62>
10001ae8:	009a      	lsls	r2, r3, #2
10001aea:	4b20      	ldr	r3, [pc, #128]	; (10001b6c <XMC_CCU4_SLICE_SetInterruptNode+0xa4>)
10001aec:	18d3      	adds	r3, r2, r3
10001aee:	681b      	ldr	r3, [r3, #0]
10001af0:	469f      	mov	pc, r3
  {
    case XMC_CCU4_SLICE_IRQ_ID_PERIOD_MATCH:
    case XMC_CCU4_SLICE_IRQ_ID_ONE_MATCH:
      mask = ((uint32_t) CCU4_CC4_SRS_POSR_Msk);
10001af2:	2303      	movs	r3, #3
10001af4:	613b      	str	r3, [r7, #16]
      pos  = CCU4_CC4_SRS_POSR_Pos;
10001af6:	2300      	movs	r3, #0
10001af8:	617b      	str	r3, [r7, #20]
      break;
10001afa:	e01b      	b.n	10001b34 <XMC_CCU4_SLICE_SetInterruptNode+0x6c>

    case XMC_CCU4_SLICE_IRQ_ID_COMPARE_MATCH_UP:
    case XMC_CCU4_SLICE_IRQ_ID_COMPARE_MATCH_DOWN:
      mask = ((uint32_t) CCU4_CC4_SRS_CMSR_Msk);
10001afc:	230c      	movs	r3, #12
10001afe:	613b      	str	r3, [r7, #16]
      pos  = CCU4_CC4_SRS_CMSR_Pos;
10001b00:	2302      	movs	r3, #2
10001b02:	617b      	str	r3, [r7, #20]
      break;
10001b04:	e016      	b.n	10001b34 <XMC_CCU4_SLICE_SetInterruptNode+0x6c>

    case XMC_CCU4_SLICE_IRQ_ID_EVENT0:
      mask = ((uint32_t) CCU4_CC4_SRS_E0SR_Msk);
10001b06:	23c0      	movs	r3, #192	; 0xc0
10001b08:	009b      	lsls	r3, r3, #2
10001b0a:	613b      	str	r3, [r7, #16]
      pos  = CCU4_CC4_SRS_E0SR_Pos;
10001b0c:	2308      	movs	r3, #8
10001b0e:	617b      	str	r3, [r7, #20]
      break;
10001b10:	e010      	b.n	10001b34 <XMC_CCU4_SLICE_SetInterruptNode+0x6c>

    case XMC_CCU4_SLICE_IRQ_ID_EVENT1:
      mask = ((uint32_t) CCU4_CC4_SRS_E1SR_Msk);
10001b12:	23c0      	movs	r3, #192	; 0xc0
10001b14:	011b      	lsls	r3, r3, #4
10001b16:	613b      	str	r3, [r7, #16]
      pos  = CCU4_CC4_SRS_E1SR_Pos;
10001b18:	230a      	movs	r3, #10
10001b1a:	617b      	str	r3, [r7, #20]
      break;
10001b1c:	e00a      	b.n	10001b34 <XMC_CCU4_SLICE_SetInterruptNode+0x6c>

    case XMC_CCU4_SLICE_IRQ_ID_EVENT2:
    case XMC_CCU4_SLICE_IRQ_ID_TRAP:
      mask = ((uint32_t) CCU4_CC4_SRS_E2SR_Msk);
10001b1e:	23c0      	movs	r3, #192	; 0xc0
10001b20:	019b      	lsls	r3, r3, #6
10001b22:	613b      	str	r3, [r7, #16]
      pos  = CCU4_CC4_SRS_E2SR_Pos;
10001b24:	230c      	movs	r3, #12
10001b26:	617b      	str	r3, [r7, #20]
      break;
10001b28:	e004      	b.n	10001b34 <XMC_CCU4_SLICE_SetInterruptNode+0x6c>
	  
	default:
	  mask = 0;
10001b2a:	2300      	movs	r3, #0
10001b2c:	613b      	str	r3, [r7, #16]
	  pos = 0;
10001b2e:	2300      	movs	r3, #0
10001b30:	617b      	str	r3, [r7, #20]
	  break;
10001b32:	46c0      	nop			; (mov r8, r8)
  }

  if (mask != 0)
10001b34:	693b      	ldr	r3, [r7, #16]
10001b36:	2b00      	cmp	r3, #0
10001b38:	d014      	beq.n	10001b64 <XMC_CCU4_SLICE_SetInterruptNode+0x9c>
  {
    srs = slice->SRS;
10001b3a:	687b      	ldr	r3, [r7, #4]
10001b3c:	22a8      	movs	r2, #168	; 0xa8
10001b3e:	589b      	ldr	r3, [r3, r2]
10001b40:	60fb      	str	r3, [r7, #12]
    srs &= ~mask;
10001b42:	693b      	ldr	r3, [r7, #16]
10001b44:	43da      	mvns	r2, r3
10001b46:	68fb      	ldr	r3, [r7, #12]
10001b48:	4013      	ands	r3, r2
10001b4a:	60fb      	str	r3, [r7, #12]
    srs |= (uint32_t)sr << pos;
10001b4c:	1cbb      	adds	r3, r7, #2
10001b4e:	781a      	ldrb	r2, [r3, #0]
10001b50:	697b      	ldr	r3, [r7, #20]
10001b52:	409a      	lsls	r2, r3
10001b54:	1c13      	adds	r3, r2, #0
10001b56:	68fa      	ldr	r2, [r7, #12]
10001b58:	4313      	orrs	r3, r2
10001b5a:	60fb      	str	r3, [r7, #12]
    slice->SRS = srs;
10001b5c:	687b      	ldr	r3, [r7, #4]
10001b5e:	21a8      	movs	r1, #168	; 0xa8
10001b60:	68fa      	ldr	r2, [r7, #12]
10001b62:	505a      	str	r2, [r3, r1]
  }
}
10001b64:	46bd      	mov	sp, r7
10001b66:	b006      	add	sp, #24
10001b68:	bd80      	pop	{r7, pc}
10001b6a:	46c0      	nop			; (mov r8, r8)
10001b6c:	10007554 	.word	0x10007554

10001b70 <XMC_GPIO_SetHardwareControl>:
  port->IOCR[(uint32_t)pin >> 2U] &= ~(uint32_t)((uint32_t)PORT_IOCR_PC_Msk << ((uint32_t)PORT_IOCR_PC_Size * ((uint32_t)pin & 0x3U)));
  port->IOCR[(uint32_t)pin >> 2U] |= (uint32_t)mode << ((uint32_t)PORT_IOCR_PC_Size * ((uint32_t)pin & 0x3U));
}

void XMC_GPIO_SetHardwareControl(XMC_GPIO_PORT_t *const port, const uint8_t pin, const XMC_GPIO_HWCTRL_t hwctrl)
{
10001b70:	b580      	push	{r7, lr}
10001b72:	b082      	sub	sp, #8
10001b74:	af00      	add	r7, sp, #0
10001b76:	6078      	str	r0, [r7, #4]
10001b78:	1c08      	adds	r0, r1, #0
10001b7a:	1c11      	adds	r1, r2, #0
10001b7c:	1cfb      	adds	r3, r7, #3
10001b7e:	1c02      	adds	r2, r0, #0
10001b80:	701a      	strb	r2, [r3, #0]
10001b82:	1cbb      	adds	r3, r7, #2
10001b84:	1c0a      	adds	r2, r1, #0
10001b86:	701a      	strb	r2, [r3, #0]
  XMC_ASSERT("XMC_GPIO_SetHardwareControl: Invalid port", XMC_GPIO_CHECK_PORT(port));
  XMC_ASSERT("XMC_GPIO_SetHardwareControl: Invalid hwctrl", XMC_GPIO_CHECK_HWCTRL(hwctrl));

  port->HWSEL &= ~(uint32_t)((uint32_t)PORT_HWSEL_Msk << ((uint32_t)pin << 1U));
10001b88:	687b      	ldr	r3, [r7, #4]
10001b8a:	6f5b      	ldr	r3, [r3, #116]	; 0x74
10001b8c:	1cfa      	adds	r2, r7, #3
10001b8e:	7812      	ldrb	r2, [r2, #0]
10001b90:	0052      	lsls	r2, r2, #1
10001b92:	1c11      	adds	r1, r2, #0
10001b94:	2203      	movs	r2, #3
10001b96:	408a      	lsls	r2, r1
10001b98:	43d2      	mvns	r2, r2
10001b9a:	401a      	ands	r2, r3
10001b9c:	687b      	ldr	r3, [r7, #4]
10001b9e:	675a      	str	r2, [r3, #116]	; 0x74
  port->HWSEL |= (uint32_t)hwctrl << ((uint32_t)pin << 1U);
10001ba0:	687b      	ldr	r3, [r7, #4]
10001ba2:	6f5a      	ldr	r2, [r3, #116]	; 0x74
10001ba4:	1cbb      	adds	r3, r7, #2
10001ba6:	781b      	ldrb	r3, [r3, #0]
10001ba8:	1cf9      	adds	r1, r7, #3
10001baa:	7809      	ldrb	r1, [r1, #0]
10001bac:	0049      	lsls	r1, r1, #1
10001bae:	408b      	lsls	r3, r1
10001bb0:	431a      	orrs	r2, r3
10001bb2:	687b      	ldr	r3, [r7, #4]
10001bb4:	675a      	str	r2, [r3, #116]	; 0x74
}
10001bb6:	46bd      	mov	sp, r7
10001bb8:	b002      	add	sp, #8
10001bba:	bd80      	pop	{r7, pc}

10001bbc <XMC_VADC_GLOBAL_EnableModule>:
 * API IMPLEMENTATION
 ********************************************************************************************************************/

/*API to enable the VADC Module*/
void XMC_VADC_GLOBAL_EnableModule(void)
{
10001bbc:	b580      	push	{r7, lr}
10001bbe:	af00      	add	r7, sp, #0
#if defined (COMPARATOR)
  COMPARATOR->ORCCTRL = (uint32_t)0xFF;
#endif

#if defined(CLOCK_GATING_SUPPORTED)
  XMC_SCU_CLOCK_UngatePeripheralClock(XMC_SCU_PERIPHERAL_CLOCK_VADC);
10001bc0:	2001      	movs	r0, #1
10001bc2:	f7ff fba3 	bl	1000130c <XMC_SCU_CLOCK_UngatePeripheralClock>

#if defined(PERIPHERAL_RESET_SUPPORTED)
  /* Reset the Hardware */
  XMC_SCU_RESET_DeassertPeripheralReset((XMC_SCU_PERIPHERAL_RESET_t)XMC_SCU_PERIPHERAL_RESET_VADC );
#endif
}
10001bc6:	46bd      	mov	sp, r7
10001bc8:	bd80      	pop	{r7, pc}
10001bca:	46c0      	nop			; (mov r8, r8)

10001bcc <XMC_VADC_GLOBAL_Init>:
}


/* API to initialize global resources */
void XMC_VADC_GLOBAL_Init(XMC_VADC_GLOBAL_t *const global_ptr, const XMC_VADC_GLOBAL_CONFIG_t *config)
{
10001bcc:	b580      	push	{r7, lr}
10001bce:	b084      	sub	sp, #16
10001bd0:	af00      	add	r7, sp, #0
10001bd2:	6078      	str	r0, [r7, #4]
10001bd4:	6039      	str	r1, [r7, #0]
#if (UC_SERIES == XMC14)
  XMC_SCU_CLOCK_SetAdcClockSrc(XMC_SCU_CLOCK_ADCCLKSRC_48MHZ);
#endif

  /* Enable the VADC module*/
  XMC_VADC_GLOBAL_EnableModule();
10001bd6:	f7ff fff1 	bl	10001bbc <XMC_VADC_GLOBAL_EnableModule>

  global_ptr->CLC = (uint32_t)(config->clc);
10001bda:	683b      	ldr	r3, [r7, #0]
10001bdc:	691a      	ldr	r2, [r3, #16]
10001bde:	687b      	ldr	r3, [r7, #4]
10001be0:	601a      	str	r2, [r3, #0]
#if (XMC_VADC_GROUP_AVAILABLE == 1U)
  global_ptr->GLOBCFG  = (uint32_t)(config->clock_config.globcfg | (uint32_t)(VADC_GLOBCFG_DIVWC_Msk));
#endif

  /* ICLASS-0 configuration */
  global_ptr->GLOBICLASS[0] = (uint32_t)(config->class0.globiclass);
10001be2:	683b      	ldr	r3, [r7, #0]
10001be4:	685a      	ldr	r2, [r3, #4]
10001be6:	687b      	ldr	r3, [r7, #4]
10001be8:	21a0      	movs	r1, #160	; 0xa0
10001bea:	505a      	str	r2, [r3, r1]

  /* ICLASS-1 configuration */
  global_ptr->GLOBICLASS[1] = (uint32_t)(config->class1.globiclass);
10001bec:	683b      	ldr	r3, [r7, #0]
10001bee:	689a      	ldr	r2, [r3, #8]
10001bf0:	687b      	ldr	r3, [r7, #4]
10001bf2:	21a4      	movs	r1, #164	; 0xa4
10001bf4:	505a      	str	r2, [r3, r1]


  /*Result generation related configuration */
  global_ptr->GLOBRCR = (uint32_t)(config->globrcr);
10001bf6:	683b      	ldr	r3, [r7, #0]
10001bf8:	68d9      	ldr	r1, [r3, #12]
10001bfa:	687a      	ldr	r2, [r7, #4]
10001bfc:	23a0      	movs	r3, #160	; 0xa0
10001bfe:	009b      	lsls	r3, r3, #2
10001c00:	50d1      	str	r1, [r2, r3]

  /* Configure the SHS register that are needed for XMC11xx devices*/
#if (XMC_VADC_GROUP_AVAILABLE == 0U)

  /* Enabling the Analog part of the converter*/
  reg = SHS0->SHSCFG  | SHS_SHSCFG_SCWC_Msk;
10001c02:	4b09      	ldr	r3, [pc, #36]	; (10001c28 <XMC_VADC_GLOBAL_Init+0x5c>)
10001c04:	6c1b      	ldr	r3, [r3, #64]	; 0x40
10001c06:	2280      	movs	r2, #128	; 0x80
10001c08:	0212      	lsls	r2, r2, #8
10001c0a:	4313      	orrs	r3, r2
10001c0c:	60fb      	str	r3, [r7, #12]
  reg &= ~(SHS_SHSCFG_ANOFF_Msk);
10001c0e:	68fb      	ldr	r3, [r7, #12]
10001c10:	4a06      	ldr	r2, [pc, #24]	; (10001c2c <XMC_VADC_GLOBAL_Init+0x60>)
10001c12:	4013      	ands	r3, r2
10001c14:	60fb      	str	r3, [r7, #12]
  SHS0->SHSCFG = reg;
10001c16:	4b04      	ldr	r3, [pc, #16]	; (10001c28 <XMC_VADC_GLOBAL_Init+0x5c>)
10001c18:	68fa      	ldr	r2, [r7, #12]
10001c1a:	641a      	str	r2, [r3, #64]	; 0x40

  /* From the Errata sheet of XMC1100 V1.7*/
  XMC_VADC_CONV_ENABLE_FOR_XMC11 = 1U;
10001c1c:	4b04      	ldr	r3, [pc, #16]	; (10001c30 <XMC_VADC_GLOBAL_Init+0x64>)
10001c1e:	2201      	movs	r2, #1
10001c20:	601a      	str	r2, [r3, #0]
#endif

}
10001c22:	46bd      	mov	sp, r7
10001c24:	b004      	add	sp, #16
10001c26:	bd80      	pop	{r7, pc}
10001c28:	48034000 	.word	0x48034000
10001c2c:	ffffefff 	.word	0xffffefff
10001c30:	40010500 	.word	0x40010500

10001c34 <XMC_VADC_GLOBAL_InputClassInit>:

/* API to Set the Global IClass registers*/
void XMC_VADC_GLOBAL_InputClassInit(XMC_VADC_GLOBAL_t *const global_ptr, const XMC_VADC_GLOBAL_CLASS_t config,
                                    const XMC_VADC_GROUP_CONV_t conv_type, const uint32_t set_num)
{
10001c34:	b580      	push	{r7, lr}
10001c36:	b084      	sub	sp, #16
10001c38:	af00      	add	r7, sp, #0
10001c3a:	60f8      	str	r0, [r7, #12]
10001c3c:	60b9      	str	r1, [r7, #8]
10001c3e:	603b      	str	r3, [r7, #0]
10001c40:	1dfb      	adds	r3, r7, #7
10001c42:	701a      	strb	r2, [r3, #0]
#if(XMC_VADC_EMUX_AVAILABLE == 1U)
  if (conv_type == XMC_VADC_GROUP_CONV_STD )
  {
#endif
    XMC_UNUSED_ARG(conv_type);
    global_ptr->GLOBICLASS[set_num] = config.globiclass &
10001c44:	68bb      	ldr	r3, [r7, #8]
10001c46:	4a05      	ldr	r2, [pc, #20]	; (10001c5c <XMC_VADC_GLOBAL_InputClassInit+0x28>)
10001c48:	4013      	ands	r3, r2
10001c4a:	1c19      	adds	r1, r3, #0
10001c4c:	68fb      	ldr	r3, [r7, #12]
10001c4e:	683a      	ldr	r2, [r7, #0]
10001c50:	3228      	adds	r2, #40	; 0x28
10001c52:	0092      	lsls	r2, r2, #2
10001c54:	50d1      	str	r1, [r2, r3]
  else
  {
    global_ptr->GLOBICLASS[set_num] = config.globiclass & (uint32_t)(VADC_GLOBICLASS_CME_Msk | VADC_GLOBICLASS_STCE_Msk);
  }
#endif
}
10001c56:	46bd      	mov	sp, r7
10001c58:	b004      	add	sp, #16
10001c5a:	bd80      	pop	{r7, pc}
10001c5c:	0000071f 	.word	0x0000071f

10001c60 <XMC_VADC_GLOBAL_StartupCalibration>:

/* API to enable startup calibration feature */
void XMC_VADC_GLOBAL_StartupCalibration(XMC_VADC_GLOBAL_t *const global_ptr)
{
10001c60:	b580      	push	{r7, lr}
10001c62:	b082      	sub	sp, #8
10001c64:	af00      	add	r7, sp, #0
10001c66:	6078      	str	r0, [r7, #4]
  VADC_G_TypeDef *group_ptr;
#endif

  XMC_ASSERT("XMC_VADC_GLOBAL_StartupCalibration:Wrong Module Pointer", (global_ptr == VADC))

  global_ptr->GLOBCFG |= (uint32_t)VADC_GLOBCFG_SUCAL_Msk;
10001c68:	687b      	ldr	r3, [r7, #4]
10001c6a:	2280      	movs	r2, #128	; 0x80
10001c6c:	589b      	ldr	r3, [r3, r2]
10001c6e:	2280      	movs	r2, #128	; 0x80
10001c70:	0612      	lsls	r2, r2, #24
10001c72:	431a      	orrs	r2, r3
10001c74:	687b      	ldr	r3, [r7, #4]
10001c76:	2180      	movs	r1, #128	; 0x80
10001c78:	505a      	str	r2, [r3, r1]
    }
  }
#else

  /* Loop until calibration is started */
  while ((((SHS0->SHSCFG) & (uint32_t)SHS_SHSCFG_STATE_Msk) >> (uint32_t)SHS_SHSCFG_STATE_Pos) !=
10001c7a:	e000      	b.n	10001c7e <XMC_VADC_GLOBAL_StartupCalibration+0x1e>
         XMC_VADC_SHS_START_UP_CAL_ACTIVE  )
  {
    __NOP();
10001c7c:	46c0      	nop			; (mov r8, r8)
    }
  }
#else

  /* Loop until calibration is started */
  while ((((SHS0->SHSCFG) & (uint32_t)SHS_SHSCFG_STATE_Msk) >> (uint32_t)SHS_SHSCFG_STATE_Pos) !=
10001c7e:	4b07      	ldr	r3, [pc, #28]	; (10001c9c <XMC_VADC_GLOBAL_StartupCalibration+0x3c>)
10001c80:	6c1b      	ldr	r3, [r3, #64]	; 0x40
10001c82:	0f1b      	lsrs	r3, r3, #28
10001c84:	2b03      	cmp	r3, #3
10001c86:	d1f9      	bne.n	10001c7c <XMC_VADC_GLOBAL_StartupCalibration+0x1c>
         XMC_VADC_SHS_START_UP_CAL_ACTIVE  )
  {
    __NOP();
  }
  /* Loop until it finishes calibration */
  while ((((SHS0->SHSCFG) & (uint32_t)SHS_SHSCFG_STATE_Msk) >> (uint32_t)SHS_SHSCFG_STATE_Pos) ==
10001c88:	e000      	b.n	10001c8c <XMC_VADC_GLOBAL_StartupCalibration+0x2c>
         XMC_VADC_SHS_START_UP_CAL_ACTIVE )
  {
    __NOP();
10001c8a:	46c0      	nop			; (mov r8, r8)
         XMC_VADC_SHS_START_UP_CAL_ACTIVE  )
  {
    __NOP();
  }
  /* Loop until it finishes calibration */
  while ((((SHS0->SHSCFG) & (uint32_t)SHS_SHSCFG_STATE_Msk) >> (uint32_t)SHS_SHSCFG_STATE_Pos) ==
10001c8c:	4b03      	ldr	r3, [pc, #12]	; (10001c9c <XMC_VADC_GLOBAL_StartupCalibration+0x3c>)
10001c8e:	6c1b      	ldr	r3, [r3, #64]	; 0x40
10001c90:	0f1b      	lsrs	r3, r3, #28
10001c92:	2b03      	cmp	r3, #3
10001c94:	d0f9      	beq.n	10001c8a <XMC_VADC_GLOBAL_StartupCalibration+0x2a>
         XMC_VADC_SHS_START_UP_CAL_ACTIVE )
  {
    __NOP();
  }
#endif
}
10001c96:	46bd      	mov	sp, r7
10001c98:	b002      	add	sp, #8
10001c9a:	bd80      	pop	{r7, pc}
10001c9c:	48034000 	.word	0x48034000

10001ca0 <XMC_VADC_GLOBAL_SetResultEventInterruptNode>:
}
#endif

/* API to bind result event with a service request line */
void XMC_VADC_GLOBAL_SetResultEventInterruptNode(XMC_VADC_GLOBAL_t *const global_ptr, XMC_VADC_SR_t sr)
{
10001ca0:	b580      	push	{r7, lr}
10001ca2:	b084      	sub	sp, #16
10001ca4:	af00      	add	r7, sp, #0
10001ca6:	6078      	str	r0, [r7, #4]
10001ca8:	1c0a      	adds	r2, r1, #0
10001caa:	1cfb      	adds	r3, r7, #3
10001cac:	701a      	strb	r2, [r3, #0]
  uint32_t node;

  XMC_ASSERT("XMC_VADC_GLOBAL_SetResultEventInterruptNode:Wrong Module Pointer", (global_ptr == VADC))
  XMC_ASSERT("XMC_VADC_GLOBAL_SetResultEventInterruptNode:Wrong SR Number", (sr <= XMC_VADC_SR_SHARED_SR3))

  if (sr >= XMC_VADC_SR_SHARED_SR0)
10001cae:	1cfb      	adds	r3, r7, #3
10001cb0:	781b      	ldrb	r3, [r3, #0]
10001cb2:	2b03      	cmp	r3, #3
10001cb4:	d904      	bls.n	10001cc0 <XMC_VADC_GLOBAL_SetResultEventInterruptNode+0x20>
  {
    node = (uint32_t)sr - (uint32_t)XMC_VADC_SR_SHARED_SR0;
10001cb6:	1cfb      	adds	r3, r7, #3
10001cb8:	781b      	ldrb	r3, [r3, #0]
10001cba:	3b04      	subs	r3, #4
10001cbc:	60fb      	str	r3, [r7, #12]
10001cbe:	e002      	b.n	10001cc6 <XMC_VADC_GLOBAL_SetResultEventInterruptNode+0x26>
  }
  else
  {
    node = (uint32_t)sr;
10001cc0:	1cfb      	adds	r3, r7, #3
10001cc2:	781b      	ldrb	r3, [r3, #0]
10001cc4:	60fb      	str	r3, [r7, #12]
  }

  global_ptr->GLOBEVNP &= ~((uint32_t)VADC_GLOBEVNP_REV0NP_Msk);
10001cc6:	687a      	ldr	r2, [r7, #4]
10001cc8:	23a0      	movs	r3, #160	; 0xa0
10001cca:	005b      	lsls	r3, r3, #1
10001ccc:	58d3      	ldr	r3, [r2, r3]
10001cce:	4a0b      	ldr	r2, [pc, #44]	; (10001cfc <XMC_VADC_GLOBAL_SetResultEventInterruptNode+0x5c>)
10001cd0:	4013      	ands	r3, r2
10001cd2:	1c19      	adds	r1, r3, #0
10001cd4:	687a      	ldr	r2, [r7, #4]
10001cd6:	23a0      	movs	r3, #160	; 0xa0
10001cd8:	005b      	lsls	r3, r3, #1
10001cda:	50d1      	str	r1, [r2, r3]
  global_ptr->GLOBEVNP |= (uint32_t)(node << VADC_GLOBEVNP_REV0NP_Pos);
10001cdc:	687a      	ldr	r2, [r7, #4]
10001cde:	23a0      	movs	r3, #160	; 0xa0
10001ce0:	005b      	lsls	r3, r3, #1
10001ce2:	58d2      	ldr	r2, [r2, r3]
10001ce4:	68fb      	ldr	r3, [r7, #12]
10001ce6:	041b      	lsls	r3, r3, #16
10001ce8:	431a      	orrs	r2, r3
10001cea:	1c11      	adds	r1, r2, #0
10001cec:	687a      	ldr	r2, [r7, #4]
10001cee:	23a0      	movs	r3, #160	; 0xa0
10001cf0:	005b      	lsls	r3, r3, #1
10001cf2:	50d1      	str	r1, [r2, r3]
}
10001cf4:	46bd      	mov	sp, r7
10001cf6:	b004      	add	sp, #16
10001cf8:	bd80      	pop	{r7, pc}
10001cfa:	46c0      	nop			; (mov r8, r8)
10001cfc:	fff0ffff 	.word	0xfff0ffff

10001d00 <XMC_VADC_GLOBAL_BackgroundInit>:
}
#endif

/* API to initialize background scan request source hardware */
void XMC_VADC_GLOBAL_BackgroundInit(XMC_VADC_GLOBAL_t *const global_ptr, const XMC_VADC_BACKGROUND_CONFIG_t *config)
{
10001d00:	b580      	push	{r7, lr}
10001d02:	b082      	sub	sp, #8
10001d04:	af00      	add	r7, sp, #0
10001d06:	6078      	str	r0, [r7, #4]
10001d08:	6039      	str	r1, [r7, #0]

  }
#endif

  /* program BRSCTRL register */
  global_ptr->BRSCTRL = (uint32_t)(config->asctrl | (uint32_t)VADC_BRSCTRL_XTWC_Msk | (uint32_t)VADC_BRSCTRL_GTWC_Msk);
10001d0a:	683b      	ldr	r3, [r7, #0]
10001d0c:	685b      	ldr	r3, [r3, #4]
10001d0e:	4a09      	ldr	r2, [pc, #36]	; (10001d34 <XMC_VADC_GLOBAL_BackgroundInit+0x34>)
10001d10:	431a      	orrs	r2, r3
10001d12:	1c11      	adds	r1, r2, #0
10001d14:	687a      	ldr	r2, [r7, #4]
10001d16:	2380      	movs	r3, #128	; 0x80
10001d18:	009b      	lsls	r3, r3, #2
10001d1a:	50d1      	str	r1, [r2, r3]

  /* program BRSMR register */
  global_ptr->BRSMR = (uint32_t)((config->asmr) | (uint32_t)((uint32_t)XMC_VADC_GATEMODE_IGNORE << VADC_BRSMR_ENGT_Pos));
10001d1c:	683b      	ldr	r3, [r7, #0]
10001d1e:	689b      	ldr	r3, [r3, #8]
10001d20:	2201      	movs	r2, #1
10001d22:	431a      	orrs	r2, r3
10001d24:	1c11      	adds	r1, r2, #0
10001d26:	687a      	ldr	r2, [r7, #4]
10001d28:	2381      	movs	r3, #129	; 0x81
10001d2a:	009b      	lsls	r3, r3, #2
10001d2c:	50d1      	str	r1, [r2, r3]
  {
    XMC_VADC_GROUP_BackgroundEnableArbitrationSlot((XMC_VADC_GROUP_t *)g_xmc_vadc_group_array[i]);
  }
#endif

}
10001d2e:	46bd      	mov	sp, r7
10001d30:	b002      	add	sp, #8
10001d32:	bd80      	pop	{r7, pc}
10001d34:	00808000 	.word	0x00808000

10001d38 <_sbrk>:

// defined in linker script
extern caddr_t Heap_Bank1_Start;
extern caddr_t Heap_Bank1_End;
caddr_t _sbrk(int nbytes)
{
10001d38:	b580      	push	{r7, lr}
10001d3a:	b084      	sub	sp, #16
10001d3c:	af00      	add	r7, sp, #0
10001d3e:	6078      	str	r0, [r7, #4]
  static caddr_t heap_ptr = NULL;
  caddr_t base;

  if (heap_ptr == NULL) {
10001d40:	4b14      	ldr	r3, [pc, #80]	; (10001d94 <_sbrk+0x5c>)
10001d42:	681b      	ldr	r3, [r3, #0]
10001d44:	2b00      	cmp	r3, #0
10001d46:	d102      	bne.n	10001d4e <_sbrk+0x16>
    heap_ptr = (caddr_t)&Heap_Bank1_Start;
10001d48:	4b12      	ldr	r3, [pc, #72]	; (10001d94 <_sbrk+0x5c>)
10001d4a:	4a13      	ldr	r2, [pc, #76]	; (10001d98 <_sbrk+0x60>)
10001d4c:	601a      	str	r2, [r3, #0]
  }

  base = heap_ptr;
10001d4e:	4b11      	ldr	r3, [pc, #68]	; (10001d94 <_sbrk+0x5c>)
10001d50:	681b      	ldr	r3, [r3, #0]
10001d52:	60fb      	str	r3, [r7, #12]

  /* heap word alignment */
  nbytes = (nbytes + 3) & ~0x3U;
10001d54:	687b      	ldr	r3, [r7, #4]
10001d56:	3303      	adds	r3, #3
10001d58:	2203      	movs	r2, #3
10001d5a:	4393      	bics	r3, r2
10001d5c:	607b      	str	r3, [r7, #4]
  if ((caddr_t)&Heap_Bank1_End > (heap_ptr + nbytes))
10001d5e:	4b0d      	ldr	r3, [pc, #52]	; (10001d94 <_sbrk+0x5c>)
10001d60:	681a      	ldr	r2, [r3, #0]
10001d62:	687b      	ldr	r3, [r7, #4]
10001d64:	18d2      	adds	r2, r2, r3
10001d66:	4b0d      	ldr	r3, [pc, #52]	; (10001d9c <_sbrk+0x64>)
10001d68:	429a      	cmp	r2, r3
10001d6a:	d207      	bcs.n	10001d7c <_sbrk+0x44>
  {
    heap_ptr += nbytes;
10001d6c:	4b09      	ldr	r3, [pc, #36]	; (10001d94 <_sbrk+0x5c>)
10001d6e:	681a      	ldr	r2, [r3, #0]
10001d70:	687b      	ldr	r3, [r7, #4]
10001d72:	18d2      	adds	r2, r2, r3
10001d74:	4b07      	ldr	r3, [pc, #28]	; (10001d94 <_sbrk+0x5c>)
10001d76:	601a      	str	r2, [r3, #0]
    return (base);
10001d78:	68fb      	ldr	r3, [r7, #12]
10001d7a:	e006      	b.n	10001d8a <_sbrk+0x52>
  }
  else
  {
    /* Heap overflow */
    errno = ENOMEM;
10001d7c:	f001 ffe4 	bl	10003d48 <__errno>
10001d80:	1c03      	adds	r3, r0, #0
10001d82:	220c      	movs	r2, #12
10001d84:	601a      	str	r2, [r3, #0]
    return ((caddr_t)-1);
10001d86:	2301      	movs	r3, #1
10001d88:	425b      	negs	r3, r3
  }
}
10001d8a:	1c18      	adds	r0, r3, #0
10001d8c:	46bd      	mov	sp, r7
10001d8e:	b004      	add	sp, #16
10001d90:	bd80      	pop	{r7, pc}
10001d92:	46c0      	nop			; (mov r8, r8)
10001d94:	20000648 	.word	0x20000648
10001d98:	200007d8 	.word	0x200007d8
10001d9c:	20003ffc 	.word	0x20003ffc

10001da0 <_init>:

/* Init */
void _init(void)
{}
10001da0:	b580      	push	{r7, lr}
10001da2:	af00      	add	r7, sp, #0
10001da4:	46bd      	mov	sp, r7
10001da6:	bd80      	pop	{r7, pc}

10001da8 <__NVIC_SetPriority>:
  \param [in]      IRQn  Interrupt number.
  \param [in]  priority  Priority to set.
  \note    The priority cannot be set for every processor exception.
 */
__STATIC_INLINE void __NVIC_SetPriority(IRQn_Type IRQn, uint32_t priority)
{
10001da8:	b5b0      	push	{r4, r5, r7, lr}
10001daa:	b082      	sub	sp, #8
10001dac:	af00      	add	r7, sp, #0
10001dae:	1c02      	adds	r2, r0, #0
10001db0:	6039      	str	r1, [r7, #0]
10001db2:	1dfb      	adds	r3, r7, #7
10001db4:	701a      	strb	r2, [r3, #0]
  if ((int32_t)(IRQn) >= 0)
10001db6:	1dfb      	adds	r3, r7, #7
10001db8:	781b      	ldrb	r3, [r3, #0]
10001dba:	2b7f      	cmp	r3, #127	; 0x7f
10001dbc:	d827      	bhi.n	10001e0e <__NVIC_SetPriority+0x66>
  {
    NVIC->IP[_IP_IDX(IRQn)]  = ((uint32_t)(NVIC->IP[_IP_IDX(IRQn)]  & ~(0xFFUL << _BIT_SHIFT(IRQn))) |
10001dbe:	4c2d      	ldr	r4, [pc, #180]	; (10001e74 <__NVIC_SetPriority+0xcc>)
10001dc0:	1dfb      	adds	r3, r7, #7
10001dc2:	781b      	ldrb	r3, [r3, #0]
10001dc4:	b25b      	sxtb	r3, r3
10001dc6:	089b      	lsrs	r3, r3, #2
10001dc8:	492a      	ldr	r1, [pc, #168]	; (10001e74 <__NVIC_SetPriority+0xcc>)
10001dca:	1dfa      	adds	r2, r7, #7
10001dcc:	7812      	ldrb	r2, [r2, #0]
10001dce:	b252      	sxtb	r2, r2
10001dd0:	0892      	lsrs	r2, r2, #2
10001dd2:	32c0      	adds	r2, #192	; 0xc0
10001dd4:	0092      	lsls	r2, r2, #2
10001dd6:	5852      	ldr	r2, [r2, r1]
10001dd8:	1df9      	adds	r1, r7, #7
10001dda:	7809      	ldrb	r1, [r1, #0]
10001ddc:	1c08      	adds	r0, r1, #0
10001dde:	2103      	movs	r1, #3
10001de0:	4001      	ands	r1, r0
10001de2:	00c9      	lsls	r1, r1, #3
10001de4:	1c08      	adds	r0, r1, #0
10001de6:	21ff      	movs	r1, #255	; 0xff
10001de8:	4081      	lsls	r1, r0
10001dea:	43c9      	mvns	r1, r1
10001dec:	4011      	ands	r1, r2
       (((priority << (8U - __NVIC_PRIO_BITS)) & (uint32_t)0xFFUL) << _BIT_SHIFT(IRQn)));
10001dee:	683a      	ldr	r2, [r7, #0]
10001df0:	0192      	lsls	r2, r2, #6
10001df2:	20ff      	movs	r0, #255	; 0xff
10001df4:	4002      	ands	r2, r0
10001df6:	1df8      	adds	r0, r7, #7
10001df8:	7800      	ldrb	r0, [r0, #0]
10001dfa:	1c05      	adds	r5, r0, #0
10001dfc:	2003      	movs	r0, #3
10001dfe:	4028      	ands	r0, r5
10001e00:	00c0      	lsls	r0, r0, #3
10001e02:	4082      	lsls	r2, r0
 */
__STATIC_INLINE void __NVIC_SetPriority(IRQn_Type IRQn, uint32_t priority)
{
  if ((int32_t)(IRQn) >= 0)
  {
    NVIC->IP[_IP_IDX(IRQn)]  = ((uint32_t)(NVIC->IP[_IP_IDX(IRQn)]  & ~(0xFFUL << _BIT_SHIFT(IRQn))) |
10001e04:	430a      	orrs	r2, r1
10001e06:	33c0      	adds	r3, #192	; 0xc0
10001e08:	009b      	lsls	r3, r3, #2
10001e0a:	511a      	str	r2, [r3, r4]
10001e0c:	e02e      	b.n	10001e6c <__NVIC_SetPriority+0xc4>
       (((priority << (8U - __NVIC_PRIO_BITS)) & (uint32_t)0xFFUL) << _BIT_SHIFT(IRQn)));
  }
  else
  {
    SCB->SHP[_SHP_IDX(IRQn)] = ((uint32_t)(SCB->SHP[_SHP_IDX(IRQn)] & ~(0xFFUL << _BIT_SHIFT(IRQn))) |
10001e0e:	4c1a      	ldr	r4, [pc, #104]	; (10001e78 <__NVIC_SetPriority+0xd0>)
10001e10:	1dfb      	adds	r3, r7, #7
10001e12:	781b      	ldrb	r3, [r3, #0]
10001e14:	1c1a      	adds	r2, r3, #0
10001e16:	230f      	movs	r3, #15
10001e18:	4013      	ands	r3, r2
10001e1a:	3b08      	subs	r3, #8
10001e1c:	0899      	lsrs	r1, r3, #2
10001e1e:	4a16      	ldr	r2, [pc, #88]	; (10001e78 <__NVIC_SetPriority+0xd0>)
10001e20:	1dfb      	adds	r3, r7, #7
10001e22:	781b      	ldrb	r3, [r3, #0]
10001e24:	1c18      	adds	r0, r3, #0
10001e26:	230f      	movs	r3, #15
10001e28:	4003      	ands	r3, r0
10001e2a:	3b08      	subs	r3, #8
10001e2c:	089b      	lsrs	r3, r3, #2
10001e2e:	3306      	adds	r3, #6
10001e30:	009b      	lsls	r3, r3, #2
10001e32:	18d3      	adds	r3, r2, r3
10001e34:	685b      	ldr	r3, [r3, #4]
10001e36:	1dfa      	adds	r2, r7, #7
10001e38:	7812      	ldrb	r2, [r2, #0]
10001e3a:	1c10      	adds	r0, r2, #0
10001e3c:	2203      	movs	r2, #3
10001e3e:	4002      	ands	r2, r0
10001e40:	00d2      	lsls	r2, r2, #3
10001e42:	1c10      	adds	r0, r2, #0
10001e44:	22ff      	movs	r2, #255	; 0xff
10001e46:	4082      	lsls	r2, r0
10001e48:	43d2      	mvns	r2, r2
10001e4a:	401a      	ands	r2, r3
       (((priority << (8U - __NVIC_PRIO_BITS)) & (uint32_t)0xFFUL) << _BIT_SHIFT(IRQn)));
10001e4c:	683b      	ldr	r3, [r7, #0]
10001e4e:	019b      	lsls	r3, r3, #6
10001e50:	20ff      	movs	r0, #255	; 0xff
10001e52:	4003      	ands	r3, r0
10001e54:	1df8      	adds	r0, r7, #7
10001e56:	7800      	ldrb	r0, [r0, #0]
10001e58:	1c05      	adds	r5, r0, #0
10001e5a:	2003      	movs	r0, #3
10001e5c:	4028      	ands	r0, r5
10001e5e:	00c0      	lsls	r0, r0, #3
10001e60:	4083      	lsls	r3, r0
    NVIC->IP[_IP_IDX(IRQn)]  = ((uint32_t)(NVIC->IP[_IP_IDX(IRQn)]  & ~(0xFFUL << _BIT_SHIFT(IRQn))) |
       (((priority << (8U - __NVIC_PRIO_BITS)) & (uint32_t)0xFFUL) << _BIT_SHIFT(IRQn)));
  }
  else
  {
    SCB->SHP[_SHP_IDX(IRQn)] = ((uint32_t)(SCB->SHP[_SHP_IDX(IRQn)] & ~(0xFFUL << _BIT_SHIFT(IRQn))) |
10001e62:	431a      	orrs	r2, r3
10001e64:	1d8b      	adds	r3, r1, #6
10001e66:	009b      	lsls	r3, r3, #2
10001e68:	18e3      	adds	r3, r4, r3
10001e6a:	605a      	str	r2, [r3, #4]
       (((priority << (8U - __NVIC_PRIO_BITS)) & (uint32_t)0xFFUL) << _BIT_SHIFT(IRQn)));
  }
}
10001e6c:	46bd      	mov	sp, r7
10001e6e:	b002      	add	sp, #8
10001e70:	bdb0      	pop	{r4, r5, r7, pc}
10001e72:	46c0      	nop			; (mov r8, r8)
10001e74:	e000e100 	.word	0xe000e100
10001e78:	e000ed00 	.word	0xe000ed00

10001e7c <SysTick_Config>:
  \note    When the variable <b>__Vendor_SysTickConfig</b> is set to 1, then the
           function <b>SysTick_Config</b> is not included. In this case, the file <b><i>device</i>.h</b>
           must contain a vendor-specific implementation of this function.
 */
__STATIC_INLINE uint32_t SysTick_Config(uint32_t ticks)
{
10001e7c:	b580      	push	{r7, lr}
10001e7e:	b082      	sub	sp, #8
10001e80:	af00      	add	r7, sp, #0
10001e82:	6078      	str	r0, [r7, #4]
  if ((ticks - 1UL) > SysTick_LOAD_RELOAD_Msk)
10001e84:	687b      	ldr	r3, [r7, #4]
10001e86:	3b01      	subs	r3, #1
10001e88:	4a0c      	ldr	r2, [pc, #48]	; (10001ebc <SysTick_Config+0x40>)
10001e8a:	4293      	cmp	r3, r2
10001e8c:	d901      	bls.n	10001e92 <SysTick_Config+0x16>
  {
    return (1UL);                                                   /* Reload value impossible */
10001e8e:	2301      	movs	r3, #1
10001e90:	e010      	b.n	10001eb4 <SysTick_Config+0x38>
  }

  SysTick->LOAD  = (uint32_t)(ticks - 1UL);                         /* set reload register */
10001e92:	4b0b      	ldr	r3, [pc, #44]	; (10001ec0 <SysTick_Config+0x44>)
10001e94:	687a      	ldr	r2, [r7, #4]
10001e96:	3a01      	subs	r2, #1
10001e98:	605a      	str	r2, [r3, #4]
  NVIC_SetPriority (SysTick_IRQn, (1UL << __NVIC_PRIO_BITS) - 1UL); /* set Priority for Systick Interrupt */
10001e9a:	2301      	movs	r3, #1
10001e9c:	425b      	negs	r3, r3
10001e9e:	1c18      	adds	r0, r3, #0
10001ea0:	2103      	movs	r1, #3
10001ea2:	f7ff ff81 	bl	10001da8 <__NVIC_SetPriority>
  SysTick->VAL   = 0UL;                                             /* Load the SysTick Counter Value */
10001ea6:	4b06      	ldr	r3, [pc, #24]	; (10001ec0 <SysTick_Config+0x44>)
10001ea8:	2200      	movs	r2, #0
10001eaa:	609a      	str	r2, [r3, #8]
  SysTick->CTRL  = SysTick_CTRL_CLKSOURCE_Msk |
10001eac:	4b04      	ldr	r3, [pc, #16]	; (10001ec0 <SysTick_Config+0x44>)
10001eae:	2207      	movs	r2, #7
10001eb0:	601a      	str	r2, [r3, #0]
                   SysTick_CTRL_TICKINT_Msk   |
                   SysTick_CTRL_ENABLE_Msk;                         /* Enable SysTick IRQ and SysTick Timer */
  return (0UL);                                                     /* Function successful */
10001eb2:	2300      	movs	r3, #0
}
10001eb4:	1c18      	adds	r0, r3, #0
10001eb6:	46bd      	mov	sp, r7
10001eb8:	b002      	add	sp, #8
10001eba:	bd80      	pop	{r7, pc}
10001ebc:	00ffffff 	.word	0x00ffffff
10001ec0:	e000e010 	.word	0xe000e010

10001ec4 <SYSTIMER_lInsertTimerList>:
**********************************************************************************************************************/
/*
 * This function is called to insert a timer into the timer list.
 */
static void SYSTIMER_lInsertTimerList(uint32_t tbl_index)
{
10001ec4:	b590      	push	{r4, r7, lr}
10001ec6:	b087      	sub	sp, #28
10001ec8:	af00      	add	r7, sp, #0
10001eca:	6078      	str	r0, [r7, #4]
  SYSTIMER_OBJECT_t *object_ptr;
  int32_t delta_ticks;
  int32_t timer_count;
  bool found_flag = false;
10001ecc:	230f      	movs	r3, #15
10001ece:	18fb      	adds	r3, r7, r3
10001ed0:	2200      	movs	r2, #0
10001ed2:	701a      	strb	r2, [r3, #0]
   /* Get timer time */
  timer_count = (int32_t)g_timer_tbl[tbl_index].count;
10001ed4:	496b      	ldr	r1, [pc, #428]	; (10002084 <SYSTIMER_lInsertTimerList+0x1c0>)
10001ed6:	687a      	ldr	r2, [r7, #4]
10001ed8:	1c13      	adds	r3, r2, #0
10001eda:	00db      	lsls	r3, r3, #3
10001edc:	189b      	adds	r3, r3, r2
10001ede:	009b      	lsls	r3, r3, #2
10001ee0:	18cb      	adds	r3, r1, r3
10001ee2:	3318      	adds	r3, #24
10001ee4:	681b      	ldr	r3, [r3, #0]
10001ee6:	60bb      	str	r3, [r7, #8]
  /* Check if Timer list is NULL */
  if (NULL == g_timer_list)
10001ee8:	4b67      	ldr	r3, [pc, #412]	; (10002088 <SYSTIMER_lInsertTimerList+0x1c4>)
10001eea:	681b      	ldr	r3, [r3, #0]
10001eec:	2b00      	cmp	r3, #0
10001eee:	d109      	bne.n	10001f04 <SYSTIMER_lInsertTimerList+0x40>
  {
    /* Set this as first Timer */
    g_timer_list = &g_timer_tbl[tbl_index];
10001ef0:	687a      	ldr	r2, [r7, #4]
10001ef2:	1c13      	adds	r3, r2, #0
10001ef4:	00db      	lsls	r3, r3, #3
10001ef6:	189b      	adds	r3, r3, r2
10001ef8:	009b      	lsls	r3, r3, #2
10001efa:	4a62      	ldr	r2, [pc, #392]	; (10002084 <SYSTIMER_lInsertTimerList+0x1c0>)
10001efc:	189a      	adds	r2, r3, r2
10001efe:	4b62      	ldr	r3, [pc, #392]	; (10002088 <SYSTIMER_lInsertTimerList+0x1c4>)
10001f00:	601a      	str	r2, [r3, #0]
10001f02:	e0bc      	b.n	1000207e <SYSTIMER_lInsertTimerList+0x1ba>
  }
  /* If not, find the correct place, and insert the specified timer */
  else
  {
    object_ptr = g_timer_list;
10001f04:	4b60      	ldr	r3, [pc, #384]	; (10002088 <SYSTIMER_lInsertTimerList+0x1c4>)
10001f06:	681b      	ldr	r3, [r3, #0]
10001f08:	617b      	str	r3, [r7, #20]
    /* Get timer tick */
    delta_ticks = timer_count;
10001f0a:	68bb      	ldr	r3, [r7, #8]
10001f0c:	613b      	str	r3, [r7, #16]
    /* Find correct place for inserting the timer */
    while ((NULL != object_ptr) && (false == found_flag))
10001f0e:	e0aa      	b.n	10002066 <SYSTIMER_lInsertTimerList+0x1a2>
    {
      /* Get timer Count Difference */
      delta_ticks -= (int32_t)object_ptr->count;
10001f10:	697b      	ldr	r3, [r7, #20]
10001f12:	699b      	ldr	r3, [r3, #24]
10001f14:	1c1a      	adds	r2, r3, #0
10001f16:	693b      	ldr	r3, [r7, #16]
10001f18:	1a9b      	subs	r3, r3, r2
10001f1a:	613b      	str	r3, [r7, #16]
      /* Check for delta ticks < 0 */
      if (delta_ticks <= 0)
10001f1c:	693b      	ldr	r3, [r7, #16]
10001f1e:	2b00      	cmp	r3, #0
10001f20:	dc77      	bgt.n	10002012 <SYSTIMER_lInsertTimerList+0x14e>
      {
        /* Check If head item */
        if (NULL != object_ptr->prev)
10001f22:	697b      	ldr	r3, [r7, #20]
10001f24:	685b      	ldr	r3, [r3, #4]
10001f26:	2b00      	cmp	r3, #0
10001f28:	d025      	beq.n	10001f76 <SYSTIMER_lInsertTimerList+0xb2>
        {
          /* If Insert to list */
          object_ptr->prev->next = &g_timer_tbl[tbl_index];
10001f2a:	697b      	ldr	r3, [r7, #20]
10001f2c:	685a      	ldr	r2, [r3, #4]
10001f2e:	6879      	ldr	r1, [r7, #4]
10001f30:	1c0b      	adds	r3, r1, #0
10001f32:	00db      	lsls	r3, r3, #3
10001f34:	185b      	adds	r3, r3, r1
10001f36:	009b      	lsls	r3, r3, #2
10001f38:	4952      	ldr	r1, [pc, #328]	; (10002084 <SYSTIMER_lInsertTimerList+0x1c0>)
10001f3a:	185b      	adds	r3, r3, r1
10001f3c:	6013      	str	r3, [r2, #0]
          g_timer_tbl[tbl_index].prev = object_ptr->prev;
10001f3e:	697b      	ldr	r3, [r7, #20]
10001f40:	6859      	ldr	r1, [r3, #4]
10001f42:	4850      	ldr	r0, [pc, #320]	; (10002084 <SYSTIMER_lInsertTimerList+0x1c0>)
10001f44:	687a      	ldr	r2, [r7, #4]
10001f46:	1c13      	adds	r3, r2, #0
10001f48:	00db      	lsls	r3, r3, #3
10001f4a:	189b      	adds	r3, r3, r2
10001f4c:	009b      	lsls	r3, r3, #2
10001f4e:	18c3      	adds	r3, r0, r3
10001f50:	6059      	str	r1, [r3, #4]
          g_timer_tbl[tbl_index].next = object_ptr;
10001f52:	494c      	ldr	r1, [pc, #304]	; (10002084 <SYSTIMER_lInsertTimerList+0x1c0>)
10001f54:	687a      	ldr	r2, [r7, #4]
10001f56:	1c13      	adds	r3, r2, #0
10001f58:	00db      	lsls	r3, r3, #3
10001f5a:	189b      	adds	r3, r3, r2
10001f5c:	009b      	lsls	r3, r3, #2
10001f5e:	697a      	ldr	r2, [r7, #20]
10001f60:	505a      	str	r2, [r3, r1]
          object_ptr->prev = &g_timer_tbl[tbl_index];
10001f62:	687a      	ldr	r2, [r7, #4]
10001f64:	1c13      	adds	r3, r2, #0
10001f66:	00db      	lsls	r3, r3, #3
10001f68:	189b      	adds	r3, r3, r2
10001f6a:	009b      	lsls	r3, r3, #2
10001f6c:	4a45      	ldr	r2, [pc, #276]	; (10002084 <SYSTIMER_lInsertTimerList+0x1c0>)
10001f6e:	189a      	adds	r2, r3, r2
10001f70:	697b      	ldr	r3, [r7, #20]
10001f72:	605a      	str	r2, [r3, #4]
10001f74:	e01b      	b.n	10001fae <SYSTIMER_lInsertTimerList+0xea>
        }
        else
        {
          /* Set Timer as first item */
          g_timer_tbl[tbl_index].next = g_timer_list;
10001f76:	4b44      	ldr	r3, [pc, #272]	; (10002088 <SYSTIMER_lInsertTimerList+0x1c4>)
10001f78:	6818      	ldr	r0, [r3, #0]
10001f7a:	4942      	ldr	r1, [pc, #264]	; (10002084 <SYSTIMER_lInsertTimerList+0x1c0>)
10001f7c:	687a      	ldr	r2, [r7, #4]
10001f7e:	1c13      	adds	r3, r2, #0
10001f80:	00db      	lsls	r3, r3, #3
10001f82:	189b      	adds	r3, r3, r2
10001f84:	009b      	lsls	r3, r3, #2
10001f86:	5058      	str	r0, [r3, r1]
          g_timer_list->prev = &g_timer_tbl[tbl_index];
10001f88:	4b3f      	ldr	r3, [pc, #252]	; (10002088 <SYSTIMER_lInsertTimerList+0x1c4>)
10001f8a:	681a      	ldr	r2, [r3, #0]
10001f8c:	6879      	ldr	r1, [r7, #4]
10001f8e:	1c0b      	adds	r3, r1, #0
10001f90:	00db      	lsls	r3, r3, #3
10001f92:	185b      	adds	r3, r3, r1
10001f94:	009b      	lsls	r3, r3, #2
10001f96:	493b      	ldr	r1, [pc, #236]	; (10002084 <SYSTIMER_lInsertTimerList+0x1c0>)
10001f98:	185b      	adds	r3, r3, r1
10001f9a:	6053      	str	r3, [r2, #4]
          g_timer_list = &g_timer_tbl[tbl_index];
10001f9c:	687a      	ldr	r2, [r7, #4]
10001f9e:	1c13      	adds	r3, r2, #0
10001fa0:	00db      	lsls	r3, r3, #3
10001fa2:	189b      	adds	r3, r3, r2
10001fa4:	009b      	lsls	r3, r3, #2
10001fa6:	4a37      	ldr	r2, [pc, #220]	; (10002084 <SYSTIMER_lInsertTimerList+0x1c0>)
10001fa8:	189a      	adds	r2, r3, r2
10001faa:	4b37      	ldr	r3, [pc, #220]	; (10002088 <SYSTIMER_lInsertTimerList+0x1c4>)
10001fac:	601a      	str	r2, [r3, #0]
        }
        g_timer_tbl[tbl_index].count = g_timer_tbl[tbl_index].next->count + (uint32_t)delta_ticks;
10001fae:	4935      	ldr	r1, [pc, #212]	; (10002084 <SYSTIMER_lInsertTimerList+0x1c0>)
10001fb0:	687a      	ldr	r2, [r7, #4]
10001fb2:	1c13      	adds	r3, r2, #0
10001fb4:	00db      	lsls	r3, r3, #3
10001fb6:	189b      	adds	r3, r3, r2
10001fb8:	009b      	lsls	r3, r3, #2
10001fba:	585b      	ldr	r3, [r3, r1]
10001fbc:	699a      	ldr	r2, [r3, #24]
10001fbe:	693b      	ldr	r3, [r7, #16]
10001fc0:	18d1      	adds	r1, r2, r3
10001fc2:	4830      	ldr	r0, [pc, #192]	; (10002084 <SYSTIMER_lInsertTimerList+0x1c0>)
10001fc4:	687a      	ldr	r2, [r7, #4]
10001fc6:	1c13      	adds	r3, r2, #0
10001fc8:	00db      	lsls	r3, r3, #3
10001fca:	189b      	adds	r3, r3, r2
10001fcc:	009b      	lsls	r3, r3, #2
10001fce:	18c3      	adds	r3, r0, r3
10001fd0:	3318      	adds	r3, #24
10001fd2:	6019      	str	r1, [r3, #0]
        g_timer_tbl[tbl_index].next->count  -= g_timer_tbl[tbl_index].count;
10001fd4:	492b      	ldr	r1, [pc, #172]	; (10002084 <SYSTIMER_lInsertTimerList+0x1c0>)
10001fd6:	687a      	ldr	r2, [r7, #4]
10001fd8:	1c13      	adds	r3, r2, #0
10001fda:	00db      	lsls	r3, r3, #3
10001fdc:	189b      	adds	r3, r3, r2
10001fde:	009b      	lsls	r3, r3, #2
10001fe0:	585a      	ldr	r2, [r3, r1]
10001fe2:	4828      	ldr	r0, [pc, #160]	; (10002084 <SYSTIMER_lInsertTimerList+0x1c0>)
10001fe4:	6879      	ldr	r1, [r7, #4]
10001fe6:	1c0b      	adds	r3, r1, #0
10001fe8:	00db      	lsls	r3, r3, #3
10001fea:	185b      	adds	r3, r3, r1
10001fec:	009b      	lsls	r3, r3, #2
10001fee:	581b      	ldr	r3, [r3, r0]
10001ff0:	6998      	ldr	r0, [r3, #24]
10001ff2:	4c24      	ldr	r4, [pc, #144]	; (10002084 <SYSTIMER_lInsertTimerList+0x1c0>)
10001ff4:	6879      	ldr	r1, [r7, #4]
10001ff6:	1c0b      	adds	r3, r1, #0
10001ff8:	00db      	lsls	r3, r3, #3
10001ffa:	185b      	adds	r3, r3, r1
10001ffc:	009b      	lsls	r3, r3, #2
10001ffe:	18e3      	adds	r3, r4, r3
10002000:	3318      	adds	r3, #24
10002002:	681b      	ldr	r3, [r3, #0]
10002004:	1ac3      	subs	r3, r0, r3
10002006:	6193      	str	r3, [r2, #24]
        found_flag = true;
10002008:	230f      	movs	r3, #15
1000200a:	18fb      	adds	r3, r7, r3
1000200c:	2201      	movs	r2, #1
1000200e:	701a      	strb	r2, [r3, #0]
10002010:	e026      	b.n	10002060 <SYSTIMER_lInsertTimerList+0x19c>
      }
      /* Check for last item in list */
      else
      {
        if ((delta_ticks > 0) && (NULL == object_ptr->next))
10002012:	693b      	ldr	r3, [r7, #16]
10002014:	2b00      	cmp	r3, #0
10002016:	dd23      	ble.n	10002060 <SYSTIMER_lInsertTimerList+0x19c>
10002018:	697b      	ldr	r3, [r7, #20]
1000201a:	681b      	ldr	r3, [r3, #0]
1000201c:	2b00      	cmp	r3, #0
1000201e:	d11f      	bne.n	10002060 <SYSTIMER_lInsertTimerList+0x19c>
        {
          /* Yes, insert into */
          g_timer_tbl[tbl_index].prev = object_ptr;
10002020:	4918      	ldr	r1, [pc, #96]	; (10002084 <SYSTIMER_lInsertTimerList+0x1c0>)
10002022:	687a      	ldr	r2, [r7, #4]
10002024:	1c13      	adds	r3, r2, #0
10002026:	00db      	lsls	r3, r3, #3
10002028:	189b      	adds	r3, r3, r2
1000202a:	009b      	lsls	r3, r3, #2
1000202c:	18cb      	adds	r3, r1, r3
1000202e:	697a      	ldr	r2, [r7, #20]
10002030:	605a      	str	r2, [r3, #4]
          object_ptr->next = &g_timer_tbl[tbl_index];
10002032:	687a      	ldr	r2, [r7, #4]
10002034:	1c13      	adds	r3, r2, #0
10002036:	00db      	lsls	r3, r3, #3
10002038:	189b      	adds	r3, r3, r2
1000203a:	009b      	lsls	r3, r3, #2
1000203c:	4a11      	ldr	r2, [pc, #68]	; (10002084 <SYSTIMER_lInsertTimerList+0x1c0>)
1000203e:	189a      	adds	r2, r3, r2
10002040:	697b      	ldr	r3, [r7, #20]
10002042:	601a      	str	r2, [r3, #0]
          g_timer_tbl[tbl_index].count = (uint32_t)delta_ticks;
10002044:	6939      	ldr	r1, [r7, #16]
10002046:	480f      	ldr	r0, [pc, #60]	; (10002084 <SYSTIMER_lInsertTimerList+0x1c0>)
10002048:	687a      	ldr	r2, [r7, #4]
1000204a:	1c13      	adds	r3, r2, #0
1000204c:	00db      	lsls	r3, r3, #3
1000204e:	189b      	adds	r3, r3, r2
10002050:	009b      	lsls	r3, r3, #2
10002052:	18c3      	adds	r3, r0, r3
10002054:	3318      	adds	r3, #24
10002056:	6019      	str	r1, [r3, #0]
          found_flag = true;
10002058:	230f      	movs	r3, #15
1000205a:	18fb      	adds	r3, r7, r3
1000205c:	2201      	movs	r2, #1
1000205e:	701a      	strb	r2, [r3, #0]
        }
      }
      /* Get the next item in timer list */
      object_ptr = object_ptr->next;
10002060:	697b      	ldr	r3, [r7, #20]
10002062:	681b      	ldr	r3, [r3, #0]
10002064:	617b      	str	r3, [r7, #20]
  {
    object_ptr = g_timer_list;
    /* Get timer tick */
    delta_ticks = timer_count;
    /* Find correct place for inserting the timer */
    while ((NULL != object_ptr) && (false == found_flag))
10002066:	697b      	ldr	r3, [r7, #20]
10002068:	2b00      	cmp	r3, #0
1000206a:	d008      	beq.n	1000207e <SYSTIMER_lInsertTimerList+0x1ba>
1000206c:	230f      	movs	r3, #15
1000206e:	18fb      	adds	r3, r7, r3
10002070:	781b      	ldrb	r3, [r3, #0]
10002072:	2201      	movs	r2, #1
10002074:	4053      	eors	r3, r2
10002076:	b2db      	uxtb	r3, r3
10002078:	2b00      	cmp	r3, #0
1000207a:	d000      	beq.n	1000207e <SYSTIMER_lInsertTimerList+0x1ba>
1000207c:	e748      	b.n	10001f10 <SYSTIMER_lInsertTimerList+0x4c>
      }
      /* Get the next item in timer list */
      object_ptr = object_ptr->next;
    }
  }
}
1000207e:	46bd      	mov	sp, r7
10002080:	b007      	add	sp, #28
10002082:	bd90      	pop	{r4, r7, pc}
10002084:	200006b0 	.word	0x200006b0
10002088:	2000064c 	.word	0x2000064c

1000208c <SYSTIMER_lRemoveTimerList>:

/*
 * This function is called to remove a timer from the timer list. 
 */
static void SYSTIMER_lRemoveTimerList(uint32_t tbl_index)
{
1000208c:	b580      	push	{r7, lr}
1000208e:	b084      	sub	sp, #16
10002090:	af00      	add	r7, sp, #0
10002092:	6078      	str	r0, [r7, #4]
  SYSTIMER_OBJECT_t *object_ptr;
  object_ptr = &g_timer_tbl[tbl_index];
10002094:	687a      	ldr	r2, [r7, #4]
10002096:	1c13      	adds	r3, r2, #0
10002098:	00db      	lsls	r3, r3, #3
1000209a:	189b      	adds	r3, r3, r2
1000209c:	009b      	lsls	r3, r3, #2
1000209e:	4a28      	ldr	r2, [pc, #160]	; (10002140 <SYSTIMER_lRemoveTimerList+0xb4>)
100020a0:	189b      	adds	r3, r3, r2
100020a2:	60fb      	str	r3, [r7, #12]
  /* Check whether only one timer available */
  if ((NULL == object_ptr->prev) && (NULL == object_ptr->next ))
100020a4:	68fb      	ldr	r3, [r7, #12]
100020a6:	685b      	ldr	r3, [r3, #4]
100020a8:	2b00      	cmp	r3, #0
100020aa:	d107      	bne.n	100020bc <SYSTIMER_lRemoveTimerList+0x30>
100020ac:	68fb      	ldr	r3, [r7, #12]
100020ae:	681b      	ldr	r3, [r3, #0]
100020b0:	2b00      	cmp	r3, #0
100020b2:	d103      	bne.n	100020bc <SYSTIMER_lRemoveTimerList+0x30>
  {
    /* set timer list as NULL */ 
    g_timer_list = NULL;                  
100020b4:	4b23      	ldr	r3, [pc, #140]	; (10002144 <SYSTIMER_lRemoveTimerList+0xb8>)
100020b6:	2200      	movs	r2, #0
100020b8:	601a      	str	r2, [r3, #0]
100020ba:	e03d      	b.n	10002138 <SYSTIMER_lRemoveTimerList+0xac>
  }
  /* Check if the first item in timer list */
  else if (NULL == object_ptr->prev)
100020bc:	68fb      	ldr	r3, [r7, #12]
100020be:	685b      	ldr	r3, [r3, #4]
100020c0:	2b00      	cmp	r3, #0
100020c2:	d114      	bne.n	100020ee <SYSTIMER_lRemoveTimerList+0x62>
  {
    /* Remove timer from list, and reset timer list */
    g_timer_list  = object_ptr->next;
100020c4:	68fb      	ldr	r3, [r7, #12]
100020c6:	681a      	ldr	r2, [r3, #0]
100020c8:	4b1e      	ldr	r3, [pc, #120]	; (10002144 <SYSTIMER_lRemoveTimerList+0xb8>)
100020ca:	601a      	str	r2, [r3, #0]
    g_timer_list->prev = NULL;
100020cc:	4b1d      	ldr	r3, [pc, #116]	; (10002144 <SYSTIMER_lRemoveTimerList+0xb8>)
100020ce:	681b      	ldr	r3, [r3, #0]
100020d0:	2200      	movs	r2, #0
100020d2:	605a      	str	r2, [r3, #4]
    g_timer_list->count += object_ptr->count;
100020d4:	4b1b      	ldr	r3, [pc, #108]	; (10002144 <SYSTIMER_lRemoveTimerList+0xb8>)
100020d6:	681b      	ldr	r3, [r3, #0]
100020d8:	4a1a      	ldr	r2, [pc, #104]	; (10002144 <SYSTIMER_lRemoveTimerList+0xb8>)
100020da:	6812      	ldr	r2, [r2, #0]
100020dc:	6991      	ldr	r1, [r2, #24]
100020de:	68fa      	ldr	r2, [r7, #12]
100020e0:	6992      	ldr	r2, [r2, #24]
100020e2:	188a      	adds	r2, r1, r2
100020e4:	619a      	str	r2, [r3, #24]
    object_ptr->next    = NULL;
100020e6:	68fb      	ldr	r3, [r7, #12]
100020e8:	2200      	movs	r2, #0
100020ea:	601a      	str	r2, [r3, #0]
100020ec:	e024      	b.n	10002138 <SYSTIMER_lRemoveTimerList+0xac>
  }
  /* Check if the last item in timer list */
  else if (NULL == object_ptr->next)
100020ee:	68fb      	ldr	r3, [r7, #12]
100020f0:	681b      	ldr	r3, [r3, #0]
100020f2:	2b00      	cmp	r3, #0
100020f4:	d107      	bne.n	10002106 <SYSTIMER_lRemoveTimerList+0x7a>
  {
    /* Remove timer from list */
    object_ptr->prev->next = NULL;
100020f6:	68fb      	ldr	r3, [r7, #12]
100020f8:	685b      	ldr	r3, [r3, #4]
100020fa:	2200      	movs	r2, #0
100020fc:	601a      	str	r2, [r3, #0]
    object_ptr->prev = NULL;
100020fe:	68fb      	ldr	r3, [r7, #12]
10002100:	2200      	movs	r2, #0
10002102:	605a      	str	r2, [r3, #4]
10002104:	e018      	b.n	10002138 <SYSTIMER_lRemoveTimerList+0xac>
  }
  else                       
  {
    /* Remove timer from list */
    object_ptr->prev->next  =  object_ptr->next;
10002106:	68fb      	ldr	r3, [r7, #12]
10002108:	685b      	ldr	r3, [r3, #4]
1000210a:	68fa      	ldr	r2, [r7, #12]
1000210c:	6812      	ldr	r2, [r2, #0]
1000210e:	601a      	str	r2, [r3, #0]
    object_ptr->next->prev  =  object_ptr->prev;
10002110:	68fb      	ldr	r3, [r7, #12]
10002112:	681b      	ldr	r3, [r3, #0]
10002114:	68fa      	ldr	r2, [r7, #12]
10002116:	6852      	ldr	r2, [r2, #4]
10002118:	605a      	str	r2, [r3, #4]
    object_ptr->next->count += object_ptr->count;
1000211a:	68fb      	ldr	r3, [r7, #12]
1000211c:	681b      	ldr	r3, [r3, #0]
1000211e:	68fa      	ldr	r2, [r7, #12]
10002120:	6812      	ldr	r2, [r2, #0]
10002122:	6991      	ldr	r1, [r2, #24]
10002124:	68fa      	ldr	r2, [r7, #12]
10002126:	6992      	ldr	r2, [r2, #24]
10002128:	188a      	adds	r2, r1, r2
1000212a:	619a      	str	r2, [r3, #24]
    object_ptr->next = NULL;
1000212c:	68fb      	ldr	r3, [r7, #12]
1000212e:	2200      	movs	r2, #0
10002130:	601a      	str	r2, [r3, #0]
    object_ptr->prev = NULL;
10002132:	68fb      	ldr	r3, [r7, #12]
10002134:	2200      	movs	r2, #0
10002136:	605a      	str	r2, [r3, #4]
  }
}
10002138:	46bd      	mov	sp, r7
1000213a:	b004      	add	sp, #16
1000213c:	bd80      	pop	{r7, pc}
1000213e:	46c0      	nop			; (mov r8, r8)
10002140:	200006b0 	.word	0x200006b0
10002144:	2000064c 	.word	0x2000064c

10002148 <SYSTIMER_lTimerHandler>:

/*
 * Handler function called from SysTick event handler.
 */
static void SYSTIMER_lTimerHandler(void)
{
10002148:	b580      	push	{r7, lr}
1000214a:	b082      	sub	sp, #8
1000214c:	af00      	add	r7, sp, #0
  SYSTIMER_OBJECT_t *object_ptr;
  /* Get first item of timer list */
  object_ptr = g_timer_list;
1000214e:	4b2f      	ldr	r3, [pc, #188]	; (1000220c <SYSTIMER_lTimerHandler+0xc4>)
10002150:	681b      	ldr	r3, [r3, #0]
10002152:	607b      	str	r3, [r7, #4]
  while ((NULL != object_ptr) && (0U == object_ptr->count))
10002154:	e050      	b.n	100021f8 <SYSTIMER_lTimerHandler+0xb0>
  {
    if (true == object_ptr->delete_swtmr)
10002156:	687b      	ldr	r3, [r7, #4]
10002158:	2220      	movs	r2, #32
1000215a:	5c9b      	ldrb	r3, [r3, r2]
1000215c:	2b00      	cmp	r3, #0
1000215e:	d013      	beq.n	10002188 <SYSTIMER_lTimerHandler+0x40>
    {
      /* Yes, remove this timer from timer list */
      SYSTIMER_lRemoveTimerList((uint32_t)object_ptr->id);
10002160:	687b      	ldr	r3, [r7, #4]
10002162:	695b      	ldr	r3, [r3, #20]
10002164:	1c18      	adds	r0, r3, #0
10002166:	f7ff ff91 	bl	1000208c <SYSTIMER_lRemoveTimerList>
      /* Set timer status as SYSTIMER_STATE_NOT_INITIALIZED */
      object_ptr->state = SYSTIMER_STATE_NOT_INITIALIZED;
1000216a:	687b      	ldr	r3, [r7, #4]
1000216c:	2200      	movs	r2, #0
1000216e:	735a      	strb	r2, [r3, #13]
      /* Release resource which are hold by this timer */
      g_timer_tracker &= ~(1U << object_ptr->id);
10002170:	687b      	ldr	r3, [r7, #4]
10002172:	695b      	ldr	r3, [r3, #20]
10002174:	1c1a      	adds	r2, r3, #0
10002176:	2301      	movs	r3, #1
10002178:	4093      	lsls	r3, r2
1000217a:	43da      	mvns	r2, r3
1000217c:	4b24      	ldr	r3, [pc, #144]	; (10002210 <SYSTIMER_lTimerHandler+0xc8>)
1000217e:	681b      	ldr	r3, [r3, #0]
10002180:	401a      	ands	r2, r3
10002182:	4b23      	ldr	r3, [pc, #140]	; (10002210 <SYSTIMER_lTimerHandler+0xc8>)
10002184:	601a      	str	r2, [r3, #0]
10002186:	e034      	b.n	100021f2 <SYSTIMER_lTimerHandler+0xaa>
    }
    /* Check whether timer is a one shot timer */
    else if (SYSTIMER_MODE_ONE_SHOT == object_ptr->mode)
10002188:	687b      	ldr	r3, [r7, #4]
1000218a:	7b1b      	ldrb	r3, [r3, #12]
1000218c:	2b00      	cmp	r3, #0
1000218e:	d112      	bne.n	100021b6 <SYSTIMER_lTimerHandler+0x6e>
    {
      if (SYSTIMER_STATE_RUNNING == object_ptr->state)
10002190:	687b      	ldr	r3, [r7, #4]
10002192:	7b5b      	ldrb	r3, [r3, #13]
10002194:	2b01      	cmp	r3, #1
10002196:	d12c      	bne.n	100021f2 <SYSTIMER_lTimerHandler+0xaa>
      {
        /* Yes, remove this timer from timer list */
        SYSTIMER_lRemoveTimerList((uint32_t)object_ptr->id);
10002198:	687b      	ldr	r3, [r7, #4]
1000219a:	695b      	ldr	r3, [r3, #20]
1000219c:	1c18      	adds	r0, r3, #0
1000219e:	f7ff ff75 	bl	1000208c <SYSTIMER_lRemoveTimerList>
        /* Set timer status as SYSTIMER_STATE_STOPPED */
        object_ptr->state = SYSTIMER_STATE_STOPPED;
100021a2:	687b      	ldr	r3, [r7, #4]
100021a4:	2202      	movs	r2, #2
100021a6:	735a      	strb	r2, [r3, #13]
        /* Call timer callback function */
        (object_ptr->callback)(object_ptr->args);
100021a8:	687b      	ldr	r3, [r7, #4]
100021aa:	689a      	ldr	r2, [r3, #8]
100021ac:	687b      	ldr	r3, [r7, #4]
100021ae:	691b      	ldr	r3, [r3, #16]
100021b0:	1c18      	adds	r0, r3, #0
100021b2:	4790      	blx	r2
100021b4:	e01d      	b.n	100021f2 <SYSTIMER_lTimerHandler+0xaa>
      }
    }
    /* Check whether timer is periodic timer */
    else if (SYSTIMER_MODE_PERIODIC == object_ptr->mode)
100021b6:	687b      	ldr	r3, [r7, #4]
100021b8:	7b1b      	ldrb	r3, [r3, #12]
100021ba:	2b01      	cmp	r3, #1
100021bc:	d118      	bne.n	100021f0 <SYSTIMER_lTimerHandler+0xa8>
    {
      if (SYSTIMER_STATE_RUNNING == object_ptr->state)
100021be:	687b      	ldr	r3, [r7, #4]
100021c0:	7b5b      	ldrb	r3, [r3, #13]
100021c2:	2b01      	cmp	r3, #1
100021c4:	d115      	bne.n	100021f2 <SYSTIMER_lTimerHandler+0xaa>
      {
        /* Yes, remove this timer from timer list */
        SYSTIMER_lRemoveTimerList((uint32_t)object_ptr->id);
100021c6:	687b      	ldr	r3, [r7, #4]
100021c8:	695b      	ldr	r3, [r3, #20]
100021ca:	1c18      	adds	r0, r3, #0
100021cc:	f7ff ff5e 	bl	1000208c <SYSTIMER_lRemoveTimerList>
        /* Reset timer tick */
        object_ptr->count = object_ptr->reload;
100021d0:	687b      	ldr	r3, [r7, #4]
100021d2:	69da      	ldr	r2, [r3, #28]
100021d4:	687b      	ldr	r3, [r7, #4]
100021d6:	619a      	str	r2, [r3, #24]
        /* Insert timer into timer list */
        SYSTIMER_lInsertTimerList((uint32_t)object_ptr->id);
100021d8:	687b      	ldr	r3, [r7, #4]
100021da:	695b      	ldr	r3, [r3, #20]
100021dc:	1c18      	adds	r0, r3, #0
100021de:	f7ff fe71 	bl	10001ec4 <SYSTIMER_lInsertTimerList>
        /* Call timer callback function */
        (object_ptr->callback)(object_ptr->args);
100021e2:	687b      	ldr	r3, [r7, #4]
100021e4:	689a      	ldr	r2, [r3, #8]
100021e6:	687b      	ldr	r3, [r7, #4]
100021e8:	691b      	ldr	r3, [r3, #16]
100021ea:	1c18      	adds	r0, r3, #0
100021ec:	4790      	blx	r2
100021ee:	e000      	b.n	100021f2 <SYSTIMER_lTimerHandler+0xaa>
      }
    }
    else
    {
      break;
100021f0:	e009      	b.n	10002206 <SYSTIMER_lTimerHandler+0xbe>
    }
    /* Get first item of timer list */
    object_ptr = g_timer_list;
100021f2:	4b06      	ldr	r3, [pc, #24]	; (1000220c <SYSTIMER_lTimerHandler+0xc4>)
100021f4:	681b      	ldr	r3, [r3, #0]
100021f6:	607b      	str	r3, [r7, #4]
static void SYSTIMER_lTimerHandler(void)
{
  SYSTIMER_OBJECT_t *object_ptr;
  /* Get first item of timer list */
  object_ptr = g_timer_list;
  while ((NULL != object_ptr) && (0U == object_ptr->count))
100021f8:	687b      	ldr	r3, [r7, #4]
100021fa:	2b00      	cmp	r3, #0
100021fc:	d003      	beq.n	10002206 <SYSTIMER_lTimerHandler+0xbe>
100021fe:	687b      	ldr	r3, [r7, #4]
10002200:	699b      	ldr	r3, [r3, #24]
10002202:	2b00      	cmp	r3, #0
10002204:	d0a7      	beq.n	10002156 <SYSTIMER_lTimerHandler+0xe>
      break;
    }
    /* Get first item of timer list */
    object_ptr = g_timer_list;
  }
}
10002206:	46bd      	mov	sp, r7
10002208:	b002      	add	sp, #8
1000220a:	bd80      	pop	{r7, pc}
1000220c:	2000064c 	.word	0x2000064c
10002210:	20000650 	.word	0x20000650

10002214 <SysTick_Handler>:

/*
 *  SysTick Event Handler.
 */
void SysTick_Handler(void)
{
10002214:	b580      	push	{r7, lr}
10002216:	b082      	sub	sp, #8
10002218:	af00      	add	r7, sp, #0
  SYSTIMER_OBJECT_t *object_ptr;
  object_ptr = g_timer_list;
1000221a:	4b0e      	ldr	r3, [pc, #56]	; (10002254 <SysTick_Handler+0x40>)
1000221c:	681b      	ldr	r3, [r3, #0]
1000221e:	607b      	str	r3, [r7, #4]
  g_systick_count++;
10002220:	4b0d      	ldr	r3, [pc, #52]	; (10002258 <SysTick_Handler+0x44>)
10002222:	681b      	ldr	r3, [r3, #0]
10002224:	1c5a      	adds	r2, r3, #1
10002226:	4b0c      	ldr	r3, [pc, #48]	; (10002258 <SysTick_Handler+0x44>)
10002228:	601a      	str	r2, [r3, #0]

  if (NULL != object_ptr)
1000222a:	687b      	ldr	r3, [r7, #4]
1000222c:	2b00      	cmp	r3, #0
1000222e:	d00e      	beq.n	1000224e <SysTick_Handler+0x3a>
  {
    if (object_ptr->count > 1UL)
10002230:	687b      	ldr	r3, [r7, #4]
10002232:	699b      	ldr	r3, [r3, #24]
10002234:	2b01      	cmp	r3, #1
10002236:	d905      	bls.n	10002244 <SysTick_Handler+0x30>
    {
      object_ptr->count--;
10002238:	687b      	ldr	r3, [r7, #4]
1000223a:	699b      	ldr	r3, [r3, #24]
1000223c:	1e5a      	subs	r2, r3, #1
1000223e:	687b      	ldr	r3, [r7, #4]
10002240:	619a      	str	r2, [r3, #24]
10002242:	e004      	b.n	1000224e <SysTick_Handler+0x3a>
    }
    else
    {
      object_ptr->count = 0U;
10002244:	687b      	ldr	r3, [r7, #4]
10002246:	2200      	movs	r2, #0
10002248:	619a      	str	r2, [r3, #24]
      SYSTIMER_lTimerHandler();
1000224a:	f7ff ff7d 	bl	10002148 <SYSTIMER_lTimerHandler>
    }
  }
}
1000224e:	46bd      	mov	sp, r7
10002250:	b002      	add	sp, #8
10002252:	bd80      	pop	{r7, pc}
10002254:	2000064c 	.word	0x2000064c
10002258:	20000654 	.word	0x20000654

1000225c <SYSTIMER_Init>:

/*
 * Initialization function which initializes the SYSTIMER APP, configures SysTick timer and SysTick exception.
 */
SYSTIMER_STATUS_t SYSTIMER_Init(SYSTIMER_t *handle)
{
1000225c:	b580      	push	{r7, lr}
1000225e:	b084      	sub	sp, #16
10002260:	af00      	add	r7, sp, #0
10002262:	6078      	str	r0, [r7, #4]
  SYSTIMER_STATUS_t status = SYSTIMER_STATUS_SUCCESS;
10002264:	230f      	movs	r3, #15
10002266:	18fb      	adds	r3, r7, r3
10002268:	2200      	movs	r2, #0
1000226a:	701a      	strb	r2, [r3, #0]
  XMC_ASSERT("SYSTIMER_Init: SYSTIMER APP handle pointer uninitialized", (handle != NULL));

  /* Check APP initialization status to ensure whether SYSTIMER_Init called or not, initialize SYSTIMER if
   * SYSTIMER_Init called first time.
   */
  if (false == handle->init_status)
1000226c:	687b      	ldr	r3, [r7, #4]
1000226e:	781b      	ldrb	r3, [r3, #0]
10002270:	2201      	movs	r2, #1
10002272:	4053      	eors	r3, r2
10002274:	b2db      	uxtb	r3, r3
10002276:	2b00      	cmp	r3, #0
10002278:	d020      	beq.n	100022bc <SYSTIMER_Init+0x60>
  {
    /* Initialize the header of the list */
    g_timer_list = NULL;
1000227a:	4b14      	ldr	r3, [pc, #80]	; (100022cc <SYSTIMER_Init+0x70>)
1000227c:	2200      	movs	r2, #0
1000227e:	601a      	str	r2, [r3, #0]
    /* Initialize SysTick timer */
    status = (SYSTIMER_STATUS_t)SysTick_Config((uint32_t)(SYSTIMER_SYSTICK_CLOCK * SYSTIMER_TICK_PERIOD));
10002280:	23fa      	movs	r3, #250	; 0xfa
10002282:	01db      	lsls	r3, r3, #7
10002284:	1c18      	adds	r0, r3, #0
10002286:	f7ff fdf9 	bl	10001e7c <SysTick_Config>
1000228a:	1c02      	adds	r2, r0, #0
1000228c:	230f      	movs	r3, #15
1000228e:	18fb      	adds	r3, r7, r3
10002290:	701a      	strb	r2, [r3, #0]

    if (SYSTIMER_STATUS_FAILURE == status)
10002292:	230f      	movs	r3, #15
10002294:	18fb      	adds	r3, r7, r3
10002296:	781b      	ldrb	r3, [r3, #0]
10002298:	2b01      	cmp	r3, #1
1000229a:	d00f      	beq.n	100022bc <SYSTIMER_Init+0x60>
      /* setting of First SW Timer period is always and subpriority value for XMC4000 devices */
      NVIC_SetPriority(SysTick_IRQn, NVIC_EncodePriority(
      NVIC_GetPriorityGrouping(), SYSTIMER_PRIORITY, SYSTIMER_SUBPRIORITY));
#elif (UC_FAMILY == XMC1)
      /* setting of priority value for XMC1000 devices */
      NVIC_SetPriority(SysTick_IRQn, SYSTIMER_PRIORITY);
1000229c:	2301      	movs	r3, #1
1000229e:	425b      	negs	r3, r3
100022a0:	1c18      	adds	r0, r3, #0
100022a2:	2103      	movs	r1, #3
100022a4:	f7ff fd80 	bl	10001da8 <__NVIC_SetPriority>
#endif      
      g_timer_tracker = 0U;
100022a8:	4b09      	ldr	r3, [pc, #36]	; (100022d0 <SYSTIMER_Init+0x74>)
100022aa:	2200      	movs	r2, #0
100022ac:	601a      	str	r2, [r3, #0]
      /* Update the Initialization status of the SYSTIMER APP instance */
      handle->init_status = true;
100022ae:	687b      	ldr	r3, [r7, #4]
100022b0:	2201      	movs	r2, #1
100022b2:	701a      	strb	r2, [r3, #0]
      status = SYSTIMER_STATUS_SUCCESS;
100022b4:	230f      	movs	r3, #15
100022b6:	18fb      	adds	r3, r7, r3
100022b8:	2200      	movs	r2, #0
100022ba:	701a      	strb	r2, [r3, #0]
    }
  }

  return (status);
100022bc:	230f      	movs	r3, #15
100022be:	18fb      	adds	r3, r7, r3
100022c0:	781b      	ldrb	r3, [r3, #0]
}
100022c2:	1c18      	adds	r0, r3, #0
100022c4:	46bd      	mov	sp, r7
100022c6:	b004      	add	sp, #16
100022c8:	bd80      	pop	{r7, pc}
100022ca:	46c0      	nop			; (mov r8, r8)
100022cc:	2000064c 	.word	0x2000064c
100022d0:	20000650 	.word	0x20000650

100022d4 <SYSTIMER_GetTime>:

/*
 *  API to get the current SysTick time in microsecond.
 */
uint32_t SYSTIMER_GetTime(void)
{
100022d4:	b580      	push	{r7, lr}
100022d6:	af00      	add	r7, sp, #0
  return (g_systick_count * SYSTIMER_TICK_PERIOD_US);
100022d8:	4b03      	ldr	r3, [pc, #12]	; (100022e8 <SYSTIMER_GetTime+0x14>)
100022da:	681b      	ldr	r3, [r3, #0]
100022dc:	22fa      	movs	r2, #250	; 0xfa
100022de:	0092      	lsls	r2, r2, #2
100022e0:	4353      	muls	r3, r2
}
100022e2:	1c18      	adds	r0, r3, #0
100022e4:	46bd      	mov	sp, r7
100022e6:	bd80      	pop	{r7, pc}
100022e8:	20000654 	.word	0x20000654

100022ec <XMC_CCU4_EnableClock>:
 *
 * \par<b>Related APIs:</b><br>
 * XMC_CCU4_DisableClock()<BR> XMC_CCU4_EnableMultipleClocks()<BR> XMC_CCU4_StartPrescaler()<BR> XMC_CCU4_StopPrescaler().
 */
__STATIC_INLINE void XMC_CCU4_EnableClock(XMC_CCU4_MODULE_t *const module, const uint8_t slice_number)
{
100022ec:	b580      	push	{r7, lr}
100022ee:	b082      	sub	sp, #8
100022f0:	af00      	add	r7, sp, #0
100022f2:	6078      	str	r0, [r7, #4]
100022f4:	1c0a      	adds	r2, r1, #0
100022f6:	1cfb      	adds	r3, r7, #3
100022f8:	701a      	strb	r2, [r3, #0]
  XMC_ASSERT("XMC_CCU4_EnableClock:Invalid Module Pointer", XMC_CCU4_IsValidModule(module));
  XMC_ASSERT("XMC_CCU4_EnableClock:Invalid Slice Number", (slice_number < 4U));

  module->GIDLC = ((uint32_t) 1) << slice_number;
100022fa:	1cfb      	adds	r3, r7, #3
100022fc:	781b      	ldrb	r3, [r3, #0]
100022fe:	2201      	movs	r2, #1
10002300:	409a      	lsls	r2, r3
10002302:	687b      	ldr	r3, [r7, #4]
10002304:	60da      	str	r2, [r3, #12]
}
10002306:	46bd      	mov	sp, r7
10002308:	b002      	add	sp, #8
1000230a:	bd80      	pop	{r7, pc}

1000230c <XMC_CCU4_SLICE_EnableTrap>:
 * \par<b>Related APIs:</b><br>
 *  XMC_CCU4_SLICE_TrapConfig()<BR> XMC_CCU4_SLICE_DisableTrap()<BR> XMC_CCU4_SLICE_ConfigureEvent()<BR>
 *  XMC_CCU4_SLICE_SetInput().
 */
__STATIC_INLINE void XMC_CCU4_SLICE_EnableTrap(XMC_CCU4_SLICE_t *const slice)
{
1000230c:	b580      	push	{r7, lr}
1000230e:	b082      	sub	sp, #8
10002310:	af00      	add	r7, sp, #0
10002312:	6078      	str	r0, [r7, #4]
  XMC_ASSERT("XMC_CCU4_SLICE_EnableTrap:Invalid Slice Pointer", XMC_CCU4_IsValidSlice(slice));
  slice->TC |= (uint32_t) CCU4_CC4_TC_TRAPE_Msk;
10002314:	687b      	ldr	r3, [r7, #4]
10002316:	695b      	ldr	r3, [r3, #20]
10002318:	2280      	movs	r2, #128	; 0x80
1000231a:	0292      	lsls	r2, r2, #10
1000231c:	431a      	orrs	r2, r3
1000231e:	687b      	ldr	r3, [r7, #4]
10002320:	615a      	str	r2, [r3, #20]
}
10002322:	46bd      	mov	sp, r7
10002324:	b002      	add	sp, #8
10002326:	bd80      	pop	{r7, pc}

10002328 <XMC_CCU4_SLICE_StartTimer>:
 *
 * \par<b>Related APIs:</b><br>
 *  XMC_CCU4_SLICE_StopTimer().
 */
__STATIC_INLINE void XMC_CCU4_SLICE_StartTimer(XMC_CCU4_SLICE_t *const slice)
{
10002328:	b580      	push	{r7, lr}
1000232a:	b082      	sub	sp, #8
1000232c:	af00      	add	r7, sp, #0
1000232e:	6078      	str	r0, [r7, #4]
  XMC_ASSERT("XMC_CCU4_SLICE_StartTimer:Invalid Slice Pointer", XMC_CCU4_IsValidSlice(slice));
  slice->TCSET = CCU4_CC4_TCSET_TRBS_Msk;
10002330:	687b      	ldr	r3, [r7, #4]
10002332:	2201      	movs	r2, #1
10002334:	60da      	str	r2, [r3, #12]
}
10002336:	46bd      	mov	sp, r7
10002338:	b002      	add	sp, #8
1000233a:	bd80      	pop	{r7, pc}

1000233c <XMC_CCU4_SLICE_SetTimerPeriodMatch>:
 *
 * \par<b>Related APIs:</b><br>
 *  XMC_CCU4_SLICE_GetTimerPeriodMatch().
 */
__STATIC_INLINE void XMC_CCU4_SLICE_SetTimerPeriodMatch(XMC_CCU4_SLICE_t *const slice, const uint16_t period_val)
{
1000233c:	b580      	push	{r7, lr}
1000233e:	b082      	sub	sp, #8
10002340:	af00      	add	r7, sp, #0
10002342:	6078      	str	r0, [r7, #4]
10002344:	1c0a      	adds	r2, r1, #0
10002346:	1cbb      	adds	r3, r7, #2
10002348:	801a      	strh	r2, [r3, #0]
  XMC_ASSERT("XMC_CCU4_SLICE_SetTimerPeriodMatch:Invalid Slice Pointer", XMC_CCU4_IsValidSlice(slice));
  slice->PRS = (uint32_t) period_val;
1000234a:	1cbb      	adds	r3, r7, #2
1000234c:	881a      	ldrh	r2, [r3, #0]
1000234e:	687b      	ldr	r3, [r7, #4]
10002350:	635a      	str	r2, [r3, #52]	; 0x34
}
10002352:	46bd      	mov	sp, r7
10002354:	b002      	add	sp, #8
10002356:	bd80      	pop	{r7, pc}

10002358 <XMC_CCU4_SLICE_GetTimerPeriodMatch>:
 *
 * \par<b>Related APIs:</b><br>
 *  XMC_CCU4_SLICE_SetTimerPeriodMatch().
 */
__STATIC_INLINE uint16_t XMC_CCU4_SLICE_GetTimerPeriodMatch(const XMC_CCU4_SLICE_t *const slice)
{
10002358:	b580      	push	{r7, lr}
1000235a:	b082      	sub	sp, #8
1000235c:	af00      	add	r7, sp, #0
1000235e:	6078      	str	r0, [r7, #4]
  XMC_ASSERT("XMC_CCU4_SLICE_SetTimerPeriodMatch:Invalid Slice Pointer", XMC_CCU4_IsValidSlice(slice));
  return ((uint16_t)slice->PR);
10002360:	687b      	ldr	r3, [r7, #4]
10002362:	6b1b      	ldr	r3, [r3, #48]	; 0x30
10002364:	b29b      	uxth	r3, r3
}
10002366:	1c18      	adds	r0, r3, #0
10002368:	46bd      	mov	sp, r7
1000236a:	b002      	add	sp, #8
1000236c:	bd80      	pop	{r7, pc}
1000236e:	46c0      	nop			; (mov r8, r8)

10002370 <XMC_CCU4_SLICE_SetTimerCompareMatch>:
 *
 * \par<b>Related APIs:</b><br>
 *  XMC_CCU4_SLICE_GetTimerPeriodMatch().
 */
__STATIC_INLINE void XMC_CCU4_SLICE_SetTimerCompareMatch(XMC_CCU4_SLICE_t *const slice, const uint16_t compare_val)
{
10002370:	b580      	push	{r7, lr}
10002372:	b082      	sub	sp, #8
10002374:	af00      	add	r7, sp, #0
10002376:	6078      	str	r0, [r7, #4]
10002378:	1c0a      	adds	r2, r1, #0
1000237a:	1cbb      	adds	r3, r7, #2
1000237c:	801a      	strh	r2, [r3, #0]
  XMC_ASSERT("XMC_CCU4_SLICE_SetTimerCompareMatch:Invalid Slice Pointer", XMC_CCU4_IsValidSlice(slice));
  slice->CRS = (uint32_t) compare_val;
1000237e:	1cbb      	adds	r3, r7, #2
10002380:	881a      	ldrh	r2, [r3, #0]
10002382:	687b      	ldr	r3, [r7, #4]
10002384:	63da      	str	r2, [r3, #60]	; 0x3c
}
10002386:	46bd      	mov	sp, r7
10002388:	b002      	add	sp, #8
1000238a:	bd80      	pop	{r7, pc}

1000238c <XMC_CCU4_EnableShadowTransfer>:
 *
 * \par<b>Related APIs:</b><br>
 *  None.
 */
__STATIC_INLINE void XMC_CCU4_EnableShadowTransfer(XMC_CCU4_MODULE_t *const module, const uint32_t shadow_transfer_msk)
{
1000238c:	b580      	push	{r7, lr}
1000238e:	b082      	sub	sp, #8
10002390:	af00      	add	r7, sp, #0
10002392:	6078      	str	r0, [r7, #4]
10002394:	6039      	str	r1, [r7, #0]
  XMC_ASSERT("XMC_CCU4_EnableShadowTransfer:Invalid Slice Pointer", XMC_CCU4_IsValidModule(module));
  module->GCSS = (uint32_t)shadow_transfer_msk;
10002396:	687b      	ldr	r3, [r7, #4]
10002398:	683a      	ldr	r2, [r7, #0]
1000239a:	611a      	str	r2, [r3, #16]
}
1000239c:	46bd      	mov	sp, r7
1000239e:	b002      	add	sp, #8
100023a0:	bd80      	pop	{r7, pc}
100023a2:	46c0      	nop			; (mov r8, r8)

100023a4 <XMC_CCU4_SLICE_EnableEvent>:
 *  XMC_CCU4_SLICE_SetInterruptNode()<BR> XMC_CCU4_SLICE_EnableMultipleEvents()<BR> XMC_CCU4_SLICE_DisableEvent()<BR>
 *  XMC_CCU4_SLICE_DisableMultipleEvents().
 */
__STATIC_INLINE void XMC_CCU4_SLICE_EnableEvent(XMC_CCU4_SLICE_t *const slice,
    const XMC_CCU4_SLICE_IRQ_ID_t event)
{
100023a4:	b580      	push	{r7, lr}
100023a6:	b082      	sub	sp, #8
100023a8:	af00      	add	r7, sp, #0
100023aa:	6078      	str	r0, [r7, #4]
100023ac:	1c0a      	adds	r2, r1, #0
100023ae:	1cfb      	adds	r3, r7, #3
100023b0:	701a      	strb	r2, [r3, #0]
  XMC_ASSERT("XMC_CCU4_SLICE_EnableEvent:Invalid Slice Pointer", XMC_CCU4_IsValidSlice(slice));
  XMC_ASSERT("XMC_CCU4_SLICE_EnableEvent:Invalid SR event", XMC_CCU4_SLICE_CHECK_INTERRUPT(event));
  slice->INTE |= ((uint32_t) 1) << ((uint32_t) event);
100023b2:	687b      	ldr	r3, [r7, #4]
100023b4:	22a4      	movs	r2, #164	; 0xa4
100023b6:	589a      	ldr	r2, [r3, r2]
100023b8:	1cfb      	adds	r3, r7, #3
100023ba:	781b      	ldrb	r3, [r3, #0]
100023bc:	2101      	movs	r1, #1
100023be:	4099      	lsls	r1, r3
100023c0:	1c0b      	adds	r3, r1, #0
100023c2:	431a      	orrs	r2, r3
100023c4:	687b      	ldr	r3, [r7, #4]
100023c6:	21a4      	movs	r1, #164	; 0xa4
100023c8:	505a      	str	r2, [r3, r1]
}
100023ca:	46bd      	mov	sp, r7
100023cc:	b002      	add	sp, #8
100023ce:	bd80      	pop	{r7, pc}

100023d0 <PWM_CCU4_Init>:
  return version;
}

/* This function initializes the app */
PWM_CCU4_STATUS_t PWM_CCU4_Init(PWM_CCU4_t* handle_ptr)
{
100023d0:	b590      	push	{r4, r7, lr}
100023d2:	b087      	sub	sp, #28
100023d4:	af00      	add	r7, sp, #0
100023d6:	6078      	str	r0, [r7, #4]
  PWM_CCU4_STATUS_t status;
  GLOBAL_CCU4_STATUS_t status_ccu4_global;
  uint32_t frequency_module;
  uint32_t prescalar;

  status = PWM_CCU4_STATUS_FAILURE;
100023d8:	2317      	movs	r3, #23
100023da:	18fb      	adds	r3, r7, r3
100023dc:	2201      	movs	r2, #1
100023de:	701a      	strb	r2, [r3, #0]
  status_ccu4_global = GLOBAL_CCU4_STATUS_FAILURE;
100023e0:	2316      	movs	r3, #22
100023e2:	18fb      	adds	r3, r7, r3
100023e4:	2201      	movs	r2, #1
100023e6:	701a      	strb	r2, [r3, #0]
  XMC_ASSERT("PWM_CCU4_Init:handle_ptr is NULL", (handle_ptr != NULL));

  if (PWM_CCU4_STATE_UNINITIALIZED == handle_ptr->state)
100023e8:	687b      	ldr	r3, [r7, #4]
100023ea:	7f1b      	ldrb	r3, [r3, #28]
100023ec:	2b00      	cmp	r3, #0
100023ee:	d000      	beq.n	100023f2 <PWM_CCU4_Init+0x22>
100023f0:	e097      	b.n	10002522 <PWM_CCU4_Init+0x152>
  {
    /* Initialize consumed Apps */
    status_ccu4_global = GLOBAL_CCU4_Init(handle_ptr->config_ptr->global_ccu4_handle);
100023f2:	687b      	ldr	r3, [r7, #4]
100023f4:	681b      	ldr	r3, [r3, #0]
100023f6:	6cdb      	ldr	r3, [r3, #76]	; 0x4c
100023f8:	2216      	movs	r2, #22
100023fa:	18bc      	adds	r4, r7, r2
100023fc:	1c18      	adds	r0, r3, #0
100023fe:	f000 fa95 	bl	1000292c <GLOBAL_CCU4_Init>
10002402:	1c03      	adds	r3, r0, #0
10002404:	7023      	strb	r3, [r4, #0]

    /* Initialize CCU4x_CC4y slice */
    if (GLOBAL_CCU4_STATUS_SUCCESS == status_ccu4_global)
10002406:	2316      	movs	r3, #22
10002408:	18fb      	adds	r3, r7, r3
1000240a:	781b      	ldrb	r3, [r3, #0]
1000240c:	2b00      	cmp	r3, #0
1000240e:	d000      	beq.n	10002412 <PWM_CCU4_Init+0x42>
10002410:	e083      	b.n	1000251a <PWM_CCU4_Init+0x14a>
    {
      XMC_DEBUG("PWM_CCU4_Init:Initilizing slice");

      /* Configure CCU4x_CC4y slice as timer */
      XMC_CCU4_SLICE_CompareInit(handle_ptr->ccu4_slice_ptr, handle_ptr->config_ptr->ccu4_cc4_slice_timer_ptr);
10002412:	687b      	ldr	r3, [r7, #4]
10002414:	689a      	ldr	r2, [r3, #8]
10002416:	687b      	ldr	r3, [r7, #4]
10002418:	681b      	ldr	r3, [r3, #0]
1000241a:	6b9b      	ldr	r3, [r3, #56]	; 0x38
1000241c:	1c10      	adds	r0, r2, #0
1000241e:	1c19      	adds	r1, r3, #0
10002420:	f7ff f8a2 	bl	10001568 <XMC_CCU4_SLICE_CompareInit>
      /* Set period match value of the timer  */
      XMC_CCU4_SLICE_SetTimerPeriodMatch(handle_ptr->ccu4_slice_ptr, handle_ptr->config_ptr->period_value);
10002424:	687b      	ldr	r3, [r7, #4]
10002426:	689a      	ldr	r2, [r3, #8]
10002428:	687b      	ldr	r3, [r7, #4]
1000242a:	681b      	ldr	r3, [r3, #0]
1000242c:	885b      	ldrh	r3, [r3, #2]
1000242e:	1c10      	adds	r0, r2, #0
10002430:	1c19      	adds	r1, r3, #0
10002432:	f7ff ff83 	bl	1000233c <XMC_CCU4_SLICE_SetTimerPeriodMatch>

      /* Set timer compare match value for channel 1 */
      XMC_CCU4_SLICE_SetTimerCompareMatch(handle_ptr->ccu4_slice_ptr, (uint16_t) handle_ptr->config_ptr->compare_value);
10002436:	687b      	ldr	r3, [r7, #4]
10002438:	689a      	ldr	r2, [r3, #8]
1000243a:	687b      	ldr	r3, [r7, #4]
1000243c:	681b      	ldr	r3, [r3, #0]
1000243e:	889b      	ldrh	r3, [r3, #4]
10002440:	1c10      	adds	r0, r2, #0
10002442:	1c19      	adds	r1, r3, #0
10002444:	f7ff ff94 	bl	10002370 <XMC_CCU4_SLICE_SetTimerCompareMatch>

      if (1U == handle_ptr->config_ptr->ccu4_cc4_slice_timer_ptr->mcm_enable)
10002448:	687b      	ldr	r3, [r7, #4]
1000244a:	681b      	ldr	r3, [r3, #0]
1000244c:	6b9b      	ldr	r3, [r3, #56]	; 0x38
1000244e:	78db      	ldrb	r3, [r3, #3]
10002450:	2202      	movs	r2, #2
10002452:	4013      	ands	r3, r2
10002454:	b2db      	uxtb	r3, r3
10002456:	2b00      	cmp	r3, #0
10002458:	d008      	beq.n	1000246c <PWM_CCU4_Init+0x9c>
      {
        XMC_CCU4_SetMultiChannelShadowTransferMode(handle_ptr->ccu4_module_ptr,
1000245a:	687b      	ldr	r3, [r7, #4]
1000245c:	685a      	ldr	r2, [r3, #4]
                                                   (uint32_t) handle_ptr->config_ptr->mcm_shadow_txfr_mode);
1000245e:	687b      	ldr	r3, [r7, #4]
10002460:	681b      	ldr	r3, [r3, #0]
10002462:	6b5b      	ldr	r3, [r3, #52]	; 0x34
      /* Set timer compare match value for channel 1 */
      XMC_CCU4_SLICE_SetTimerCompareMatch(handle_ptr->ccu4_slice_ptr, (uint16_t) handle_ptr->config_ptr->compare_value);

      if (1U == handle_ptr->config_ptr->ccu4_cc4_slice_timer_ptr->mcm_enable)
      {
        XMC_CCU4_SetMultiChannelShadowTransferMode(handle_ptr->ccu4_module_ptr,
10002464:	1c10      	adds	r0, r2, #0
10002466:	1c19      	adds	r1, r3, #0
10002468:	f7ff f864 	bl	10001534 <XMC_CCU4_SetMultiChannelShadowTransferMode>
        XMC_CCU4_SLICE_EnableCascadedShadowTransfer(handle_ptr->ccu4_slice_ptr);
      }
#endif

      /* Transfer value from shadow timer registers to actual timer registers */
      XMC_CCU4_EnableShadowTransfer(handle_ptr->ccu4_module_ptr, handle_ptr->shadow_txfr_msk);
1000246c:	687b      	ldr	r3, [r7, #4]
1000246e:	685a      	ldr	r2, [r3, #4]
10002470:	687b      	ldr	r3, [r7, #4]
10002472:	691b      	ldr	r3, [r3, #16]
10002474:	1c10      	adds	r0, r2, #0
10002476:	1c19      	adds	r1, r3, #0
10002478:	f7ff ff88 	bl	1000238c <XMC_CCU4_EnableShadowTransfer>
      XMC_CCU4_EnableShadowTransfer(handle_ptr->ccu4_module_ptr, handle_ptr->dither_shadow_txfr_msk);
1000247c:	687b      	ldr	r3, [r7, #4]
1000247e:	685a      	ldr	r2, [r3, #4]
10002480:	687b      	ldr	r3, [r7, #4]
10002482:	695b      	ldr	r3, [r3, #20]
10002484:	1c10      	adds	r0, r2, #0
10002486:	1c19      	adds	r1, r3, #0
10002488:	f7ff ff80 	bl	1000238c <XMC_CCU4_EnableShadowTransfer>

      /* Configure events */
      PWM_CCU4_lConfigure_Events(handle_ptr);
1000248c:	687b      	ldr	r3, [r7, #4]
1000248e:	1c18      	adds	r0, r3, #0
10002490:	f000 f8ec 	bl	1000266c <PWM_CCU4_lConfigure_Events>

      /* Enable the interrupts */
      PWM_CCU4_lInit_Interrupt(handle_ptr);
10002494:	687b      	ldr	r3, [r7, #4]
10002496:	1c18      	adds	r0, r3, #0
10002498:	f000 f84e 	bl	10002538 <PWM_CCU4_lInit_Interrupt>

      /*Initializes the GPIO*/
      if ((bool) true == handle_ptr->config_ptr->gpio_ch_out_enable)
1000249c:	687b      	ldr	r3, [r7, #4]
1000249e:	681b      	ldr	r3, [r3, #0]
100024a0:	223c      	movs	r2, #60	; 0x3c
100024a2:	5c9b      	ldrb	r3, [r3, r2]
100024a4:	2b00      	cmp	r3, #0
100024a6:	d00e      	beq.n	100024c6 <PWM_CCU4_Init+0xf6>
      {
        XMC_GPIO_Init(handle_ptr->config_ptr->gpio_ch_out_ptr, handle_ptr->config_ptr->gpio_ch_out_pin,
100024a8:	687b      	ldr	r3, [r7, #4]
100024aa:	681b      	ldr	r3, [r3, #0]
100024ac:	6c19      	ldr	r1, [r3, #64]	; 0x40
100024ae:	687b      	ldr	r3, [r7, #4]
100024b0:	681b      	ldr	r3, [r3, #0]
100024b2:	2244      	movs	r2, #68	; 0x44
100024b4:	5c9a      	ldrb	r2, [r3, r2]
                      handle_ptr->config_ptr->gpio_ch_out_config_ptr);
100024b6:	687b      	ldr	r3, [r7, #4]
100024b8:	681b      	ldr	r3, [r3, #0]
      PWM_CCU4_lInit_Interrupt(handle_ptr);

      /*Initializes the GPIO*/
      if ((bool) true == handle_ptr->config_ptr->gpio_ch_out_enable)
      {
        XMC_GPIO_Init(handle_ptr->config_ptr->gpio_ch_out_ptr, handle_ptr->config_ptr->gpio_ch_out_pin,
100024ba:	6c9b      	ldr	r3, [r3, #72]	; 0x48
100024bc:	1c08      	adds	r0, r1, #0
100024be:	1c11      	adds	r1, r2, #0
100024c0:	1c1a      	adds	r2, r3, #0
100024c2:	f7fe fe27 	bl	10001114 <XMC_GPIO_Init>
                      handle_ptr->config_ptr->gpio_ch_out_config_ptr);
      }

      frequency_module = handle_ptr->config_ptr->global_ccu4_handle->module_frequency;
100024c6:	687b      	ldr	r3, [r7, #4]
100024c8:	681b      	ldr	r3, [r3, #0]
100024ca:	6cdb      	ldr	r3, [r3, #76]	; 0x4c
100024cc:	681b      	ldr	r3, [r3, #0]
100024ce:	613b      	str	r3, [r7, #16]
      prescalar = (uint32_t) handle_ptr->config_ptr->ccu4_cc4_slice_timer_ptr->prescaler_initval;
100024d0:	687b      	ldr	r3, [r7, #4]
100024d2:	681b      	ldr	r3, [r3, #0]
100024d4:	6b9b      	ldr	r3, [r3, #56]	; 0x38
100024d6:	791b      	ldrb	r3, [r3, #4]
100024d8:	071b      	lsls	r3, r3, #28
100024da:	0f1b      	lsrs	r3, r3, #28
100024dc:	b2db      	uxtb	r3, r3
100024de:	60fb      	str	r3, [r7, #12]
      frequency_module = frequency_module / ((uint32_t) 1 << prescalar);
100024e0:	68fb      	ldr	r3, [r7, #12]
100024e2:	693a      	ldr	r2, [r7, #16]
100024e4:	40da      	lsrs	r2, r3
100024e6:	1c13      	adds	r3, r2, #0
100024e8:	613b      	str	r3, [r7, #16]
      handle_ptr->frequency_tclk = frequency_module;
100024ea:	687b      	ldr	r3, [r7, #4]
100024ec:	693a      	ldr	r2, [r7, #16]
100024ee:	621a      	str	r2, [r3, #32]

      handle_ptr->state = PWM_CCU4_STATE_INITIALIZED;
100024f0:	687b      	ldr	r3, [r7, #4]
100024f2:	2201      	movs	r2, #1
100024f4:	771a      	strb	r2, [r3, #28]
      status = PWM_CCU4_STATUS_SUCCESS;
100024f6:	2317      	movs	r3, #23
100024f8:	18fb      	adds	r3, r7, r3
100024fa:	2200      	movs	r2, #0
100024fc:	701a      	strb	r2, [r3, #0]

      /* Start the PWM generation if start at initialization is enabled */
      if ((bool) true == handle_ptr->config_ptr->start_control)
100024fe:	687b      	ldr	r3, [r7, #4]
10002500:	681b      	ldr	r3, [r3, #0]
10002502:	781b      	ldrb	r3, [r3, #0]
10002504:	2b00      	cmp	r3, #0
10002506:	d010      	beq.n	1000252a <PWM_CCU4_Init+0x15a>
      {
        status = PWM_CCU4_Start(handle_ptr);
10002508:	2317      	movs	r3, #23
1000250a:	18fc      	adds	r4, r7, r3
1000250c:	687b      	ldr	r3, [r7, #4]
1000250e:	1c18      	adds	r0, r3, #0
10002510:	f000 f98a 	bl	10002828 <PWM_CCU4_Start>
10002514:	1c03      	adds	r3, r0, #0
10002516:	7023      	strb	r3, [r4, #0]
10002518:	e007      	b.n	1000252a <PWM_CCU4_Init+0x15a>
      }
    }
    else
    {
      handle_ptr->state = PWM_CCU4_STATE_UNINITIALIZED;
1000251a:	687b      	ldr	r3, [r7, #4]
1000251c:	2200      	movs	r2, #0
1000251e:	771a      	strb	r2, [r3, #28]
10002520:	e003      	b.n	1000252a <PWM_CCU4_Init+0x15a>
    }

  }
  else
  {
    status = PWM_CCU4_STATUS_ALREADY_INITIALIZED;
10002522:	2317      	movs	r3, #23
10002524:	18fb      	adds	r3, r7, r3
10002526:	2202      	movs	r2, #2
10002528:	701a      	strb	r2, [r3, #0]
    XMC_DEBUG("PWM_CCU4_Init:PWM_CCU4_STATUS_ALREADY_INITIALIZED");
  }

  return (status);
1000252a:	2317      	movs	r3, #23
1000252c:	18fb      	adds	r3, r7, r3
1000252e:	781b      	ldrb	r3, [r3, #0]
} /* end of PWM_CCU4_Init() api */
10002530:	1c18      	adds	r0, r3, #0
10002532:	46bd      	mov	sp, r7
10002534:	b007      	add	sp, #28
10002536:	bd90      	pop	{r4, r7, pc}

10002538 <PWM_CCU4_lInit_Interrupt>:

static void PWM_CCU4_lInit_Interrupt(PWM_CCU4_t* handle_ptr)
{
10002538:	b580      	push	{r7, lr}
1000253a:	b082      	sub	sp, #8
1000253c:	af00      	add	r7, sp, #0
1000253e:	6078      	str	r0, [r7, #4]

  /* Enable events. Bind event to corresponding service request node.Enable Interrupts. The user may choose to 
   disable the interrupts by LLD calls. */
  if ((bool) true == handle_ptr->config_ptr->int_per_match)
10002540:	687b      	ldr	r3, [r7, #4]
10002542:	681b      	ldr	r3, [r3, #0]
10002544:	799b      	ldrb	r3, [r3, #6]
10002546:	2b00      	cmp	r3, #0
10002548:	d00f      	beq.n	1000256a <PWM_CCU4_lInit_Interrupt+0x32>
  {
    XMC_DEBUG("PWM_CCU4_Init: Interrupt period match enable");
    XMC_CCU4_SLICE_SetInterruptNode(handle_ptr->ccu4_slice_ptr, XMC_CCU4_SLICE_IRQ_ID_PERIOD_MATCH,
1000254a:	687b      	ldr	r3, [r7, #4]
1000254c:	689a      	ldr	r2, [r3, #8]
                                    handle_ptr->config_ptr->sr_per_match);
1000254e:	687b      	ldr	r3, [r7, #4]
10002550:	681b      	ldr	r3, [r3, #0]
  /* Enable events. Bind event to corresponding service request node.Enable Interrupts. The user may choose to 
   disable the interrupts by LLD calls. */
  if ((bool) true == handle_ptr->config_ptr->int_per_match)
  {
    XMC_DEBUG("PWM_CCU4_Init: Interrupt period match enable");
    XMC_CCU4_SLICE_SetInterruptNode(handle_ptr->ccu4_slice_ptr, XMC_CCU4_SLICE_IRQ_ID_PERIOD_MATCH,
10002552:	7b5b      	ldrb	r3, [r3, #13]
10002554:	1c10      	adds	r0, r2, #0
10002556:	2100      	movs	r1, #0
10002558:	1c1a      	adds	r2, r3, #0
1000255a:	f7ff fab5 	bl	10001ac8 <XMC_CCU4_SLICE_SetInterruptNode>
                                    handle_ptr->config_ptr->sr_per_match);
    XMC_CCU4_SLICE_EnableEvent(handle_ptr->ccu4_slice_ptr, XMC_CCU4_SLICE_IRQ_ID_PERIOD_MATCH);
1000255e:	687b      	ldr	r3, [r7, #4]
10002560:	689b      	ldr	r3, [r3, #8]
10002562:	1c18      	adds	r0, r3, #0
10002564:	2100      	movs	r1, #0
10002566:	f7ff ff1d 	bl	100023a4 <XMC_CCU4_SLICE_EnableEvent>
  }

  if ((bool) true == handle_ptr->config_ptr->int_cmp_match_up)
1000256a:	687b      	ldr	r3, [r7, #4]
1000256c:	681b      	ldr	r3, [r3, #0]
1000256e:	79db      	ldrb	r3, [r3, #7]
10002570:	2b00      	cmp	r3, #0
10002572:	d00f      	beq.n	10002594 <PWM_CCU4_lInit_Interrupt+0x5c>
  {
    XMC_DEBUG("PWM_CCU4_Init: Interrupt compare match up enable");
    XMC_CCU4_SLICE_SetInterruptNode(handle_ptr->ccu4_slice_ptr, XMC_CCU4_SLICE_IRQ_ID_COMPARE_MATCH_UP,
10002574:	687b      	ldr	r3, [r7, #4]
10002576:	689a      	ldr	r2, [r3, #8]
                                    handle_ptr->config_ptr->sr_cmp_match_up);
10002578:	687b      	ldr	r3, [r7, #4]
1000257a:	681b      	ldr	r3, [r3, #0]
  }

  if ((bool) true == handle_ptr->config_ptr->int_cmp_match_up)
  {
    XMC_DEBUG("PWM_CCU4_Init: Interrupt compare match up enable");
    XMC_CCU4_SLICE_SetInterruptNode(handle_ptr->ccu4_slice_ptr, XMC_CCU4_SLICE_IRQ_ID_COMPARE_MATCH_UP,
1000257c:	7b9b      	ldrb	r3, [r3, #14]
1000257e:	1c10      	adds	r0, r2, #0
10002580:	2102      	movs	r1, #2
10002582:	1c1a      	adds	r2, r3, #0
10002584:	f7ff faa0 	bl	10001ac8 <XMC_CCU4_SLICE_SetInterruptNode>
                                    handle_ptr->config_ptr->sr_cmp_match_up);
    XMC_CCU4_SLICE_EnableEvent(handle_ptr->ccu4_slice_ptr, XMC_CCU4_SLICE_IRQ_ID_COMPARE_MATCH_UP);
10002588:	687b      	ldr	r3, [r7, #4]
1000258a:	689b      	ldr	r3, [r3, #8]
1000258c:	1c18      	adds	r0, r3, #0
1000258e:	2102      	movs	r1, #2
10002590:	f7ff ff08 	bl	100023a4 <XMC_CCU4_SLICE_EnableEvent>
  }

  if ((bool) true == handle_ptr->config_ptr->int_cmp_match_down)
10002594:	687b      	ldr	r3, [r7, #4]
10002596:	681b      	ldr	r3, [r3, #0]
10002598:	7a1b      	ldrb	r3, [r3, #8]
1000259a:	2b00      	cmp	r3, #0
1000259c:	d00f      	beq.n	100025be <PWM_CCU4_lInit_Interrupt+0x86>
  {
    XMC_DEBUG("PWM_CCU4_Init: Interrupt compare match down enable");
    XMC_CCU4_SLICE_SetInterruptNode(handle_ptr->ccu4_slice_ptr, XMC_CCU4_SLICE_IRQ_ID_COMPARE_MATCH_DOWN,
1000259e:	687b      	ldr	r3, [r7, #4]
100025a0:	689a      	ldr	r2, [r3, #8]
                                    handle_ptr->config_ptr->sr_cmp_match_down);
100025a2:	687b      	ldr	r3, [r7, #4]
100025a4:	681b      	ldr	r3, [r3, #0]
  }

  if ((bool) true == handle_ptr->config_ptr->int_cmp_match_down)
  {
    XMC_DEBUG("PWM_CCU4_Init: Interrupt compare match down enable");
    XMC_CCU4_SLICE_SetInterruptNode(handle_ptr->ccu4_slice_ptr, XMC_CCU4_SLICE_IRQ_ID_COMPARE_MATCH_DOWN,
100025a6:	7bdb      	ldrb	r3, [r3, #15]
100025a8:	1c10      	adds	r0, r2, #0
100025aa:	2103      	movs	r1, #3
100025ac:	1c1a      	adds	r2, r3, #0
100025ae:	f7ff fa8b 	bl	10001ac8 <XMC_CCU4_SLICE_SetInterruptNode>
                                    handle_ptr->config_ptr->sr_cmp_match_down);
    XMC_CCU4_SLICE_EnableEvent(handle_ptr->ccu4_slice_ptr, XMC_CCU4_SLICE_IRQ_ID_COMPARE_MATCH_DOWN);
100025b2:	687b      	ldr	r3, [r7, #4]
100025b4:	689b      	ldr	r3, [r3, #8]
100025b6:	1c18      	adds	r0, r3, #0
100025b8:	2103      	movs	r1, #3
100025ba:	f7ff fef3 	bl	100023a4 <XMC_CCU4_SLICE_EnableEvent>
  }

  if ((bool) true == handle_ptr->config_ptr->int_one_match_down)
100025be:	687b      	ldr	r3, [r7, #4]
100025c0:	681b      	ldr	r3, [r3, #0]
100025c2:	7a5b      	ldrb	r3, [r3, #9]
100025c4:	2b00      	cmp	r3, #0
100025c6:	d00f      	beq.n	100025e8 <PWM_CCU4_lInit_Interrupt+0xb0>
  {
    XMC_DEBUG("PWM_CCU4_Init: Interrupt one match enable");
    XMC_CCU4_SLICE_SetInterruptNode(handle_ptr->ccu4_slice_ptr, XMC_CCU4_SLICE_IRQ_ID_ONE_MATCH,
100025c8:	687b      	ldr	r3, [r7, #4]
100025ca:	689a      	ldr	r2, [r3, #8]
                                    handle_ptr->config_ptr->sr_one_match_down);
100025cc:	687b      	ldr	r3, [r7, #4]
100025ce:	681b      	ldr	r3, [r3, #0]
  }

  if ((bool) true == handle_ptr->config_ptr->int_one_match_down)
  {
    XMC_DEBUG("PWM_CCU4_Init: Interrupt one match enable");
    XMC_CCU4_SLICE_SetInterruptNode(handle_ptr->ccu4_slice_ptr, XMC_CCU4_SLICE_IRQ_ID_ONE_MATCH,
100025d0:	7c1b      	ldrb	r3, [r3, #16]
100025d2:	1c10      	adds	r0, r2, #0
100025d4:	2101      	movs	r1, #1
100025d6:	1c1a      	adds	r2, r3, #0
100025d8:	f7ff fa76 	bl	10001ac8 <XMC_CCU4_SLICE_SetInterruptNode>
                                    handle_ptr->config_ptr->sr_one_match_down);
    XMC_CCU4_SLICE_EnableEvent(handle_ptr->ccu4_slice_ptr, XMC_CCU4_SLICE_IRQ_ID_ONE_MATCH);
100025dc:	687b      	ldr	r3, [r7, #4]
100025de:	689b      	ldr	r3, [r3, #8]
100025e0:	1c18      	adds	r0, r3, #0
100025e2:	2101      	movs	r1, #1
100025e4:	f7ff fede 	bl	100023a4 <XMC_CCU4_SLICE_EnableEvent>
  }

  if ((bool) true == handle_ptr->config_ptr->int_e0)
100025e8:	687b      	ldr	r3, [r7, #4]
100025ea:	681b      	ldr	r3, [r3, #0]
100025ec:	7a9b      	ldrb	r3, [r3, #10]
100025ee:	2b00      	cmp	r3, #0
100025f0:	d00f      	beq.n	10002612 <PWM_CCU4_lInit_Interrupt+0xda>
  {
    XMC_DEBUG("PWM_CCU4_Init: Interrupt event 0 enable");
    XMC_CCU4_SLICE_SetInterruptNode(handle_ptr->ccu4_slice_ptr, XMC_CCU4_SLICE_IRQ_ID_EVENT0,
100025f2:	687b      	ldr	r3, [r7, #4]
100025f4:	689a      	ldr	r2, [r3, #8]
                                    handle_ptr->config_ptr->sr_e0);
100025f6:	687b      	ldr	r3, [r7, #4]
100025f8:	681b      	ldr	r3, [r3, #0]
  }

  if ((bool) true == handle_ptr->config_ptr->int_e0)
  {
    XMC_DEBUG("PWM_CCU4_Init: Interrupt event 0 enable");
    XMC_CCU4_SLICE_SetInterruptNode(handle_ptr->ccu4_slice_ptr, XMC_CCU4_SLICE_IRQ_ID_EVENT0,
100025fa:	7c5b      	ldrb	r3, [r3, #17]
100025fc:	1c10      	adds	r0, r2, #0
100025fe:	2108      	movs	r1, #8
10002600:	1c1a      	adds	r2, r3, #0
10002602:	f7ff fa61 	bl	10001ac8 <XMC_CCU4_SLICE_SetInterruptNode>
                                    handle_ptr->config_ptr->sr_e0);
    XMC_CCU4_SLICE_EnableEvent(handle_ptr->ccu4_slice_ptr, XMC_CCU4_SLICE_IRQ_ID_EVENT0);
10002606:	687b      	ldr	r3, [r7, #4]
10002608:	689b      	ldr	r3, [r3, #8]
1000260a:	1c18      	adds	r0, r3, #0
1000260c:	2108      	movs	r1, #8
1000260e:	f7ff fec9 	bl	100023a4 <XMC_CCU4_SLICE_EnableEvent>
  }

  if ((bool) true == handle_ptr->config_ptr->int_e1)
10002612:	687b      	ldr	r3, [r7, #4]
10002614:	681b      	ldr	r3, [r3, #0]
10002616:	7adb      	ldrb	r3, [r3, #11]
10002618:	2b00      	cmp	r3, #0
1000261a:	d00f      	beq.n	1000263c <PWM_CCU4_lInit_Interrupt+0x104>
  {
    XMC_DEBUG("PWM_CCU4_Init: Interrupt event 1 enable");
    XMC_CCU4_SLICE_SetInterruptNode(handle_ptr->ccu4_slice_ptr, XMC_CCU4_SLICE_IRQ_ID_EVENT1,
1000261c:	687b      	ldr	r3, [r7, #4]
1000261e:	689a      	ldr	r2, [r3, #8]
                                    handle_ptr->config_ptr->sr_e1);
10002620:	687b      	ldr	r3, [r7, #4]
10002622:	681b      	ldr	r3, [r3, #0]
  }

  if ((bool) true == handle_ptr->config_ptr->int_e1)
  {
    XMC_DEBUG("PWM_CCU4_Init: Interrupt event 1 enable");
    XMC_CCU4_SLICE_SetInterruptNode(handle_ptr->ccu4_slice_ptr, XMC_CCU4_SLICE_IRQ_ID_EVENT1,
10002624:	7c9b      	ldrb	r3, [r3, #18]
10002626:	1c10      	adds	r0, r2, #0
10002628:	2109      	movs	r1, #9
1000262a:	1c1a      	adds	r2, r3, #0
1000262c:	f7ff fa4c 	bl	10001ac8 <XMC_CCU4_SLICE_SetInterruptNode>
                                    handle_ptr->config_ptr->sr_e1);
    XMC_CCU4_SLICE_EnableEvent(handle_ptr->ccu4_slice_ptr, XMC_CCU4_SLICE_IRQ_ID_EVENT1);
10002630:	687b      	ldr	r3, [r7, #4]
10002632:	689b      	ldr	r3, [r3, #8]
10002634:	1c18      	adds	r0, r3, #0
10002636:	2109      	movs	r1, #9
10002638:	f7ff feb4 	bl	100023a4 <XMC_CCU4_SLICE_EnableEvent>
  }

  if ((bool) true == handle_ptr->config_ptr->int_e2)
1000263c:	687b      	ldr	r3, [r7, #4]
1000263e:	681b      	ldr	r3, [r3, #0]
10002640:	7b1b      	ldrb	r3, [r3, #12]
10002642:	2b00      	cmp	r3, #0
10002644:	d00f      	beq.n	10002666 <PWM_CCU4_lInit_Interrupt+0x12e>
  {
    XMC_DEBUG("PWM_CCU4_Init: Interrupt event 2 enable");
    XMC_CCU4_SLICE_SetInterruptNode(handle_ptr->ccu4_slice_ptr, XMC_CCU4_SLICE_IRQ_ID_EVENT2,
10002646:	687b      	ldr	r3, [r7, #4]
10002648:	689a      	ldr	r2, [r3, #8]
                                    handle_ptr->config_ptr->sr_e2);
1000264a:	687b      	ldr	r3, [r7, #4]
1000264c:	681b      	ldr	r3, [r3, #0]
  }

  if ((bool) true == handle_ptr->config_ptr->int_e2)
  {
    XMC_DEBUG("PWM_CCU4_Init: Interrupt event 2 enable");
    XMC_CCU4_SLICE_SetInterruptNode(handle_ptr->ccu4_slice_ptr, XMC_CCU4_SLICE_IRQ_ID_EVENT2,
1000264e:	7cdb      	ldrb	r3, [r3, #19]
10002650:	1c10      	adds	r0, r2, #0
10002652:	210a      	movs	r1, #10
10002654:	1c1a      	adds	r2, r3, #0
10002656:	f7ff fa37 	bl	10001ac8 <XMC_CCU4_SLICE_SetInterruptNode>
                                    handle_ptr->config_ptr->sr_e2);
    XMC_CCU4_SLICE_EnableEvent(handle_ptr->ccu4_slice_ptr, XMC_CCU4_SLICE_IRQ_ID_EVENT2);
1000265a:	687b      	ldr	r3, [r7, #4]
1000265c:	689b      	ldr	r3, [r3, #8]
1000265e:	1c18      	adds	r0, r3, #0
10002660:	210a      	movs	r1, #10
10002662:	f7ff fe9f 	bl	100023a4 <XMC_CCU4_SLICE_EnableEvent>
  }
}
10002666:	46bd      	mov	sp, r7
10002668:	b002      	add	sp, #8
1000266a:	bd80      	pop	{r7, pc}

1000266c <PWM_CCU4_lConfigure_Events>:

static void PWM_CCU4_lConfigure_Events(PWM_CCU4_t* handle_ptr)
{
1000266c:	b590      	push	{r4, r7, lr}
1000266e:	b083      	sub	sp, #12
10002670:	af00      	add	r7, sp, #0
10002672:	6078      	str	r0, [r7, #4]

  /* Configure slice to a external event 0 */
  XMC_CCU4_SLICE_ConfigureEvent(handle_ptr->ccu4_slice_ptr, XMC_CCU4_SLICE_EVENT_0,
10002674:	687b      	ldr	r3, [r7, #4]
10002676:	689a      	ldr	r2, [r3, #8]
                                handle_ptr->config_ptr->event0_config_ptr);
10002678:	687b      	ldr	r3, [r7, #4]
1000267a:	681b      	ldr	r3, [r3, #0]

static void PWM_CCU4_lConfigure_Events(PWM_CCU4_t* handle_ptr)
{

  /* Configure slice to a external event 0 */
  XMC_CCU4_SLICE_ConfigureEvent(handle_ptr->ccu4_slice_ptr, XMC_CCU4_SLICE_EVENT_0,
1000267c:	695b      	ldr	r3, [r3, #20]
1000267e:	1c10      	adds	r0, r2, #0
10002680:	2101      	movs	r1, #1
10002682:	1c1a      	adds	r2, r3, #0
10002684:	f7ff f992 	bl	100019ac <XMC_CCU4_SLICE_ConfigureEvent>
                                handle_ptr->config_ptr->event0_config_ptr);

  /* Configure slice to a external event 1 */
  XMC_CCU4_SLICE_ConfigureEvent(handle_ptr->ccu4_slice_ptr, XMC_CCU4_SLICE_EVENT_1,
10002688:	687b      	ldr	r3, [r7, #4]
1000268a:	689a      	ldr	r2, [r3, #8]
                                handle_ptr->config_ptr->event1_config_ptr);
1000268c:	687b      	ldr	r3, [r7, #4]
1000268e:	681b      	ldr	r3, [r3, #0]
  /* Configure slice to a external event 0 */
  XMC_CCU4_SLICE_ConfigureEvent(handle_ptr->ccu4_slice_ptr, XMC_CCU4_SLICE_EVENT_0,
                                handle_ptr->config_ptr->event0_config_ptr);

  /* Configure slice to a external event 1 */
  XMC_CCU4_SLICE_ConfigureEvent(handle_ptr->ccu4_slice_ptr, XMC_CCU4_SLICE_EVENT_1,
10002690:	699b      	ldr	r3, [r3, #24]
10002692:	1c10      	adds	r0, r2, #0
10002694:	2102      	movs	r1, #2
10002696:	1c1a      	adds	r2, r3, #0
10002698:	f7ff f988 	bl	100019ac <XMC_CCU4_SLICE_ConfigureEvent>
                                handle_ptr->config_ptr->event1_config_ptr);

  /* Configure slice to a external event 2 */
  XMC_CCU4_SLICE_ConfigureEvent(handle_ptr->ccu4_slice_ptr, XMC_CCU4_SLICE_EVENT_2,
1000269c:	687b      	ldr	r3, [r7, #4]
1000269e:	689a      	ldr	r2, [r3, #8]
                                handle_ptr->config_ptr->event2_config_ptr);
100026a0:	687b      	ldr	r3, [r7, #4]
100026a2:	681b      	ldr	r3, [r3, #0]
  /* Configure slice to a external event 1 */
  XMC_CCU4_SLICE_ConfigureEvent(handle_ptr->ccu4_slice_ptr, XMC_CCU4_SLICE_EVENT_1,
                                handle_ptr->config_ptr->event1_config_ptr);

  /* Configure slice to a external event 2 */
  XMC_CCU4_SLICE_ConfigureEvent(handle_ptr->ccu4_slice_ptr, XMC_CCU4_SLICE_EVENT_2,
100026a4:	69db      	ldr	r3, [r3, #28]
100026a6:	1c10      	adds	r0, r2, #0
100026a8:	2103      	movs	r1, #3
100026aa:	1c1a      	adds	r2, r3, #0
100026ac:	f7ff f97e 	bl	100019ac <XMC_CCU4_SLICE_ConfigureEvent>
                                handle_ptr->config_ptr->event2_config_ptr);

  /* External signal controls start of the timer */
  if (XMC_CCU4_SLICE_EVENT_NONE != handle_ptr->config_ptr->ext_start_event)
100026b0:	687b      	ldr	r3, [r7, #4]
100026b2:	681b      	ldr	r3, [r3, #0]
100026b4:	2220      	movs	r2, #32
100026b6:	5c9b      	ldrb	r3, [r3, r2]
100026b8:	2b00      	cmp	r3, #0
100026ba:	d00c      	beq.n	100026d6 <PWM_CCU4_lConfigure_Events+0x6a>
  {
    XMC_CCU4_SLICE_StartConfig(handle_ptr->ccu4_slice_ptr, handle_ptr->config_ptr->ext_start_event,
100026bc:	687b      	ldr	r3, [r7, #4]
100026be:	6898      	ldr	r0, [r3, #8]
100026c0:	687b      	ldr	r3, [r7, #4]
100026c2:	681b      	ldr	r3, [r3, #0]
100026c4:	2220      	movs	r2, #32
100026c6:	5c99      	ldrb	r1, [r3, r2]
                               handle_ptr->config_ptr->ext_start_mode);
100026c8:	687b      	ldr	r3, [r7, #4]
100026ca:	681b      	ldr	r3, [r3, #0]
                                handle_ptr->config_ptr->event2_config_ptr);

  /* External signal controls start of the timer */
  if (XMC_CCU4_SLICE_EVENT_NONE != handle_ptr->config_ptr->ext_start_event)
  {
    XMC_CCU4_SLICE_StartConfig(handle_ptr->ccu4_slice_ptr, handle_ptr->config_ptr->ext_start_event,
100026cc:	2221      	movs	r2, #33	; 0x21
100026ce:	5c9b      	ldrb	r3, [r3, r2]
100026d0:	1c1a      	adds	r2, r3, #0
100026d2:	f7fe ff7d 	bl	100015d0 <XMC_CCU4_SLICE_StartConfig>
                               handle_ptr->config_ptr->ext_start_mode);
  }

  /* External signal can stop the timer */
  if (XMC_CCU4_SLICE_EVENT_NONE != handle_ptr->config_ptr->ext_stop_event)
100026d6:	687b      	ldr	r3, [r7, #4]
100026d8:	681b      	ldr	r3, [r3, #0]
100026da:	2222      	movs	r2, #34	; 0x22
100026dc:	5c9b      	ldrb	r3, [r3, r2]
100026de:	2b00      	cmp	r3, #0
100026e0:	d00c      	beq.n	100026fc <PWM_CCU4_lConfigure_Events+0x90>
  {
    XMC_CCU4_SLICE_StopConfig(handle_ptr->ccu4_slice_ptr, handle_ptr->config_ptr->ext_stop_event,
100026e2:	687b      	ldr	r3, [r7, #4]
100026e4:	6898      	ldr	r0, [r3, #8]
100026e6:	687b      	ldr	r3, [r7, #4]
100026e8:	681b      	ldr	r3, [r3, #0]
100026ea:	2222      	movs	r2, #34	; 0x22
100026ec:	5c99      	ldrb	r1, [r3, r2]
                              handle_ptr->config_ptr->ext_stop_mode);
100026ee:	687b      	ldr	r3, [r7, #4]
100026f0:	681b      	ldr	r3, [r3, #0]
  }

  /* External signal can stop the timer */
  if (XMC_CCU4_SLICE_EVENT_NONE != handle_ptr->config_ptr->ext_stop_event)
  {
    XMC_CCU4_SLICE_StopConfig(handle_ptr->ccu4_slice_ptr, handle_ptr->config_ptr->ext_stop_event,
100026f2:	2223      	movs	r2, #35	; 0x23
100026f4:	5c9b      	ldrb	r3, [r3, r2]
100026f6:	1c1a      	adds	r2, r3, #0
100026f8:	f7fe ff9e 	bl	10001638 <XMC_CCU4_SLICE_StopConfig>
                              handle_ptr->config_ptr->ext_stop_mode);
  }

  /* External signal can change the timer counting direction */
  if (XMC_CCU4_SLICE_EVENT_NONE != handle_ptr->config_ptr->ext_count_dir_event)
100026fc:	687b      	ldr	r3, [r7, #4]
100026fe:	681b      	ldr	r3, [r3, #0]
10002700:	2224      	movs	r2, #36	; 0x24
10002702:	5c9b      	ldrb	r3, [r3, r2]
10002704:	2b00      	cmp	r3, #0
10002706:	d009      	beq.n	1000271c <PWM_CCU4_lConfigure_Events+0xb0>
  {
    XMC_CCU4_SLICE_DirectionConfig(handle_ptr->ccu4_slice_ptr, handle_ptr->config_ptr->ext_count_dir_event);
10002708:	687b      	ldr	r3, [r7, #4]
1000270a:	6899      	ldr	r1, [r3, #8]
1000270c:	687b      	ldr	r3, [r7, #4]
1000270e:	681b      	ldr	r3, [r3, #0]
10002710:	2224      	movs	r2, #36	; 0x24
10002712:	5c9b      	ldrb	r3, [r3, r2]
10002714:	1c08      	adds	r0, r1, #0
10002716:	1c19      	adds	r1, r3, #0
10002718:	f7ff f860 	bl	100017dc <XMC_CCU4_SLICE_DirectionConfig>
  }
  /* External signal can stop the timer and the timer value remains same */
  if (XMC_CCU4_SLICE_EVENT_NONE != handle_ptr->config_ptr->ext_gate_event)
1000271c:	687b      	ldr	r3, [r7, #4]
1000271e:	681b      	ldr	r3, [r3, #0]
10002720:	2225      	movs	r2, #37	; 0x25
10002722:	5c9b      	ldrb	r3, [r3, r2]
10002724:	2b00      	cmp	r3, #0
10002726:	d009      	beq.n	1000273c <PWM_CCU4_lConfigure_Events+0xd0>
  {
    XMC_CCU4_SLICE_GateConfig(handle_ptr->ccu4_slice_ptr, handle_ptr->config_ptr->ext_gate_event);
10002728:	687b      	ldr	r3, [r7, #4]
1000272a:	6899      	ldr	r1, [r3, #8]
1000272c:	687b      	ldr	r3, [r7, #4]
1000272e:	681b      	ldr	r3, [r3, #0]
10002730:	2225      	movs	r2, #37	; 0x25
10002732:	5c9b      	ldrb	r3, [r3, r2]
10002734:	1c08      	adds	r0, r1, #0
10002736:	1c19      	adds	r1, r3, #0
10002738:	f7ff f834 	bl	100017a4 <XMC_CCU4_SLICE_GateConfig>
  }
  /* Timer increments on external signal */
  if (XMC_CCU4_SLICE_EVENT_NONE != handle_ptr->config_ptr->ext_count_event)
1000273c:	687b      	ldr	r3, [r7, #4]
1000273e:	681b      	ldr	r3, [r3, #0]
10002740:	2226      	movs	r2, #38	; 0x26
10002742:	5c9b      	ldrb	r3, [r3, r2]
10002744:	2b00      	cmp	r3, #0
10002746:	d009      	beq.n	1000275c <PWM_CCU4_lConfigure_Events+0xf0>
  {
    XMC_CCU4_SLICE_CountConfig(handle_ptr->ccu4_slice_ptr, handle_ptr->config_ptr->ext_count_event);
10002748:	687b      	ldr	r3, [r7, #4]
1000274a:	6899      	ldr	r1, [r3, #8]
1000274c:	687b      	ldr	r3, [r7, #4]
1000274e:	681b      	ldr	r3, [r3, #0]
10002750:	2226      	movs	r2, #38	; 0x26
10002752:	5c9b      	ldrb	r3, [r3, r2]
10002754:	1c08      	adds	r0, r1, #0
10002756:	1c19      	adds	r1, r3, #0
10002758:	f7ff f808 	bl	1000176c <XMC_CCU4_SLICE_CountConfig>
  }
  /* Timer gets loaded with compare register value or period register value on external signal */
  if (XMC_CCU4_SLICE_EVENT_NONE != handle_ptr->config_ptr->ext_load_event)
1000275c:	687b      	ldr	r3, [r7, #4]
1000275e:	681b      	ldr	r3, [r3, #0]
10002760:	2227      	movs	r2, #39	; 0x27
10002762:	5c9b      	ldrb	r3, [r3, r2]
10002764:	2b00      	cmp	r3, #0
10002766:	d009      	beq.n	1000277c <PWM_CCU4_lConfigure_Events+0x110>
  {
    XMC_CCU4_SLICE_LoadConfig(handle_ptr->ccu4_slice_ptr, handle_ptr->config_ptr->ext_load_event);
10002768:	687b      	ldr	r3, [r7, #4]
1000276a:	6899      	ldr	r1, [r3, #8]
1000276c:	687b      	ldr	r3, [r7, #4]
1000276e:	681b      	ldr	r3, [r3, #0]
10002770:	2227      	movs	r2, #39	; 0x27
10002772:	5c9b      	ldrb	r3, [r3, r2]
10002774:	1c08      	adds	r0, r1, #0
10002776:	1c19      	adds	r1, r3, #0
10002778:	f7fe ff90 	bl	1000169c <XMC_CCU4_SLICE_LoadConfig>
  }
  /* External signal PWM signal (ST bit) output gets modulated by external signal */
  if (XMC_CCU4_SLICE_EVENT_NONE != handle_ptr->config_ptr->ext_mod_event)
1000277c:	687b      	ldr	r3, [r7, #4]
1000277e:	681b      	ldr	r3, [r3, #0]
10002780:	2228      	movs	r2, #40	; 0x28
10002782:	5c9b      	ldrb	r3, [r3, r2]
10002784:	2b00      	cmp	r3, #0
10002786:	d010      	beq.n	100027aa <PWM_CCU4_lConfigure_Events+0x13e>
  {
    XMC_CCU4_SLICE_ModulationConfig(handle_ptr->ccu4_slice_ptr, handle_ptr->config_ptr->ext_mod_event,
10002788:	687b      	ldr	r3, [r7, #4]
1000278a:	6898      	ldr	r0, [r3, #8]
1000278c:	687b      	ldr	r3, [r7, #4]
1000278e:	681b      	ldr	r3, [r3, #0]
10002790:	2228      	movs	r2, #40	; 0x28
10002792:	5c99      	ldrb	r1, [r3, r2]
                                    handle_ptr->config_ptr->ext_mod_mode, handle_ptr->config_ptr->ext_mod_sync);
10002794:	687b      	ldr	r3, [r7, #4]
10002796:	681b      	ldr	r3, [r3, #0]
    XMC_CCU4_SLICE_LoadConfig(handle_ptr->ccu4_slice_ptr, handle_ptr->config_ptr->ext_load_event);
  }
  /* External signal PWM signal (ST bit) output gets modulated by external signal */
  if (XMC_CCU4_SLICE_EVENT_NONE != handle_ptr->config_ptr->ext_mod_event)
  {
    XMC_CCU4_SLICE_ModulationConfig(handle_ptr->ccu4_slice_ptr, handle_ptr->config_ptr->ext_mod_event,
10002798:	2229      	movs	r2, #41	; 0x29
1000279a:	5c9c      	ldrb	r4, [r3, r2]
                                    handle_ptr->config_ptr->ext_mod_mode, handle_ptr->config_ptr->ext_mod_sync);
1000279c:	687b      	ldr	r3, [r7, #4]
1000279e:	681b      	ldr	r3, [r3, #0]
    XMC_CCU4_SLICE_LoadConfig(handle_ptr->ccu4_slice_ptr, handle_ptr->config_ptr->ext_load_event);
  }
  /* External signal PWM signal (ST bit) output gets modulated by external signal */
  if (XMC_CCU4_SLICE_EVENT_NONE != handle_ptr->config_ptr->ext_mod_event)
  {
    XMC_CCU4_SLICE_ModulationConfig(handle_ptr->ccu4_slice_ptr, handle_ptr->config_ptr->ext_mod_event,
100027a0:	222a      	movs	r2, #42	; 0x2a
100027a2:	5c9b      	ldrb	r3, [r3, r2]
100027a4:	1c22      	adds	r2, r4, #0
100027a6:	f7fe ff95 	bl	100016d4 <XMC_CCU4_SLICE_ModulationConfig>
                                    handle_ptr->config_ptr->ext_mod_mode, handle_ptr->config_ptr->ext_mod_sync);
  }

  /* PWM signal (ST bit) output gets modulated by external signal */
  if (XMC_CCU4_SLICE_EVENT_2 == handle_ptr->config_ptr->ext_trap_event)
100027aa:	687b      	ldr	r3, [r7, #4]
100027ac:	681b      	ldr	r3, [r3, #0]
100027ae:	222e      	movs	r2, #46	; 0x2e
100027b0:	5c9b      	ldrb	r3, [r3, r2]
100027b2:	2b03      	cmp	r3, #3
100027b4:	d117      	bne.n	100027e6 <PWM_CCU4_lConfigure_Events+0x17a>
  {
    XMC_CCU4_SLICE_TrapConfig(handle_ptr->ccu4_slice_ptr, handle_ptr->config_ptr->ext_trap_exit,
100027b6:	687b      	ldr	r3, [r7, #4]
100027b8:	6898      	ldr	r0, [r3, #8]
100027ba:	687b      	ldr	r3, [r7, #4]
100027bc:	681b      	ldr	r3, [r3, #0]
100027be:	2230      	movs	r2, #48	; 0x30
100027c0:	5c99      	ldrb	r1, [r3, r2]
                              handle_ptr->config_ptr->ext_trap_sync);
100027c2:	687b      	ldr	r3, [r7, #4]
100027c4:	681b      	ldr	r3, [r3, #0]
  }

  /* PWM signal (ST bit) output gets modulated by external signal */
  if (XMC_CCU4_SLICE_EVENT_2 == handle_ptr->config_ptr->ext_trap_event)
  {
    XMC_CCU4_SLICE_TrapConfig(handle_ptr->ccu4_slice_ptr, handle_ptr->config_ptr->ext_trap_exit,
100027c6:	222f      	movs	r2, #47	; 0x2f
100027c8:	5c9b      	ldrb	r3, [r3, r2]
100027ca:	1c1a      	adds	r2, r3, #0
100027cc:	f7ff f83a 	bl	10001844 <XMC_CCU4_SLICE_TrapConfig>
                              handle_ptr->config_ptr->ext_trap_sync);

    if ((bool) true == handle_ptr->config_ptr->ext_trap_enable)
100027d0:	687b      	ldr	r3, [r7, #4]
100027d2:	681b      	ldr	r3, [r3, #0]
100027d4:	222d      	movs	r2, #45	; 0x2d
100027d6:	5c9b      	ldrb	r3, [r3, r2]
100027d8:	2b00      	cmp	r3, #0
100027da:	d004      	beq.n	100027e6 <PWM_CCU4_lConfigure_Events+0x17a>
    {
      XMC_CCU4_SLICE_EnableTrap(handle_ptr->ccu4_slice_ptr);
100027dc:	687b      	ldr	r3, [r7, #4]
100027de:	689b      	ldr	r3, [r3, #8]
100027e0:	1c18      	adds	r0, r3, #0
100027e2:	f7ff fd93 	bl	1000230c <XMC_CCU4_SLICE_EnableTrap>
    }
  }
  if ((XMC_CCU4_SLICE_EVENT_1 == handle_ptr->config_ptr->ext_override_edge_event) && (XMC_CCU4_SLICE_EVENT_2
100027e6:	687b      	ldr	r3, [r7, #4]
100027e8:	681b      	ldr	r3, [r3, #0]
100027ea:	222b      	movs	r2, #43	; 0x2b
100027ec:	5c9b      	ldrb	r3, [r3, r2]
100027ee:	2b02      	cmp	r3, #2
100027f0:	d117      	bne.n	10002822 <PWM_CCU4_lConfigure_Events+0x1b6>
      == handle_ptr->config_ptr->ext_override_level_event))
100027f2:	687b      	ldr	r3, [r7, #4]
100027f4:	681b      	ldr	r3, [r3, #0]
100027f6:	222c      	movs	r2, #44	; 0x2c
100027f8:	5c9b      	ldrb	r3, [r3, r2]
    if ((bool) true == handle_ptr->config_ptr->ext_trap_enable)
    {
      XMC_CCU4_SLICE_EnableTrap(handle_ptr->ccu4_slice_ptr);
    }
  }
  if ((XMC_CCU4_SLICE_EVENT_1 == handle_ptr->config_ptr->ext_override_edge_event) && (XMC_CCU4_SLICE_EVENT_2
100027fa:	2b03      	cmp	r3, #3
100027fc:	d111      	bne.n	10002822 <PWM_CCU4_lConfigure_Events+0x1b6>
      == handle_ptr->config_ptr->ext_override_level_event))
  {
    XMC_CCU4_SLICE_ConfigureStatusBitOverrideEvent(handle_ptr->ccu4_slice_ptr,
100027fe:	687b      	ldr	r3, [r7, #4]
10002800:	6899      	ldr	r1, [r3, #8]
                                                   handle_ptr->config_ptr->event1_config_ptr,
10002802:	687b      	ldr	r3, [r7, #4]
10002804:	681b      	ldr	r3, [r3, #0]
    }
  }
  if ((XMC_CCU4_SLICE_EVENT_1 == handle_ptr->config_ptr->ext_override_edge_event) && (XMC_CCU4_SLICE_EVENT_2
      == handle_ptr->config_ptr->ext_override_level_event))
  {
    XMC_CCU4_SLICE_ConfigureStatusBitOverrideEvent(handle_ptr->ccu4_slice_ptr,
10002806:	699a      	ldr	r2, [r3, #24]
                                                   handle_ptr->config_ptr->event1_config_ptr,
                                                   handle_ptr->config_ptr->event2_config_ptr);
10002808:	687b      	ldr	r3, [r7, #4]
1000280a:	681b      	ldr	r3, [r3, #0]
    }
  }
  if ((XMC_CCU4_SLICE_EVENT_1 == handle_ptr->config_ptr->ext_override_edge_event) && (XMC_CCU4_SLICE_EVENT_2
      == handle_ptr->config_ptr->ext_override_level_event))
  {
    XMC_CCU4_SLICE_ConfigureStatusBitOverrideEvent(handle_ptr->ccu4_slice_ptr,
1000280c:	69db      	ldr	r3, [r3, #28]
1000280e:	1c08      	adds	r0, r1, #0
10002810:	1c11      	adds	r1, r2, #0
10002812:	1c1a      	adds	r2, r3, #0
10002814:	f7ff f85c 	bl	100018d0 <XMC_CCU4_SLICE_ConfigureStatusBitOverrideEvent>
                                                   handle_ptr->config_ptr->event1_config_ptr,
                                                   handle_ptr->config_ptr->event2_config_ptr);
    XMC_CCU4_SLICE_StatusBitOverrideConfig(handle_ptr->ccu4_slice_ptr);
10002818:	687b      	ldr	r3, [r7, #4]
1000281a:	689b      	ldr	r3, [r3, #8]
1000281c:	1c18      	adds	r0, r3, #0
1000281e:	f7fe fff9 	bl	10001814 <XMC_CCU4_SLICE_StatusBitOverrideConfig>
  }

}
10002822:	46bd      	mov	sp, r7
10002824:	b003      	add	sp, #12
10002826:	bd90      	pop	{r4, r7, pc}

10002828 <PWM_CCU4_Start>:
/**********************************************************************************************************/
/*Starts the CCU4_CC4 slice. This needs to be called even if external start is configured.*/
PWM_CCU4_STATUS_t PWM_CCU4_Start(PWM_CCU4_t* handle_ptr)
{
10002828:	b580      	push	{r7, lr}
1000282a:	b084      	sub	sp, #16
1000282c:	af00      	add	r7, sp, #0
1000282e:	6078      	str	r0, [r7, #4]
  PWM_CCU4_STATUS_t status;

  status = PWM_CCU4_STATUS_FAILURE;
10002830:	230f      	movs	r3, #15
10002832:	18fb      	adds	r3, r7, r3
10002834:	2201      	movs	r2, #1
10002836:	701a      	strb	r2, [r3, #0]
  XMC_ASSERT("PWM_CCU4_Start:handle_ptr NULL", (handle_ptr != NULL));
  if ((PWM_CCU4_STATE_INITIALIZED == handle_ptr->state) || (PWM_CCU4_STATE_STOPPED == handle_ptr->state))
10002838:	687b      	ldr	r3, [r7, #4]
1000283a:	7f1b      	ldrb	r3, [r3, #28]
1000283c:	2b01      	cmp	r3, #1
1000283e:	d003      	beq.n	10002848 <PWM_CCU4_Start+0x20>
10002840:	687b      	ldr	r3, [r7, #4]
10002842:	7f1b      	ldrb	r3, [r3, #28]
10002844:	2b03      	cmp	r3, #3
10002846:	d119      	bne.n	1000287c <PWM_CCU4_Start+0x54>
  {
    /* clear IDLE mode for the slice; Start timer */
    XMC_CCU4_EnableClock(handle_ptr->ccu4_module_ptr, handle_ptr->slice_number);
10002848:	687b      	ldr	r3, [r7, #4]
1000284a:	685a      	ldr	r2, [r3, #4]
1000284c:	687b      	ldr	r3, [r7, #4]
1000284e:	7b5b      	ldrb	r3, [r3, #13]
10002850:	1c10      	adds	r0, r2, #0
10002852:	1c19      	adds	r1, r3, #0
10002854:	f7ff fd4a 	bl	100022ec <XMC_CCU4_EnableClock>

    if (XMC_CCU4_SLICE_EVENT_NONE == handle_ptr->config_ptr->ext_start_event)
10002858:	687b      	ldr	r3, [r7, #4]
1000285a:	681b      	ldr	r3, [r3, #0]
1000285c:	2220      	movs	r2, #32
1000285e:	5c9b      	ldrb	r3, [r3, r2]
10002860:	2b00      	cmp	r3, #0
10002862:	d104      	bne.n	1000286e <PWM_CCU4_Start+0x46>
    {
      XMC_CCU4_SLICE_StartTimer(handle_ptr->ccu4_slice_ptr);
10002864:	687b      	ldr	r3, [r7, #4]
10002866:	689b      	ldr	r3, [r3, #8]
10002868:	1c18      	adds	r0, r3, #0
1000286a:	f7ff fd5d 	bl	10002328 <XMC_CCU4_SLICE_StartTimer>
    }

    handle_ptr->state = PWM_CCU4_STATE_RUNNING;
1000286e:	687b      	ldr	r3, [r7, #4]
10002870:	2202      	movs	r2, #2
10002872:	771a      	strb	r2, [r3, #28]
    status = PWM_CCU4_STATUS_SUCCESS;
10002874:	230f      	movs	r3, #15
10002876:	18fb      	adds	r3, r7, r3
10002878:	2200      	movs	r2, #0
1000287a:	701a      	strb	r2, [r3, #0]
    XMC_DEBUG("PWM_CCU4_Start:start PWM");
  }
  return (status);
1000287c:	230f      	movs	r3, #15
1000287e:	18fb      	adds	r3, r7, r3
10002880:	781b      	ldrb	r3, [r3, #0]
} /* end of PWM_CCU4_Start() api */
10002882:	1c18      	adds	r0, r3, #0
10002884:	46bd      	mov	sp, r7
10002886:	b004      	add	sp, #16
10002888:	bd80      	pop	{r7, pc}
1000288a:	46c0      	nop			; (mov r8, r8)

1000288c <PWM_CCU4_SetDutyCycle>:

/**********************************************************************************************************/

/*Sets the duty cycle (uint32_t) for CCU4_CC4 slice. */
PWM_CCU4_STATUS_t PWM_CCU4_SetDutyCycle(PWM_CCU4_t* handle_ptr, uint32_t duty_cycle)
{
1000288c:	b580      	push	{r7, lr}
1000288e:	b086      	sub	sp, #24
10002890:	af00      	add	r7, sp, #0
10002892:	6078      	str	r0, [r7, #4]
10002894:	6039      	str	r1, [r7, #0]
  PWM_CCU4_STATUS_t status;
  uint32_t period;
  uint32_t compare;

  status = PWM_CCU4_STATUS_FAILURE;
10002896:	2317      	movs	r3, #23
10002898:	18fb      	adds	r3, r7, r3
1000289a:	2201      	movs	r2, #1
1000289c:	701a      	strb	r2, [r3, #0]
  XMC_ASSERT("PWM_CCU4_SetDutyCycle:handle_ptr NULL", (handle_ptr != NULL));
  if (PWM_CCU4_STATE_UNINITIALIZED != handle_ptr->state)
1000289e:	687b      	ldr	r3, [r7, #4]
100028a0:	7f1b      	ldrb	r3, [r3, #28]
100028a2:	2b00      	cmp	r3, #0
100028a4:	d02d      	beq.n	10002902 <PWM_CCU4_SetDutyCycle+0x76>
  {
    /* duty cycle has to be in between 0 and 100 */
    if ((duty_cycle > PWM_CCU4_SYM_DUTY_MAX))
100028a6:	683b      	ldr	r3, [r7, #0]
100028a8:	4a19      	ldr	r2, [pc, #100]	; (10002910 <PWM_CCU4_SetDutyCycle+0x84>)
100028aa:	4293      	cmp	r3, r2
100028ac:	d829      	bhi.n	10002902 <PWM_CCU4_SetDutyCycle+0x76>
    {
      XMC_DEBUG("PWM_CCU4_SetDutyCycle:Cannot set duty cycle > 100%%");
    }
    else
    {
      period = (uint32_t) XMC_CCU4_SLICE_GetTimerPeriodMatch(handle_ptr->ccu4_slice_ptr) + 1U;
100028ae:	687b      	ldr	r3, [r7, #4]
100028b0:	689b      	ldr	r3, [r3, #8]
100028b2:	1c18      	adds	r0, r3, #0
100028b4:	f7ff fd50 	bl	10002358 <XMC_CCU4_SLICE_GetTimerPeriodMatch>
100028b8:	1c03      	adds	r3, r0, #0
100028ba:	3301      	adds	r3, #1
100028bc:	613b      	str	r3, [r7, #16]

      /* Duty Cycle(symmetric) = (PR-CR1)+1 / period */
      compare = ((period * (PWM_CCU4_DUTY_FULL_SCALE - duty_cycle)) / PWM_CCU4_DUTY_FULL_SCALE);
100028be:	683b      	ldr	r3, [r7, #0]
100028c0:	4a13      	ldr	r2, [pc, #76]	; (10002910 <PWM_CCU4_SetDutyCycle+0x84>)
100028c2:	1ad3      	subs	r3, r2, r3
100028c4:	693a      	ldr	r2, [r7, #16]
100028c6:	4353      	muls	r3, r2
100028c8:	1c18      	adds	r0, r3, #0
100028ca:	4911      	ldr	r1, [pc, #68]	; (10002910 <PWM_CCU4_SetDutyCycle+0x84>)
100028cc:	f001 f89c 	bl	10003a08 <__aeabi_uidiv>
100028d0:	1c03      	adds	r3, r0, #0
100028d2:	60fb      	str	r3, [r7, #12]

      XMC_CCU4_SLICE_SetTimerCompareMatch(handle_ptr->ccu4_slice_ptr, (uint16_t) compare);
100028d4:	687b      	ldr	r3, [r7, #4]
100028d6:	689a      	ldr	r2, [r3, #8]
100028d8:	68fb      	ldr	r3, [r7, #12]
100028da:	b29b      	uxth	r3, r3
100028dc:	1c10      	adds	r0, r2, #0
100028de:	1c19      	adds	r1, r3, #0
100028e0:	f7ff fd46 	bl	10002370 <XMC_CCU4_SLICE_SetTimerCompareMatch>
      XMC_CCU4_EnableShadowTransfer(handle_ptr->ccu4_module_ptr, handle_ptr->shadow_txfr_msk);
100028e4:	687b      	ldr	r3, [r7, #4]
100028e6:	685a      	ldr	r2, [r3, #4]
100028e8:	687b      	ldr	r3, [r7, #4]
100028ea:	691b      	ldr	r3, [r3, #16]
100028ec:	1c10      	adds	r0, r2, #0
100028ee:	1c19      	adds	r1, r3, #0
100028f0:	f7ff fd4c 	bl	1000238c <XMC_CCU4_EnableShadowTransfer>

      handle_ptr->sym_duty = duty_cycle;
100028f4:	687b      	ldr	r3, [r7, #4]
100028f6:	683a      	ldr	r2, [r7, #0]
100028f8:	625a      	str	r2, [r3, #36]	; 0x24

      XMC_DEBUG("PWM_CCU4_SetDutyCycle:dutycycle set");
      status = PWM_CCU4_STATUS_SUCCESS;
100028fa:	2317      	movs	r3, #23
100028fc:	18fb      	adds	r3, r7, r3
100028fe:	2200      	movs	r2, #0
10002900:	701a      	strb	r2, [r3, #0]
    }
  }
  return (status);
10002902:	2317      	movs	r3, #23
10002904:	18fb      	adds	r3, r7, r3
10002906:	781b      	ldrb	r3, [r3, #0]
} /* end of PWM_CCU4_SetDutyCycle() api */
10002908:	1c18      	adds	r0, r3, #0
1000290a:	46bd      	mov	sp, r7
1000290c:	b006      	add	sp, #24
1000290e:	bd80      	pop	{r7, pc}
10002910:	00002710 	.word	0x00002710

10002914 <XMC_CCU4_StartPrescaler>:
 * \par<b>Related APIs:</b><br>
 * XMC_CCU4_Init()<BR> XMC_CCU4_EnableClock()<BR> XMC_CCU4_DisableClock()<BR> XMC_CCU4_StartPrescaler()<BR>
 * XMC_CCU4_StopPrescaler().
 */
__STATIC_INLINE void XMC_CCU4_StartPrescaler(XMC_CCU4_MODULE_t *const module)
{
10002914:	b580      	push	{r7, lr}
10002916:	b082      	sub	sp, #8
10002918:	af00      	add	r7, sp, #0
1000291a:	6078      	str	r0, [r7, #4]
  XMC_ASSERT("XMC_CCU4_StartPrescaler:Invalid Module Pointer", XMC_CCU4_IsValidModule(module));
  module->GIDLC = (uint32_t) CCU4_GIDLC_SPRB_Msk;
1000291c:	687b      	ldr	r3, [r7, #4]
1000291e:	2280      	movs	r2, #128	; 0x80
10002920:	0052      	lsls	r2, r2, #1
10002922:	60da      	str	r2, [r3, #12]
}
10002924:	46bd      	mov	sp, r7
10002926:	b002      	add	sp, #8
10002928:	bd80      	pop	{r7, pc}
1000292a:	46c0      	nop			; (mov r8, r8)

1000292c <GLOBAL_CCU4_Init>:
  return version;
}

/* Initializes the slice with the generated configuration */
GLOBAL_CCU4_STATUS_t GLOBAL_CCU4_Init(GLOBAL_CCU4_t* handle)
{
1000292c:	b580      	push	{r7, lr}
1000292e:	b082      	sub	sp, #8
10002930:	af00      	add	r7, sp, #0
10002932:	6078      	str	r0, [r7, #4]
  XMC_ASSERT("GLOBAL_CCU4_Init:NULL handler", (NULL != handle));

  if (false == handle->is_initialized)
10002934:	687b      	ldr	r3, [r7, #4]
10002936:	7b5b      	ldrb	r3, [r3, #13]
10002938:	2201      	movs	r2, #1
1000293a:	4053      	eors	r3, r2
1000293c:	b2db      	uxtb	r3, r3
1000293e:	2b00      	cmp	r3, #0
10002940:	d00f      	beq.n	10002962 <GLOBAL_CCU4_Init+0x36>
  {
    /* Enable CCU4 module */
    XMC_CCU4_Init(handle->module_ptr,handle->mcs_action);
10002942:	687b      	ldr	r3, [r7, #4]
10002944:	689a      	ldr	r2, [r3, #8]
10002946:	687b      	ldr	r3, [r7, #4]
10002948:	7b1b      	ldrb	r3, [r3, #12]
1000294a:	1c10      	adds	r0, r2, #0
1000294c:	1c19      	adds	r1, r3, #0
1000294e:	f7fe fdcd 	bl	100014ec <XMC_CCU4_Init>
    /* Start the prescaler */
    XMC_CCU4_StartPrescaler(handle->module_ptr);
10002952:	687b      	ldr	r3, [r7, #4]
10002954:	689b      	ldr	r3, [r3, #8]
10002956:	1c18      	adds	r0, r3, #0
10002958:	f7ff ffdc 	bl	10002914 <XMC_CCU4_StartPrescaler>
    /* Restricts multiple initializations */
    handle->is_initialized = true;
1000295c:	687b      	ldr	r3, [r7, #4]
1000295e:	2201      	movs	r2, #1
10002960:	735a      	strb	r2, [r3, #13]
  }

  return (GLOBAL_CCU4_STATUS_SUCCESS);
10002962:	2300      	movs	r3, #0
}
10002964:	1c18      	adds	r0, r3, #0
10002966:	46bd      	mov	sp, r7
10002968:	b002      	add	sp, #8
1000296a:	bd80      	pop	{r7, pc}

1000296c <XMC_VADC_GLOBAL_SHS_SetAnalogReference>:
 * \par<b>Related APIs:</b><BR>
 * None.
 */
__STATIC_INLINE void XMC_VADC_GLOBAL_SHS_SetAnalogReference(XMC_VADC_GLOBAL_SHS_t *const shs_ptr,
    const XMC_VADC_GLOBAL_SHS_AREF_t aref)
{
1000296c:	b580      	push	{r7, lr}
1000296e:	b082      	sub	sp, #8
10002970:	af00      	add	r7, sp, #0
10002972:	6078      	str	r0, [r7, #4]
10002974:	1c0a      	adds	r2, r1, #0
10002976:	1cbb      	adds	r3, r7, #2
10002978:	801a      	strh	r2, [r3, #0]
  XMC_ASSERT("XMC_VADC_GLOBAL_SHS_StepperInit:Wrong SHS Pointer",
             (shs_ptr == (XMC_VADC_GLOBAL_SHS_t *)(void *)SHS0))

  shs_ptr->SHSCFG = (shs_ptr->SHSCFG & (uint32_t)~SHS_SHSCFG_AREF_Msk) | (uint32_t)aref | SHS_SHSCFG_SCWC_Msk;
1000297a:	687b      	ldr	r3, [r7, #4]
1000297c:	6c1b      	ldr	r3, [r3, #64]	; 0x40
1000297e:	4a06      	ldr	r2, [pc, #24]	; (10002998 <XMC_VADC_GLOBAL_SHS_SetAnalogReference+0x2c>)
10002980:	401a      	ands	r2, r3
10002982:	1cbb      	adds	r3, r7, #2
10002984:	881b      	ldrh	r3, [r3, #0]
10002986:	4313      	orrs	r3, r2
10002988:	2280      	movs	r2, #128	; 0x80
1000298a:	0212      	lsls	r2, r2, #8
1000298c:	431a      	orrs	r2, r3
1000298e:	687b      	ldr	r3, [r7, #4]
10002990:	641a      	str	r2, [r3, #64]	; 0x40
}
10002992:	46bd      	mov	sp, r7
10002994:	b002      	add	sp, #8
10002996:	bd80      	pop	{r7, pc}
10002998:	fffff3ff 	.word	0xfffff3ff

1000299c <GLOBAL_ADC_Init>:
/*~~~~~~~~~~~~~~~~~~~~~~~~~~~~~~~~~~~~~~~~~~~~~~~~~~~~~~~~~~~~~~~~~~~~~~~~~~~~~~~~~~~~~~~~~~~~~~~~~~~~~~~~~~~~~~~~~~*/
/**
 * This function initializes all instances of the ADC Global APP and low level app.
 */
GLOBAL_ADC_STATUS_t GLOBAL_ADC_Init(GLOBAL_ADC_t *const handle_ptr)
{
1000299c:	b580      	push	{r7, lr}
1000299e:	b082      	sub	sp, #8
100029a0:	af00      	add	r7, sp, #0
100029a2:	6078      	str	r0, [r7, #4]
  XMC_ASSERT("GLOBAL_ADC_Init:Invalid handle_ptr", (handle_ptr != NULL));
#if (XMC_VADC_GROUP_AVAILABLE == 1U)
  uint32_t group_index;
#endif

  if (GLOBAL_ADC_UNINITIALIZED == handle_ptr->init_state)
100029a4:	687b      	ldr	r3, [r7, #4]
100029a6:	7c1b      	ldrb	r3, [r3, #16]
100029a8:	2b02      	cmp	r3, #2
100029aa:	d119      	bne.n	100029e0 <GLOBAL_ADC_Init+0x44>
  {  
    /* Initialize an instance of Global hardware */
    XMC_VADC_GLOBAL_Init(handle_ptr->module_ptr, handle_ptr->global_config_handle);
100029ac:	687b      	ldr	r3, [r7, #4]
100029ae:	685a      	ldr	r2, [r3, #4]
100029b0:	687b      	ldr	r3, [r7, #4]
100029b2:	681b      	ldr	r3, [r3, #0]
100029b4:	1c10      	adds	r0, r2, #0
100029b6:	1c19      	adds	r1, r3, #0
100029b8:	f7ff f908 	bl	10001bcc <XMC_VADC_GLOBAL_Init>
#if(XMC_VADC_SHS_AVAILABLE == 1U)
    XMC_VADC_GLOBAL_SHS_SetClockDivider(handle_ptr->global_shs_ptr, (uint8_t) GLOBAL_ADC_DIVS_VALUE);
#endif
#endif /* _XMC_VADC_GROUP_AVAILABLE_ */
#if(XMC_VADC_SHS_AVAILABLE == 1U)
    XMC_VADC_GLOBAL_SHS_SetAnalogReference(handle_ptr->global_shs_ptr, GLOBAL_ADC_AREF_VALUE);
100029bc:	687b      	ldr	r3, [r7, #4]
100029be:	689b      	ldr	r3, [r3, #8]
100029c0:	1c18      	adds	r0, r3, #0
100029c2:	2100      	movs	r1, #0
100029c4:	f7ff ffd2 	bl	1000296c <XMC_VADC_GLOBAL_SHS_SetAnalogReference>
#endif
    if((bool)true == handle_ptr->enable_startup_calibration)
100029c8:	687b      	ldr	r3, [r7, #4]
100029ca:	7c5b      	ldrb	r3, [r3, #17]
100029cc:	2b00      	cmp	r3, #0
100029ce:	d004      	beq.n	100029da <GLOBAL_ADC_Init+0x3e>
    {
    	XMC_VADC_GLOBAL_StartupCalibration(handle_ptr->module_ptr);
100029d0:	687b      	ldr	r3, [r7, #4]
100029d2:	685b      	ldr	r3, [r3, #4]
100029d4:	1c18      	adds	r0, r3, #0
100029d6:	f7ff f943 	bl	10001c60 <XMC_VADC_GLOBAL_StartupCalibration>
    }
    handle_ptr->init_state = GLOBAL_ADC_SUCCESS;
100029da:	687b      	ldr	r3, [r7, #4]
100029dc:	2200      	movs	r2, #0
100029de:	741a      	strb	r2, [r3, #16]
  }
  return (handle_ptr->init_state);
100029e0:	687b      	ldr	r3, [r7, #4]
100029e2:	7c1b      	ldrb	r3, [r3, #16]
}
100029e4:	1c18      	adds	r0, r3, #0
100029e6:	46bd      	mov	sp, r7
100029e8:	b002      	add	sp, #8
100029ea:	bd80      	pop	{r7, pc}

100029ec <DIGITAL_IO_Init>:
* @param handler Pointer pointing to APP data structure.
* @return DIGITAL_IO_STATUS_t DIGITAL_IO APP status.
*/

DIGITAL_IO_STATUS_t DIGITAL_IO_Init(const DIGITAL_IO_t *const handler)
{
100029ec:	b580      	push	{r7, lr}
100029ee:	b082      	sub	sp, #8
100029f0:	af00      	add	r7, sp, #0
100029f2:	6078      	str	r0, [r7, #4]
  XMC_ASSERT("DIGITAL_IO_Init: handler null pointer", handler != NULL);

  /* Initializes input / output characteristics */
  XMC_GPIO_Init(handler->gpio_port, handler->gpio_pin, &handler->gpio_config);
100029f4:	687b      	ldr	r3, [r7, #4]
100029f6:	6819      	ldr	r1, [r3, #0]
100029f8:	687b      	ldr	r3, [r7, #4]
100029fa:	7b1a      	ldrb	r2, [r3, #12]
100029fc:	687b      	ldr	r3, [r7, #4]
100029fe:	3304      	adds	r3, #4
10002a00:	1c08      	adds	r0, r1, #0
10002a02:	1c11      	adds	r1, r2, #0
10002a04:	1c1a      	adds	r2, r3, #0
10002a06:	f7fe fb85 	bl	10001114 <XMC_GPIO_Init>

  /*Configure hardware port control*/
  XMC_GPIO_SetHardwareControl(handler->gpio_port, handler->gpio_pin, handler->hwctrl);
10002a0a:	687b      	ldr	r3, [r7, #4]
10002a0c:	6819      	ldr	r1, [r3, #0]
10002a0e:	687b      	ldr	r3, [r7, #4]
10002a10:	7b1a      	ldrb	r2, [r3, #12]
10002a12:	687b      	ldr	r3, [r7, #4]
10002a14:	7b5b      	ldrb	r3, [r3, #13]
10002a16:	1c08      	adds	r0, r1, #0
10002a18:	1c11      	adds	r1, r2, #0
10002a1a:	1c1a      	adds	r2, r3, #0
10002a1c:	f7ff f8a8 	bl	10001b70 <XMC_GPIO_SetHardwareControl>

  return (DIGITAL_IO_STATUS_OK);
10002a20:	2300      	movs	r3, #0
}
10002a22:	1c18      	adds	r0, r3, #0
10002a24:	46bd      	mov	sp, r7
10002a26:	b002      	add	sp, #8
10002a28:	bd80      	pop	{r7, pc}
10002a2a:	46c0      	nop			; (mov r8, r8)

10002a2c <SystemCoreSetup>:
{
  .initialized = false
};
 
void SystemCoreSetup(void)
{
10002a2c:	b580      	push	{r7, lr}
10002a2e:	af00      	add	r7, sp, #0
#if UC_SERIES == XMC14
  /* Enable Prefetch unit */
  SCU_GENERAL->PFUCR &= ~SCU_GENERAL_PFUCR_PFUBYP_Msk;
#endif
}
10002a30:	46bd      	mov	sp, r7
10002a32:	bd80      	pop	{r7, pc}

10002a34 <CLOCK_XMC1_Init>:

/*
 * API to initialize the CLOCK_XMC1 APP Interrupts
 */
CLOCK_XMC1_STATUS_t CLOCK_XMC1_Init(CLOCK_XMC1_t *handle)
{
10002a34:	b580      	push	{r7, lr}
10002a36:	b084      	sub	sp, #16
10002a38:	af00      	add	r7, sp, #0
10002a3a:	6078      	str	r0, [r7, #4]
  CLOCK_XMC1_STATUS_t status = CLOCK_XMC1_STATUS_SUCCESS;
10002a3c:	230f      	movs	r3, #15
10002a3e:	18fb      	adds	r3, r7, r3
10002a40:	2200      	movs	r2, #0
10002a42:	701a      	strb	r2, [r3, #0]
  CLOCK_XMC1_STATUS_t loci_event_status = CLOCK_XMC1_STATUS_SUCCESS;
10002a44:	230e      	movs	r3, #14
10002a46:	18fb      	adds	r3, r7, r3
10002a48:	2200      	movs	r2, #0
10002a4a:	701a      	strb	r2, [r3, #0]
  CLOCK_XMC1_STATUS_t stdbyclkfail_status = CLOCK_XMC1_STATUS_SUCCESS;
10002a4c:	230d      	movs	r3, #13
10002a4e:	18fb      	adds	r3, r7, r3
10002a50:	2200      	movs	r2, #0
10002a52:	701a      	strb	r2, [r3, #0]
  CLOCK_XMC1_STATUS_t loss_ext_clock_event_status = CLOCK_XMC1_STATUS_SUCCESS;
10002a54:	230c      	movs	r3, #12
10002a56:	18fb      	adds	r3, r7, r3
10002a58:	2200      	movs	r2, #0
10002a5a:	701a      	strb	r2, [r3, #0]
  CLOCK_XMC1_STATUS_t dco1_out_sync_status = CLOCK_XMC1_STATUS_SUCCESS;
10002a5c:	230b      	movs	r3, #11
10002a5e:	18fb      	adds	r3, r7, r3
10002a60:	2200      	movs	r2, #0
10002a62:	701a      	strb	r2, [r3, #0]

  XMC_ASSERT("CLOCK_XMC1_Init: CLOCK_XMC1 APP handle pointer uninitialized", (handle != NULL));

  if (handle->init_status == false)
10002a64:	687b      	ldr	r3, [r7, #4]
10002a66:	781b      	ldrb	r3, [r3, #0]
10002a68:	2201      	movs	r2, #1
10002a6a:	4053      	eors	r3, r2
10002a6c:	b2db      	uxtb	r3, r3
10002a6e:	2b00      	cmp	r3, #0
10002a70:	d01b      	beq.n	10002aaa <CLOCK_XMC1_Init+0x76>

#endif
    }

#endif
    status = (CLOCK_XMC1_STATUS_t)(((uint32_t)loci_event_status) | ((uint32_t)stdbyclkfail_status) |
10002a72:	230e      	movs	r3, #14
10002a74:	18fa      	adds	r2, r7, r3
10002a76:	230d      	movs	r3, #13
10002a78:	18fb      	adds	r3, r7, r3
10002a7a:	7812      	ldrb	r2, [r2, #0]
10002a7c:	781b      	ldrb	r3, [r3, #0]
10002a7e:	4313      	orrs	r3, r2
10002a80:	b2da      	uxtb	r2, r3
10002a82:	230c      	movs	r3, #12
10002a84:	18fb      	adds	r3, r7, r3
10002a86:	781b      	ldrb	r3, [r3, #0]
10002a88:	4313      	orrs	r3, r2
10002a8a:	b2d9      	uxtb	r1, r3
10002a8c:	230f      	movs	r3, #15
10002a8e:	18fb      	adds	r3, r7, r3
10002a90:	220b      	movs	r2, #11
10002a92:	18ba      	adds	r2, r7, r2
10002a94:	7812      	ldrb	r2, [r2, #0]
10002a96:	430a      	orrs	r2, r1
10002a98:	701a      	strb	r2, [r3, #0]
    		                       ((uint32_t)loss_ext_clock_event_status) | ((uint32_t)dco1_out_sync_status));
    if (CLOCK_XMC1_STATUS_SUCCESS == status)
10002a9a:	230f      	movs	r3, #15
10002a9c:	18fb      	adds	r3, r7, r3
10002a9e:	781b      	ldrb	r3, [r3, #0]
10002aa0:	2b00      	cmp	r3, #0
10002aa2:	d102      	bne.n	10002aaa <CLOCK_XMC1_Init+0x76>
    {
      handle->init_status = true;
10002aa4:	687b      	ldr	r3, [r7, #4]
10002aa6:	2201      	movs	r2, #1
10002aa8:	701a      	strb	r2, [r3, #0]
    }
  }
  return (status);
10002aaa:	230f      	movs	r3, #15
10002aac:	18fb      	adds	r3, r7, r3
10002aae:	781b      	ldrb	r3, [r3, #0]
}
10002ab0:	1c18      	adds	r0, r3, #0
10002ab2:	46bd      	mov	sp, r7
10002ab4:	b004      	add	sp, #16
10002ab6:	bd80      	pop	{r7, pc}

10002ab8 <SystemCoreClockSetup>:

/**********************************************************************************************************************
* API IMPLEMENTATION
**********************************************************************************************************************/
void SystemCoreClockSetup(void)
{
10002ab8:	b590      	push	{r4, r7, lr}
10002aba:	b085      	sub	sp, #20
10002abc:	af00      	add	r7, sp, #0
/* LOCAL DATA STRUCTURES */
const XMC_SCU_CLOCK_CONFIG_t CLOCK_XMC1_0_CONFIG =
10002abe:	1d3b      	adds	r3, r7, #4
10002ac0:	4a04      	ldr	r2, [pc, #16]	; (10002ad4 <SystemCoreClockSetup+0x1c>)
10002ac2:	ca13      	ldmia	r2!, {r0, r1, r4}
10002ac4:	c313      	stmia	r3!, {r0, r1, r4}
  .idiv = 1U,  /**< 8 Bit integer divider */

};

  /* Configure FDIV, IDIV, PCLKSEL dividers*/
  XMC_SCU_CLOCK_Init(&CLOCK_XMC1_0_CONFIG);
10002ac6:	1d3b      	adds	r3, r7, #4
10002ac8:	1c18      	adds	r0, r3, #0
10002aca:	f7fe fbfb 	bl	100012c4 <XMC_SCU_CLOCK_Init>
}
10002ace:	46bd      	mov	sp, r7
10002ad0:	b005      	add	sp, #20
10002ad2:	bd90      	pop	{r4, r7, pc}
10002ad4:	100076ac 	.word	0x100076ac

10002ad8 <__NVIC_EnableIRQ>:
  \details Enables a device specific interrupt in the NVIC interrupt controller.
  \param [in]      IRQn  Device specific interrupt number.
  \note    IRQn must not be negative.
 */
__STATIC_INLINE void __NVIC_EnableIRQ(IRQn_Type IRQn)
{
10002ad8:	b580      	push	{r7, lr}
10002ada:	b082      	sub	sp, #8
10002adc:	af00      	add	r7, sp, #0
10002ade:	1c02      	adds	r2, r0, #0
10002ae0:	1dfb      	adds	r3, r7, #7
10002ae2:	701a      	strb	r2, [r3, #0]
  if ((int32_t)(IRQn) >= 0)
10002ae4:	1dfb      	adds	r3, r7, #7
10002ae6:	781b      	ldrb	r3, [r3, #0]
10002ae8:	2b7f      	cmp	r3, #127	; 0x7f
10002aea:	d809      	bhi.n	10002b00 <__NVIC_EnableIRQ+0x28>
  {
    __COMPILER_BARRIER();
    NVIC->ISER[0U] = (uint32_t)(1UL << (((uint32_t)IRQn) & 0x1FUL));
10002aec:	4b06      	ldr	r3, [pc, #24]	; (10002b08 <__NVIC_EnableIRQ+0x30>)
10002aee:	1dfa      	adds	r2, r7, #7
10002af0:	7812      	ldrb	r2, [r2, #0]
10002af2:	1c11      	adds	r1, r2, #0
10002af4:	221f      	movs	r2, #31
10002af6:	400a      	ands	r2, r1
10002af8:	2101      	movs	r1, #1
10002afa:	4091      	lsls	r1, r2
10002afc:	1c0a      	adds	r2, r1, #0
10002afe:	601a      	str	r2, [r3, #0]
    __COMPILER_BARRIER();
  }
}
10002b00:	46bd      	mov	sp, r7
10002b02:	b002      	add	sp, #8
10002b04:	bd80      	pop	{r7, pc}
10002b06:	46c0      	nop			; (mov r8, r8)
10002b08:	e000e100 	.word	0xe000e100

10002b0c <__NVIC_SetPriority>:
  \param [in]      IRQn  Interrupt number.
  \param [in]  priority  Priority to set.
  \note    The priority cannot be set for every processor exception.
 */
__STATIC_INLINE void __NVIC_SetPriority(IRQn_Type IRQn, uint32_t priority)
{
10002b0c:	b5b0      	push	{r4, r5, r7, lr}
10002b0e:	b082      	sub	sp, #8
10002b10:	af00      	add	r7, sp, #0
10002b12:	1c02      	adds	r2, r0, #0
10002b14:	6039      	str	r1, [r7, #0]
10002b16:	1dfb      	adds	r3, r7, #7
10002b18:	701a      	strb	r2, [r3, #0]
  if ((int32_t)(IRQn) >= 0)
10002b1a:	1dfb      	adds	r3, r7, #7
10002b1c:	781b      	ldrb	r3, [r3, #0]
10002b1e:	2b7f      	cmp	r3, #127	; 0x7f
10002b20:	d827      	bhi.n	10002b72 <__NVIC_SetPriority+0x66>
  {
    NVIC->IP[_IP_IDX(IRQn)]  = ((uint32_t)(NVIC->IP[_IP_IDX(IRQn)]  & ~(0xFFUL << _BIT_SHIFT(IRQn))) |
10002b22:	4c2d      	ldr	r4, [pc, #180]	; (10002bd8 <__NVIC_SetPriority+0xcc>)
10002b24:	1dfb      	adds	r3, r7, #7
10002b26:	781b      	ldrb	r3, [r3, #0]
10002b28:	b25b      	sxtb	r3, r3
10002b2a:	089b      	lsrs	r3, r3, #2
10002b2c:	492a      	ldr	r1, [pc, #168]	; (10002bd8 <__NVIC_SetPriority+0xcc>)
10002b2e:	1dfa      	adds	r2, r7, #7
10002b30:	7812      	ldrb	r2, [r2, #0]
10002b32:	b252      	sxtb	r2, r2
10002b34:	0892      	lsrs	r2, r2, #2
10002b36:	32c0      	adds	r2, #192	; 0xc0
10002b38:	0092      	lsls	r2, r2, #2
10002b3a:	5852      	ldr	r2, [r2, r1]
10002b3c:	1df9      	adds	r1, r7, #7
10002b3e:	7809      	ldrb	r1, [r1, #0]
10002b40:	1c08      	adds	r0, r1, #0
10002b42:	2103      	movs	r1, #3
10002b44:	4001      	ands	r1, r0
10002b46:	00c9      	lsls	r1, r1, #3
10002b48:	1c08      	adds	r0, r1, #0
10002b4a:	21ff      	movs	r1, #255	; 0xff
10002b4c:	4081      	lsls	r1, r0
10002b4e:	43c9      	mvns	r1, r1
10002b50:	4011      	ands	r1, r2
       (((priority << (8U - __NVIC_PRIO_BITS)) & (uint32_t)0xFFUL) << _BIT_SHIFT(IRQn)));
10002b52:	683a      	ldr	r2, [r7, #0]
10002b54:	0192      	lsls	r2, r2, #6
10002b56:	20ff      	movs	r0, #255	; 0xff
10002b58:	4002      	ands	r2, r0
10002b5a:	1df8      	adds	r0, r7, #7
10002b5c:	7800      	ldrb	r0, [r0, #0]
10002b5e:	1c05      	adds	r5, r0, #0
10002b60:	2003      	movs	r0, #3
10002b62:	4028      	ands	r0, r5
10002b64:	00c0      	lsls	r0, r0, #3
10002b66:	4082      	lsls	r2, r0
 */
__STATIC_INLINE void __NVIC_SetPriority(IRQn_Type IRQn, uint32_t priority)
{
  if ((int32_t)(IRQn) >= 0)
  {
    NVIC->IP[_IP_IDX(IRQn)]  = ((uint32_t)(NVIC->IP[_IP_IDX(IRQn)]  & ~(0xFFUL << _BIT_SHIFT(IRQn))) |
10002b68:	430a      	orrs	r2, r1
10002b6a:	33c0      	adds	r3, #192	; 0xc0
10002b6c:	009b      	lsls	r3, r3, #2
10002b6e:	511a      	str	r2, [r3, r4]
10002b70:	e02e      	b.n	10002bd0 <__NVIC_SetPriority+0xc4>
       (((priority << (8U - __NVIC_PRIO_BITS)) & (uint32_t)0xFFUL) << _BIT_SHIFT(IRQn)));
  }
  else
  {
    SCB->SHP[_SHP_IDX(IRQn)] = ((uint32_t)(SCB->SHP[_SHP_IDX(IRQn)] & ~(0xFFUL << _BIT_SHIFT(IRQn))) |
10002b72:	4c1a      	ldr	r4, [pc, #104]	; (10002bdc <__NVIC_SetPriority+0xd0>)
10002b74:	1dfb      	adds	r3, r7, #7
10002b76:	781b      	ldrb	r3, [r3, #0]
10002b78:	1c1a      	adds	r2, r3, #0
10002b7a:	230f      	movs	r3, #15
10002b7c:	4013      	ands	r3, r2
10002b7e:	3b08      	subs	r3, #8
10002b80:	0899      	lsrs	r1, r3, #2
10002b82:	4a16      	ldr	r2, [pc, #88]	; (10002bdc <__NVIC_SetPriority+0xd0>)
10002b84:	1dfb      	adds	r3, r7, #7
10002b86:	781b      	ldrb	r3, [r3, #0]
10002b88:	1c18      	adds	r0, r3, #0
10002b8a:	230f      	movs	r3, #15
10002b8c:	4003      	ands	r3, r0
10002b8e:	3b08      	subs	r3, #8
10002b90:	089b      	lsrs	r3, r3, #2
10002b92:	3306      	adds	r3, #6
10002b94:	009b      	lsls	r3, r3, #2
10002b96:	18d3      	adds	r3, r2, r3
10002b98:	685b      	ldr	r3, [r3, #4]
10002b9a:	1dfa      	adds	r2, r7, #7
10002b9c:	7812      	ldrb	r2, [r2, #0]
10002b9e:	1c10      	adds	r0, r2, #0
10002ba0:	2203      	movs	r2, #3
10002ba2:	4002      	ands	r2, r0
10002ba4:	00d2      	lsls	r2, r2, #3
10002ba6:	1c10      	adds	r0, r2, #0
10002ba8:	22ff      	movs	r2, #255	; 0xff
10002baa:	4082      	lsls	r2, r0
10002bac:	43d2      	mvns	r2, r2
10002bae:	401a      	ands	r2, r3
       (((priority << (8U - __NVIC_PRIO_BITS)) & (uint32_t)0xFFUL) << _BIT_SHIFT(IRQn)));
10002bb0:	683b      	ldr	r3, [r7, #0]
10002bb2:	019b      	lsls	r3, r3, #6
10002bb4:	20ff      	movs	r0, #255	; 0xff
10002bb6:	4003      	ands	r3, r0
10002bb8:	1df8      	adds	r0, r7, #7
10002bba:	7800      	ldrb	r0, [r0, #0]
10002bbc:	1c05      	adds	r5, r0, #0
10002bbe:	2003      	movs	r0, #3
10002bc0:	4028      	ands	r0, r5
10002bc2:	00c0      	lsls	r0, r0, #3
10002bc4:	4083      	lsls	r3, r0
    NVIC->IP[_IP_IDX(IRQn)]  = ((uint32_t)(NVIC->IP[_IP_IDX(IRQn)]  & ~(0xFFUL << _BIT_SHIFT(IRQn))) |
       (((priority << (8U - __NVIC_PRIO_BITS)) & (uint32_t)0xFFUL) << _BIT_SHIFT(IRQn)));
  }
  else
  {
    SCB->SHP[_SHP_IDX(IRQn)] = ((uint32_t)(SCB->SHP[_SHP_IDX(IRQn)] & ~(0xFFUL << _BIT_SHIFT(IRQn))) |
10002bc6:	431a      	orrs	r2, r3
10002bc8:	1d8b      	adds	r3, r1, #6
10002bca:	009b      	lsls	r3, r3, #2
10002bcc:	18e3      	adds	r3, r4, r3
10002bce:	605a      	str	r2, [r3, #4]
       (((priority << (8U - __NVIC_PRIO_BITS)) & (uint32_t)0xFFUL) << _BIT_SHIFT(IRQn)));
  }
}
10002bd0:	46bd      	mov	sp, r7
10002bd2:	b002      	add	sp, #8
10002bd4:	bdb0      	pop	{r4, r5, r7, pc}
10002bd6:	46c0      	nop			; (mov r8, r8)
10002bd8:	e000e100 	.word	0xe000e100
10002bdc:	e000ed00 	.word	0xe000ed00

10002be0 <XMC_VADC_GLOBAL_ResultInit>:
 * None
 *
 */

__STATIC_INLINE void XMC_VADC_GLOBAL_ResultInit(XMC_VADC_GLOBAL_t *const global_ptr, const XMC_VADC_RESULT_CONFIG_t *config)
{
10002be0:	b580      	push	{r7, lr}
10002be2:	b082      	sub	sp, #8
10002be4:	af00      	add	r7, sp, #0
10002be6:	6078      	str	r0, [r7, #4]
10002be8:	6039      	str	r1, [r7, #0]
  XMC_ASSERT("XMC_VADC_GLOBAL_ResultInit:Wrong Module Pointer", (global_ptr == VADC))

  /* Configure GLOBRCR*/
  global_ptr->GLOBRCR = config->g_rcr;
10002bea:	683b      	ldr	r3, [r7, #0]
10002bec:	6819      	ldr	r1, [r3, #0]
10002bee:	687a      	ldr	r2, [r7, #4]
10002bf0:	23a0      	movs	r3, #160	; 0xa0
10002bf2:	009b      	lsls	r3, r3, #2
10002bf4:	50d1      	str	r1, [r2, r3]
}
10002bf6:	46bd      	mov	sp, r7
10002bf8:	b002      	add	sp, #8
10002bfa:	bd80      	pop	{r7, pc}

10002bfc <XMC_VADC_GLOBAL_BackgroundTriggerConversion>:
 *
 * \par<b>Related APIs:</b><br>
 *  None.
 */
__STATIC_INLINE void XMC_VADC_GLOBAL_BackgroundTriggerConversion(XMC_VADC_GLOBAL_t *const global_ptr)
{
10002bfc:	b580      	push	{r7, lr}
10002bfe:	b082      	sub	sp, #8
10002c00:	af00      	add	r7, sp, #0
10002c02:	6078      	str	r0, [r7, #4]
  XMC_ASSERT("XMC_VADC_GLOBAL_BackgroundTriggerConversion:Wrong Module Pointer", (global_ptr == VADC))
  global_ptr->BRSMR |= (uint32_t)VADC_BRSMR_LDEV_Msk;
10002c04:	687a      	ldr	r2, [r7, #4]
10002c06:	2381      	movs	r3, #129	; 0x81
10002c08:	009b      	lsls	r3, r3, #2
10002c0a:	58d3      	ldr	r3, [r2, r3]
10002c0c:	2280      	movs	r2, #128	; 0x80
10002c0e:	0092      	lsls	r2, r2, #2
10002c10:	431a      	orrs	r2, r3
10002c12:	1c11      	adds	r1, r2, #0
10002c14:	687a      	ldr	r2, [r7, #4]
10002c16:	2381      	movs	r3, #129	; 0x81
10002c18:	009b      	lsls	r3, r3, #2
10002c1a:	50d1      	str	r1, [r2, r3]
}
10002c1c:	46bd      	mov	sp, r7
10002c1e:	b002      	add	sp, #8
10002c20:	bd80      	pop	{r7, pc}
10002c22:	46c0      	nop			; (mov r8, r8)

10002c24 <XMC_VADC_GLOBAL_BackgroundAddChannelToSequence>:
 *  XMC_VADC_GLOBAL_BackgroundAddMultipleChannels()<BR>
 */
__STATIC_INLINE void XMC_VADC_GLOBAL_BackgroundAddChannelToSequence(XMC_VADC_GLOBAL_t *const global_ptr,
    const uint32_t grp_num,
    const uint32_t ch_num)
{
10002c24:	b580      	push	{r7, lr}
10002c26:	b084      	sub	sp, #16
10002c28:	af00      	add	r7, sp, #0
10002c2a:	60f8      	str	r0, [r7, #12]
10002c2c:	60b9      	str	r1, [r7, #8]
10002c2e:	607a      	str	r2, [r7, #4]
  XMC_ASSERT("XMC_VADC_GLOBAL_BackgroundAddChannelToSequence:Wrong Module Pointer", (global_ptr == VADC))
  XMC_ASSERT("XMC_VADC_GLOBAL_BackgroundAddChannelToSequence:Wrong Group Number", ((grp_num) < XMC_VADC_MAXIMUM_NUM_GROUPS))
  XMC_ASSERT("XMC_VADC_GLOBAL_BackgroundAddChannelToSequence:Wrong Channel Number",
             ((ch_num) < XMC_VADC_NUM_CHANNELS_PER_GROUP))

  global_ptr->BRSSEL[grp_num] |= (uint32_t)((uint32_t)1 << ch_num);
10002c30:	68fb      	ldr	r3, [r7, #12]
10002c32:	68ba      	ldr	r2, [r7, #8]
10002c34:	3260      	adds	r2, #96	; 0x60
10002c36:	0092      	lsls	r2, r2, #2
10002c38:	58d2      	ldr	r2, [r2, r3]
10002c3a:	687b      	ldr	r3, [r7, #4]
10002c3c:	2101      	movs	r1, #1
10002c3e:	4099      	lsls	r1, r3
10002c40:	1c0b      	adds	r3, r1, #0
10002c42:	431a      	orrs	r2, r3
10002c44:	1c11      	adds	r1, r2, #0
10002c46:	68fb      	ldr	r3, [r7, #12]
10002c48:	68ba      	ldr	r2, [r7, #8]
10002c4a:	3260      	adds	r2, #96	; 0x60
10002c4c:	0092      	lsls	r2, r2, #2
10002c4e:	50d1      	str	r1, [r2, r3]
}
10002c50:	46bd      	mov	sp, r7
10002c52:	b004      	add	sp, #16
10002c54:	bd80      	pop	{r7, pc}
10002c56:	46c0      	nop			; (mov r8, r8)

10002c58 <ADC_MEASUREMENT_Init>:
}

/*~~~~~~~~~~~~~~~~~~~~~~~~~~~~~~~~~~~~~~~~~~~~~~~~~~~~~~~~~~~~~~~~~~~~~~~~~~~~~~~~~~~~~~~~~~~~~~~~~~~~~~~~~~~~~~~~~~~*/
/* Initialization routine to call ADC LLD API's */
ADC_MEASUREMENT_STATUS_t ADC_MEASUREMENT_Init(ADC_MEASUREMENT_t *const handle_ptr)
{
10002c58:	b590      	push	{r4, r7, lr}
10002c5a:	b085      	sub	sp, #20
10002c5c:	af00      	add	r7, sp, #0
10002c5e:	6078      	str	r0, [r7, #4]
  uint8_t j;
  ADC_MEASUREMENT_STATUS_t status;

  XMC_ASSERT("ADC_MEASUREMENT_Init:Invalid handle_ptr", (handle_ptr != NULL));

  if (ADC_MEASUREMENT_STATUS_UNINITIALIZED == handle_ptr->init_state)
10002c60:	687b      	ldr	r3, [r7, #4]
10002c62:	7e1b      	ldrb	r3, [r3, #24]
10002c64:	2b02      	cmp	r3, #2
10002c66:	d000      	beq.n	10002c6a <ADC_MEASUREMENT_Init+0x12>
10002c68:	e08b      	b.n	10002d82 <ADC_MEASUREMENT_Init+0x12a>
  {
    /* Call the function to initialise Clock and ADC global functional units*/
    status = (ADC_MEASUREMENT_STATUS_t) GLOBAL_ADC_Init(handle_ptr->global_handle);
10002c6a:	687b      	ldr	r3, [r7, #4]
10002c6c:	68db      	ldr	r3, [r3, #12]
10002c6e:	220e      	movs	r2, #14
10002c70:	18bc      	adds	r4, r7, r2
10002c72:	1c18      	adds	r0, r3, #0
10002c74:	f7ff fe92 	bl	1000299c <GLOBAL_ADC_Init>
10002c78:	1c03      	adds	r3, r0, #0
10002c7a:	7023      	strb	r3, [r4, #0]
  
    /*Initialize the Global Conversion class 0*/
    XMC_VADC_GLOBAL_InputClassInit(handle_ptr->global_handle->module_ptr,*handle_ptr->iclass_config_handle,
10002c7c:	687b      	ldr	r3, [r7, #4]
10002c7e:	68db      	ldr	r3, [r3, #12]
10002c80:	685a      	ldr	r2, [r3, #4]
10002c82:	687b      	ldr	r3, [r7, #4]
10002c84:	689b      	ldr	r3, [r3, #8]
10002c86:	681b      	ldr	r3, [r3, #0]
10002c88:	1c10      	adds	r0, r2, #0
10002c8a:	1c19      	adds	r1, r3, #0
10002c8c:	2200      	movs	r2, #0
10002c8e:	2300      	movs	r3, #0
10002c90:	f7fe ffd0 	bl	10001c34 <XMC_VADC_GLOBAL_InputClassInit>
                                      XMC_VADC_GROUP_CONV_STD,ADC_MEASUREMENT_ICLASS_NUM);
#if (UC_SERIES == XMC11)
    /*Initialize the Global Conversion class 1*/
    XMC_VADC_GLOBAL_InputClassInit(handle_ptr->global_handle->module_ptr,*handle_ptr->iclass_config_handle,
10002c94:	687b      	ldr	r3, [r7, #4]
10002c96:	68db      	ldr	r3, [r3, #12]
10002c98:	685a      	ldr	r2, [r3, #4]
10002c9a:	687b      	ldr	r3, [r7, #4]
10002c9c:	689b      	ldr	r3, [r3, #8]
10002c9e:	681b      	ldr	r3, [r3, #0]
10002ca0:	1c10      	adds	r0, r2, #0
10002ca2:	1c19      	adds	r1, r3, #0
10002ca4:	2200      	movs	r2, #0
10002ca6:	2301      	movs	r3, #1
10002ca8:	f7fe ffc4 	bl	10001c34 <XMC_VADC_GLOBAL_InputClassInit>
                                      XMC_VADC_GROUP_CONV_STD,ADC_MEASUREMENT_ICLASS_NUM_XMC11);
#endif
  
    /* Initialize the Background Scan hardware */
    XMC_VADC_GLOBAL_BackgroundInit(handle_ptr->global_handle->module_ptr, handle_ptr->backgnd_config_handle);
10002cac:	687b      	ldr	r3, [r7, #4]
10002cae:	68db      	ldr	r3, [r3, #12]
10002cb0:	685a      	ldr	r2, [r3, #4]
10002cb2:	687b      	ldr	r3, [r7, #4]
10002cb4:	685b      	ldr	r3, [r3, #4]
10002cb6:	1c10      	adds	r0, r2, #0
10002cb8:	1c19      	adds	r1, r3, #0
10002cba:	f7ff f821 	bl	10001d00 <XMC_VADC_GLOBAL_BackgroundInit>
  
#if (XMC_VADC_GROUP_AVAILABLE == 0U)
    /* Initialize the global result register */
    XMC_VADC_GLOBAL_ResultInit(handle_ptr->global_handle->module_ptr,handle_ptr->array->res_handle);
10002cbe:	687b      	ldr	r3, [r7, #4]
10002cc0:	68db      	ldr	r3, [r3, #12]
10002cc2:	685a      	ldr	r2, [r3, #4]
10002cc4:	687b      	ldr	r3, [r7, #4]
10002cc6:	681b      	ldr	r3, [r3, #0]
10002cc8:	685b      	ldr	r3, [r3, #4]
10002cca:	1c10      	adds	r0, r2, #0
10002ccc:	1c19      	adds	r1, r3, #0
10002cce:	f7ff ff87 	bl	10002be0 <XMC_VADC_GLOBAL_ResultInit>
#endif

    for (j = (uint8_t)0; j < (uint8_t)ADC_MEASUREMENT_MAXCHANNELS; j++)
10002cd2:	230f      	movs	r3, #15
10002cd4:	18fb      	adds	r3, r7, r3
10002cd6:	2200      	movs	r2, #0
10002cd8:	701a      	strb	r2, [r3, #0]
10002cda:	e01a      	b.n	10002d12 <ADC_MEASUREMENT_Init+0xba>
    {
      indexed = handle_ptr->array->channel_array[j];
10002cdc:	687b      	ldr	r3, [r7, #4]
10002cde:	681b      	ldr	r3, [r3, #0]
10002ce0:	220f      	movs	r2, #15
10002ce2:	18ba      	adds	r2, r7, r2
10002ce4:	7812      	ldrb	r2, [r2, #0]
10002ce6:	0092      	lsls	r2, r2, #2
10002ce8:	58d3      	ldr	r3, [r2, r3]
10002cea:	60bb      	str	r3, [r7, #8]
      /* Initialize for configured result registers */
      XMC_VADC_GROUP_ResultInit(indexed->group_handle, (uint32_t)indexed->ch_handle->result_reg_number,
                                indexed->res_handle);
#endif
      /* Add all channels into the Background Request Source Channel Select Register */
      XMC_VADC_GLOBAL_BackgroundAddChannelToSequence(handle_ptr->global_handle->module_ptr,
10002cec:	687b      	ldr	r3, [r7, #4]
10002cee:	68db      	ldr	r3, [r3, #12]
10002cf0:	685a      	ldr	r2, [r3, #4]
                                                     (uint32_t)indexed->group_index, (uint32_t)indexed->ch_num);
10002cf2:	68bb      	ldr	r3, [r7, #8]
10002cf4:	781b      	ldrb	r3, [r3, #0]
      /* Initialize for configured result registers */
      XMC_VADC_GROUP_ResultInit(indexed->group_handle, (uint32_t)indexed->ch_handle->result_reg_number,
                                indexed->res_handle);
#endif
      /* Add all channels into the Background Request Source Channel Select Register */
      XMC_VADC_GLOBAL_BackgroundAddChannelToSequence(handle_ptr->global_handle->module_ptr,
10002cf6:	1c19      	adds	r1, r3, #0
                                                     (uint32_t)indexed->group_index, (uint32_t)indexed->ch_num);
10002cf8:	68bb      	ldr	r3, [r7, #8]
10002cfa:	785b      	ldrb	r3, [r3, #1]
      /* Initialize for configured result registers */
      XMC_VADC_GROUP_ResultInit(indexed->group_handle, (uint32_t)indexed->ch_handle->result_reg_number,
                                indexed->res_handle);
#endif
      /* Add all channels into the Background Request Source Channel Select Register */
      XMC_VADC_GLOBAL_BackgroundAddChannelToSequence(handle_ptr->global_handle->module_ptr,
10002cfc:	1c10      	adds	r0, r2, #0
10002cfe:	1c1a      	adds	r2, r3, #0
10002d00:	f7ff ff90 	bl	10002c24 <XMC_VADC_GLOBAL_BackgroundAddChannelToSequence>
#if (XMC_VADC_GROUP_AVAILABLE == 0U)
    /* Initialize the global result register */
    XMC_VADC_GLOBAL_ResultInit(handle_ptr->global_handle->module_ptr,handle_ptr->array->res_handle);
#endif

    for (j = (uint8_t)0; j < (uint8_t)ADC_MEASUREMENT_MAXCHANNELS; j++)
10002d04:	230f      	movs	r3, #15
10002d06:	18fb      	adds	r3, r7, r3
10002d08:	781a      	ldrb	r2, [r3, #0]
10002d0a:	230f      	movs	r3, #15
10002d0c:	18fb      	adds	r3, r7, r3
10002d0e:	3201      	adds	r2, #1
10002d10:	701a      	strb	r2, [r3, #0]
10002d12:	230f      	movs	r3, #15
10002d14:	18fb      	adds	r3, r7, r3
10002d16:	781b      	ldrb	r3, [r3, #0]
10002d18:	2b00      	cmp	r3, #0
10002d1a:	d0df      	beq.n	10002cdc <ADC_MEASUREMENT_Init+0x84>
  XMC_SCU_SetInterruptControl(handle_ptr->req_src_intr_handle->node_id,
                              ((handle_ptr->req_src_intr_handle->node_id << 8) | handle_ptr->req_src_intr_handle->irqctrl));
#endif
    }
#else /* Selected device is XMC11*/
    XMC_VADC_GLOBAL_SetResultEventInterruptNode(handle_ptr->global_handle->module_ptr, handle_ptr->srv_req_node );
10002d1c:	687b      	ldr	r3, [r7, #4]
10002d1e:	68db      	ldr	r3, [r3, #12]
10002d20:	685a      	ldr	r2, [r3, #4]
10002d22:	687b      	ldr	r3, [r7, #4]
10002d24:	7e5b      	ldrb	r3, [r3, #25]
10002d26:	1c10      	adds	r0, r2, #0
10002d28:	1c19      	adds	r1, r3, #0
10002d2a:	f7fe ffb9 	bl	10001ca0 <XMC_VADC_GLOBAL_SetResultEventInterruptNode>
#ifdef ADC_MEASUREMENT_CPU_1X /* End of single measurement is enabled*/
    NVIC_SetPriority((IRQn_Type)handle_ptr->result_intr_handle->node_id,
10002d2e:	687b      	ldr	r3, [r7, #4]
10002d30:	691b      	ldr	r3, [r3, #16]
10002d32:	681b      	ldr	r3, [r3, #0]
10002d34:	b2da      	uxtb	r2, r3
                            handle_ptr->result_intr_handle->priority);
10002d36:	687b      	ldr	r3, [r7, #4]
10002d38:	691b      	ldr	r3, [r3, #16]
#endif
    }
#else /* Selected device is XMC11*/
    XMC_VADC_GLOBAL_SetResultEventInterruptNode(handle_ptr->global_handle->module_ptr, handle_ptr->srv_req_node );
#ifdef ADC_MEASUREMENT_CPU_1X /* End of single measurement is enabled*/
    NVIC_SetPriority((IRQn_Type)handle_ptr->result_intr_handle->node_id,
10002d3a:	685b      	ldr	r3, [r3, #4]
10002d3c:	b252      	sxtb	r2, r2
10002d3e:	1c10      	adds	r0, r2, #0
10002d40:	1c19      	adds	r1, r3, #0
10002d42:	f7ff fee3 	bl	10002b0c <__NVIC_SetPriority>
                            handle_ptr->result_intr_handle->priority);

    /* Enable Background Scan Request source IRQ */
    NVIC_EnableIRQ((IRQn_Type)handle_ptr->result_intr_handle->node_id);
10002d46:	687b      	ldr	r3, [r7, #4]
10002d48:	691b      	ldr	r3, [r3, #16]
10002d4a:	681b      	ldr	r3, [r3, #0]
10002d4c:	b2db      	uxtb	r3, r3
10002d4e:	b25b      	sxtb	r3, r3
10002d50:	1c18      	adds	r0, r3, #0
10002d52:	f7ff fec1 	bl	10002ad8 <__NVIC_EnableIRQ>
#endif
#endif
    /* Mux Configuration is done*/
    if (handle_ptr->mux_config != NULL)
10002d56:	687b      	ldr	r3, [r7, #4]
10002d58:	695b      	ldr	r3, [r3, #20]
10002d5a:	2b00      	cmp	r3, #0
10002d5c:	d002      	beq.n	10002d64 <ADC_MEASUREMENT_Init+0x10c>
    {
      (handle_ptr->mux_config)();
10002d5e:	687b      	ldr	r3, [r7, #4]
10002d60:	695b      	ldr	r3, [r3, #20]
10002d62:	4798      	blx	r3
    }
  
    if (handle_ptr->start_conversion != (bool)false)
10002d64:	687b      	ldr	r3, [r7, #4]
10002d66:	7e9b      	ldrb	r3, [r3, #26]
10002d68:	2b00      	cmp	r3, #0
10002d6a:	d005      	beq.n	10002d78 <ADC_MEASUREMENT_Init+0x120>
    {
      /* Start conversion manually using load event trigger*/
      XMC_VADC_GLOBAL_BackgroundTriggerConversion(handle_ptr->global_handle->module_ptr);
10002d6c:	687b      	ldr	r3, [r7, #4]
10002d6e:	68db      	ldr	r3, [r3, #12]
10002d70:	685b      	ldr	r3, [r3, #4]
10002d72:	1c18      	adds	r0, r3, #0
10002d74:	f7ff ff42 	bl	10002bfc <XMC_VADC_GLOBAL_BackgroundTriggerConversion>
    }
    handle_ptr->init_state = status;
10002d78:	687b      	ldr	r3, [r7, #4]
10002d7a:	220e      	movs	r2, #14
10002d7c:	18ba      	adds	r2, r7, r2
10002d7e:	7812      	ldrb	r2, [r2, #0]
10002d80:	761a      	strb	r2, [r3, #24]
  }
  return (handle_ptr->init_state);
10002d82:	687b      	ldr	r3, [r7, #4]
10002d84:	7e1b      	ldrb	r3, [r3, #24]
}
10002d86:	1c18      	adds	r0, r3, #0
10002d88:	46bd      	mov	sp, r7
10002d8a:	b005      	add	sp, #20
10002d8c:	bd90      	pop	{r4, r7, pc}
10002d8e:	46c0      	nop			; (mov r8, r8)

10002d90 <ADC_MEASUREMENT_StartConversion>:
/*~~~~~~~~~~~~~~~~~~~~~~~~~~~~~~~~~~~~~~~~~~~~~~~~~~~~~~~~~~~~~~~~~~~~~~~~~~~~~~~~~~~~~~~~~~~~~~~~~~~~~~~~~~~~~~~~~~~*/

/* This API will Software trigger ADC Background request source and starts conversion*/
void ADC_MEASUREMENT_StartConversion(ADC_MEASUREMENT_t *const handle_ptr)
{
10002d90:	b580      	push	{r7, lr}
10002d92:	b082      	sub	sp, #8
10002d94:	af00      	add	r7, sp, #0
10002d96:	6078      	str	r0, [r7, #4]
  XMC_ASSERT("ADC_MEASUREMENT_Start:Invalid handle_ptr", (handle_ptr != NULL));

  /* Generate a load event to start background request source conversion*/
  XMC_VADC_GLOBAL_BackgroundTriggerConversion(handle_ptr->global_handle->module_ptr);
10002d98:	687b      	ldr	r3, [r7, #4]
10002d9a:	68db      	ldr	r3, [r3, #12]
10002d9c:	685b      	ldr	r3, [r3, #4]
10002d9e:	1c18      	adds	r0, r3, #0
10002da0:	f7ff ff2c 	bl	10002bfc <XMC_VADC_GLOBAL_BackgroundTriggerConversion>
}
10002da4:	46bd      	mov	sp, r7
10002da6:	b002      	add	sp, #8
10002da8:	bd80      	pop	{r7, pc}
10002daa:	46c0      	nop			; (mov r8, r8)

10002dac <DAVE_Init>:
 * @param[in]  None
 *
 * @return  DAVE_STATUS_t <BR>
 ******************************************************************************/
__WEAK DAVE_STATUS_t DAVE_Init(void)
{
10002dac:	b590      	push	{r4, r7, lr}
10002dae:	b083      	sub	sp, #12
10002db0:	af00      	add	r7, sp, #0
  DAVE_STATUS_t init_status;
  
  init_status = DAVE_STATUS_SUCCESS;
10002db2:	1dfb      	adds	r3, r7, #7
10002db4:	2200      	movs	r2, #0
10002db6:	701a      	strb	r2, [r3, #0]
     /** @Initialization of APPs Init Functions */
     init_status = (DAVE_STATUS_t)CLOCK_XMC1_Init(&CLOCK_XMC1_0);
10002db8:	1dfc      	adds	r4, r7, #7
10002dba:	4b53      	ldr	r3, [pc, #332]	; (10002f08 <DAVE_Init+0x15c>)
10002dbc:	1c18      	adds	r0, r3, #0
10002dbe:	f7ff fe39 	bl	10002a34 <CLOCK_XMC1_Init>
10002dc2:	1c03      	adds	r3, r0, #0
10002dc4:	7023      	strb	r3, [r4, #0]

  if (init_status == DAVE_STATUS_SUCCESS)
10002dc6:	1dfb      	adds	r3, r7, #7
10002dc8:	781b      	ldrb	r3, [r3, #0]
10002dca:	2b00      	cmp	r3, #0
10002dcc:	d106      	bne.n	10002ddc <DAVE_Init+0x30>
  {
	 /**  Initialization of ADC_MEASUREMENT APP instance ADC_SENSOR */
	 init_status = (DAVE_STATUS_t)ADC_MEASUREMENT_Init(&ADC_SENSOR); 
10002dce:	1dfc      	adds	r4, r7, #7
10002dd0:	4b4e      	ldr	r3, [pc, #312]	; (10002f0c <DAVE_Init+0x160>)
10002dd2:	1c18      	adds	r0, r3, #0
10002dd4:	f7ff ff40 	bl	10002c58 <ADC_MEASUREMENT_Init>
10002dd8:	1c03      	adds	r3, r0, #0
10002dda:	7023      	strb	r3, [r4, #0]
   } 
  if (init_status == DAVE_STATUS_SUCCESS)
10002ddc:	1dfb      	adds	r3, r7, #7
10002dde:	781b      	ldrb	r3, [r3, #0]
10002de0:	2b00      	cmp	r3, #0
10002de2:	d106      	bne.n	10002df2 <DAVE_Init+0x46>
  {
	 /**  Initialization of DIGITAL_IO APP instance IO_USB_SI */
	 init_status = (DAVE_STATUS_t)DIGITAL_IO_Init(&IO_USB_SI); 
10002de4:	1dfc      	adds	r4, r7, #7
10002de6:	4b4a      	ldr	r3, [pc, #296]	; (10002f10 <DAVE_Init+0x164>)
10002de8:	1c18      	adds	r0, r3, #0
10002dea:	f7ff fdff 	bl	100029ec <DIGITAL_IO_Init>
10002dee:	1c03      	adds	r3, r0, #0
10002df0:	7023      	strb	r3, [r4, #0]
   } 
  if (init_status == DAVE_STATUS_SUCCESS)
10002df2:	1dfb      	adds	r3, r7, #7
10002df4:	781b      	ldrb	r3, [r3, #0]
10002df6:	2b00      	cmp	r3, #0
10002df8:	d106      	bne.n	10002e08 <DAVE_Init+0x5c>
  {
	 /**  Initialization of DIGITAL_IO APP instance IO_USB_OE */
	 init_status = (DAVE_STATUS_t)DIGITAL_IO_Init(&IO_USB_OE); 
10002dfa:	1dfc      	adds	r4, r7, #7
10002dfc:	4b45      	ldr	r3, [pc, #276]	; (10002f14 <DAVE_Init+0x168>)
10002dfe:	1c18      	adds	r0, r3, #0
10002e00:	f7ff fdf4 	bl	100029ec <DIGITAL_IO_Init>
10002e04:	1c03      	adds	r3, r0, #0
10002e06:	7023      	strb	r3, [r4, #0]
   } 
  if (init_status == DAVE_STATUS_SUCCESS)
10002e08:	1dfb      	adds	r3, r7, #7
10002e0a:	781b      	ldrb	r3, [r3, #0]
10002e0c:	2b00      	cmp	r3, #0
10002e0e:	d106      	bne.n	10002e1e <DAVE_Init+0x72>
  {
	 /**  Initialization of DIGITAL_IO APP instance IO_LED_R_STATUS */
	 init_status = (DAVE_STATUS_t)DIGITAL_IO_Init(&IO_LED_R_STATUS); 
10002e10:	1dfc      	adds	r4, r7, #7
10002e12:	4b41      	ldr	r3, [pc, #260]	; (10002f18 <DAVE_Init+0x16c>)
10002e14:	1c18      	adds	r0, r3, #0
10002e16:	f7ff fde9 	bl	100029ec <DIGITAL_IO_Init>
10002e1a:	1c03      	adds	r3, r0, #0
10002e1c:	7023      	strb	r3, [r4, #0]
   } 
  if (init_status == DAVE_STATUS_SUCCESS)
10002e1e:	1dfb      	adds	r3, r7, #7
10002e20:	781b      	ldrb	r3, [r3, #0]
10002e22:	2b00      	cmp	r3, #0
10002e24:	d106      	bne.n	10002e34 <DAVE_Init+0x88>
  {
	 /**  Initialization of DIGITAL_IO APP instance IO_SW_USB */
	 init_status = (DAVE_STATUS_t)DIGITAL_IO_Init(&IO_SW_USB); 
10002e26:	1dfc      	adds	r4, r7, #7
10002e28:	4b3c      	ldr	r3, [pc, #240]	; (10002f1c <DAVE_Init+0x170>)
10002e2a:	1c18      	adds	r0, r3, #0
10002e2c:	f7ff fdde 	bl	100029ec <DIGITAL_IO_Init>
10002e30:	1c03      	adds	r3, r0, #0
10002e32:	7023      	strb	r3, [r4, #0]
   } 
  if (init_status == DAVE_STATUS_SUCCESS)
10002e34:	1dfb      	adds	r3, r7, #7
10002e36:	781b      	ldrb	r3, [r3, #0]
10002e38:	2b00      	cmp	r3, #0
10002e3a:	d106      	bne.n	10002e4a <DAVE_Init+0x9e>
  {
	 /**  Initialization of DIGITAL_IO APP instance IO_SW_UP */
	 init_status = (DAVE_STATUS_t)DIGITAL_IO_Init(&IO_SW_UP); 
10002e3c:	1dfc      	adds	r4, r7, #7
10002e3e:	4b38      	ldr	r3, [pc, #224]	; (10002f20 <DAVE_Init+0x174>)
10002e40:	1c18      	adds	r0, r3, #0
10002e42:	f7ff fdd3 	bl	100029ec <DIGITAL_IO_Init>
10002e46:	1c03      	adds	r3, r0, #0
10002e48:	7023      	strb	r3, [r4, #0]
   } 
  if (init_status == DAVE_STATUS_SUCCESS)
10002e4a:	1dfb      	adds	r3, r7, #7
10002e4c:	781b      	ldrb	r3, [r3, #0]
10002e4e:	2b00      	cmp	r3, #0
10002e50:	d106      	bne.n	10002e60 <DAVE_Init+0xb4>
  {
	 /**  Initialization of DIGITAL_IO APP instance IO_SW_DOWN */
	 init_status = (DAVE_STATUS_t)DIGITAL_IO_Init(&IO_SW_DOWN); 
10002e52:	1dfc      	adds	r4, r7, #7
10002e54:	4b33      	ldr	r3, [pc, #204]	; (10002f24 <DAVE_Init+0x178>)
10002e56:	1c18      	adds	r0, r3, #0
10002e58:	f7ff fdc8 	bl	100029ec <DIGITAL_IO_Init>
10002e5c:	1c03      	adds	r3, r0, #0
10002e5e:	7023      	strb	r3, [r4, #0]
   } 
  if (init_status == DAVE_STATUS_SUCCESS)
10002e60:	1dfb      	adds	r3, r7, #7
10002e62:	781b      	ldrb	r3, [r3, #0]
10002e64:	2b00      	cmp	r3, #0
10002e66:	d106      	bne.n	10002e76 <DAVE_Init+0xca>
  {
	 /**  Initialization of DIGITAL_IO APP instance IO_USBPWR_2 */
	 init_status = (DAVE_STATUS_t)DIGITAL_IO_Init(&IO_USBPWR_2); 
10002e68:	1dfc      	adds	r4, r7, #7
10002e6a:	4b2f      	ldr	r3, [pc, #188]	; (10002f28 <DAVE_Init+0x17c>)
10002e6c:	1c18      	adds	r0, r3, #0
10002e6e:	f7ff fdbd 	bl	100029ec <DIGITAL_IO_Init>
10002e72:	1c03      	adds	r3, r0, #0
10002e74:	7023      	strb	r3, [r4, #0]
   } 
  if (init_status == DAVE_STATUS_SUCCESS)
10002e76:	1dfb      	adds	r3, r7, #7
10002e78:	781b      	ldrb	r3, [r3, #0]
10002e7a:	2b00      	cmp	r3, #0
10002e7c:	d106      	bne.n	10002e8c <DAVE_Init+0xe0>
  {
	 /**  Initialization of DIGITAL_IO APP instance IO_USBPWR_1 */
	 init_status = (DAVE_STATUS_t)DIGITAL_IO_Init(&IO_USBPWR_1); 
10002e7e:	1dfc      	adds	r4, r7, #7
10002e80:	4b2a      	ldr	r3, [pc, #168]	; (10002f2c <DAVE_Init+0x180>)
10002e82:	1c18      	adds	r0, r3, #0
10002e84:	f7ff fdb2 	bl	100029ec <DIGITAL_IO_Init>
10002e88:	1c03      	adds	r3, r0, #0
10002e8a:	7023      	strb	r3, [r4, #0]
   } 
  if (init_status == DAVE_STATUS_SUCCESS)
10002e8c:	1dfb      	adds	r3, r7, #7
10002e8e:	781b      	ldrb	r3, [r3, #0]
10002e90:	2b00      	cmp	r3, #0
10002e92:	d106      	bne.n	10002ea2 <DAVE_Init+0xf6>
  {
	 /**  Initialization of DIGITAL_IO APP instance IO_RELAY */
	 init_status = (DAVE_STATUS_t)DIGITAL_IO_Init(&IO_RELAY); 
10002e94:	1dfc      	adds	r4, r7, #7
10002e96:	4b26      	ldr	r3, [pc, #152]	; (10002f30 <DAVE_Init+0x184>)
10002e98:	1c18      	adds	r0, r3, #0
10002e9a:	f7ff fda7 	bl	100029ec <DIGITAL_IO_Init>
10002e9e:	1c03      	adds	r3, r0, #0
10002ea0:	7023      	strb	r3, [r4, #0]
   } 
  if (init_status == DAVE_STATUS_SUCCESS)
10002ea2:	1dfb      	adds	r3, r7, #7
10002ea4:	781b      	ldrb	r3, [r3, #0]
10002ea6:	2b00      	cmp	r3, #0
10002ea8:	d106      	bne.n	10002eb8 <DAVE_Init+0x10c>
  {
	 /**  Initialization of DIGITAL_IO APP instance IO_LED_USB2 */
	 init_status = (DAVE_STATUS_t)DIGITAL_IO_Init(&IO_LED_USB2); 
10002eaa:	1dfc      	adds	r4, r7, #7
10002eac:	4b21      	ldr	r3, [pc, #132]	; (10002f34 <DAVE_Init+0x188>)
10002eae:	1c18      	adds	r0, r3, #0
10002eb0:	f7ff fd9c 	bl	100029ec <DIGITAL_IO_Init>
10002eb4:	1c03      	adds	r3, r0, #0
10002eb6:	7023      	strb	r3, [r4, #0]
   } 
  if (init_status == DAVE_STATUS_SUCCESS)
10002eb8:	1dfb      	adds	r3, r7, #7
10002eba:	781b      	ldrb	r3, [r3, #0]
10002ebc:	2b00      	cmp	r3, #0
10002ebe:	d106      	bne.n	10002ece <DAVE_Init+0x122>
  {
	 /**  Initialization of DIGITAL_IO APP instance IO_LED_USB1 */
	 init_status = (DAVE_STATUS_t)DIGITAL_IO_Init(&IO_LED_USB1); 
10002ec0:	1dfc      	adds	r4, r7, #7
10002ec2:	4b1d      	ldr	r3, [pc, #116]	; (10002f38 <DAVE_Init+0x18c>)
10002ec4:	1c18      	adds	r0, r3, #0
10002ec6:	f7ff fd91 	bl	100029ec <DIGITAL_IO_Init>
10002eca:	1c03      	adds	r3, r0, #0
10002ecc:	7023      	strb	r3, [r4, #0]
   } 
  if (init_status == DAVE_STATUS_SUCCESS)
10002ece:	1dfb      	adds	r3, r7, #7
10002ed0:	781b      	ldrb	r3, [r3, #0]
10002ed2:	2b00      	cmp	r3, #0
10002ed4:	d106      	bne.n	10002ee4 <DAVE_Init+0x138>
  {
	 /**  Initialization of SYSTIMER APP instance SYSTIMER_0 */
	 init_status = (DAVE_STATUS_t)SYSTIMER_Init(&SYSTIMER_0); 
10002ed6:	1dfc      	adds	r4, r7, #7
10002ed8:	4b18      	ldr	r3, [pc, #96]	; (10002f3c <DAVE_Init+0x190>)
10002eda:	1c18      	adds	r0, r3, #0
10002edc:	f7ff f9be 	bl	1000225c <SYSTIMER_Init>
10002ee0:	1c03      	adds	r3, r0, #0
10002ee2:	7023      	strb	r3, [r4, #0]
   } 
  if (init_status == DAVE_STATUS_SUCCESS)
10002ee4:	1dfb      	adds	r3, r7, #7
10002ee6:	781b      	ldrb	r3, [r3, #0]
10002ee8:	2b00      	cmp	r3, #0
10002eea:	d106      	bne.n	10002efa <DAVE_Init+0x14e>
  {
	 /**  Initialization of PWM_CCU4 APP instance PWM_CCU4_LED_STATUS */
	 init_status = (DAVE_STATUS_t)PWM_CCU4_Init(&PWM_CCU4_LED_STATUS); 
10002eec:	1dfc      	adds	r4, r7, #7
10002eee:	4b14      	ldr	r3, [pc, #80]	; (10002f40 <DAVE_Init+0x194>)
10002ef0:	1c18      	adds	r0, r3, #0
10002ef2:	f7ff fa6d 	bl	100023d0 <PWM_CCU4_Init>
10002ef6:	1c03      	adds	r3, r0, #0
10002ef8:	7023      	strb	r3, [r4, #0]
   }  
  return init_status;
10002efa:	1dfb      	adds	r3, r7, #7
10002efc:	781b      	ldrb	r3, [r3, #0]
} /**  End of function DAVE_Init */
10002efe:	1c18      	adds	r0, r3, #0
10002f00:	46bd      	mov	sp, r7
10002f02:	b003      	add	sp, #12
10002f04:	bd90      	pop	{r4, r7, pc}
10002f06:	46c0      	nop			; (mov r8, r8)
10002f08:	2000065c 	.word	0x2000065c
10002f0c:	20000578 	.word	0x20000578
10002f10:	100075fc 	.word	0x100075fc
10002f14:	1000760c 	.word	0x1000760c
10002f18:	1000761c 	.word	0x1000761c
10002f1c:	1000762c 	.word	0x1000762c
10002f20:	1000763c 	.word	0x1000763c
10002f24:	1000764c 	.word	0x1000764c
10002f28:	1000765c 	.word	0x1000765c
10002f2c:	1000766c 	.word	0x1000766c
10002f30:	1000767c 	.word	0x1000767c
10002f34:	1000768c 	.word	0x1000768c
10002f38:	1000769c 	.word	0x1000769c
10002f3c:	20000658 	.word	0x20000658
10002f40:	20000520 	.word	0x20000520

10002f44 <XMC_VADC_GLOBAL_GetDetailedResult>:
 *
 * \par<b>Related APIs:</b><BR>
 * XMC_VADC_GLOBAL_GetResult()
 */
__STATIC_INLINE uint32_t XMC_VADC_GLOBAL_GetDetailedResult(XMC_VADC_GLOBAL_t *const global_ptr)
{
10002f44:	b580      	push	{r7, lr}
10002f46:	b082      	sub	sp, #8
10002f48:	af00      	add	r7, sp, #0
10002f4a:	6078      	str	r0, [r7, #4]
  XMC_ASSERT("XMC_VADC_GLOBAL_GetDetailedResult:Wrong Module Pointer", (global_ptr == VADC))

  return (global_ptr->GLOBRES);
10002f4c:	687a      	ldr	r2, [r7, #4]
10002f4e:	23c0      	movs	r3, #192	; 0xc0
10002f50:	009b      	lsls	r3, r3, #2
10002f52:	58d3      	ldr	r3, [r2, r3]
}
10002f54:	1c18      	adds	r0, r3, #0
10002f56:	46bd      	mov	sp, r7
10002f58:	b002      	add	sp, #8
10002f5a:	bd80      	pop	{r7, pc}

10002f5c <ADC_MEASUREMENT_GetGlobalDetailedResult>:
    return 0;
  }
 @endcode
 */
__STATIC_INLINE uint32_t ADC_MEASUREMENT_GetGlobalDetailedResult(void)
{
10002f5c:	b580      	push	{r7, lr}
10002f5e:	b082      	sub	sp, #8
10002f60:	af00      	add	r7, sp, #0
  uint32_t result;
  result = XMC_VADC_GLOBAL_GetDetailedResult(ADC_MEASUREMENT_MODULE_PTR);
10002f62:	4b05      	ldr	r3, [pc, #20]	; (10002f78 <ADC_MEASUREMENT_GetGlobalDetailedResult+0x1c>)
10002f64:	1c18      	adds	r0, r3, #0
10002f66:	f7ff ffed 	bl	10002f44 <XMC_VADC_GLOBAL_GetDetailedResult>
10002f6a:	1c03      	adds	r3, r0, #0
10002f6c:	607b      	str	r3, [r7, #4]

  return (result);
10002f6e:	687b      	ldr	r3, [r7, #4]
}
10002f70:	1c18      	adds	r0, r3, #0
10002f72:	46bd      	mov	sp, r7
10002f74:	b002      	add	sp, #8
10002f76:	bd80      	pop	{r7, pc}
10002f78:	48030000 	.word	0x48030000

10002f7c <XMC_GPIO_SetOutputHigh>:
 * Register Pn_OMR is virtual and does not contain any flip-flop. A read action delivers the value of 0.
 *
 */

__STATIC_INLINE void XMC_GPIO_SetOutputHigh(XMC_GPIO_PORT_t *const port, const uint8_t pin)
{
10002f7c:	b580      	push	{r7, lr}
10002f7e:	b082      	sub	sp, #8
10002f80:	af00      	add	r7, sp, #0
10002f82:	6078      	str	r0, [r7, #4]
10002f84:	1c0a      	adds	r2, r1, #0
10002f86:	1cfb      	adds	r3, r7, #3
10002f88:	701a      	strb	r2, [r3, #0]
  XMC_ASSERT("XMC_GPIO_SetOutputHigh: Invalid port", XMC_GPIO_CHECK_OUTPUT_PORT(port));

  port->OMR = (uint32_t)0x1U << pin;
10002f8a:	1cfb      	adds	r3, r7, #3
10002f8c:	781b      	ldrb	r3, [r3, #0]
10002f8e:	2201      	movs	r2, #1
10002f90:	409a      	lsls	r2, r3
10002f92:	687b      	ldr	r3, [r7, #4]
10002f94:	605a      	str	r2, [r3, #4]
}
10002f96:	46bd      	mov	sp, r7
10002f98:	b002      	add	sp, #8
10002f9a:	bd80      	pop	{r7, pc}

10002f9c <XMC_GPIO_SetOutputLow>:
 * Register Pn_OMR is virtual and does not contain any flip-flop. A read action delivers the value of 0.\n
 *
 */

__STATIC_INLINE void XMC_GPIO_SetOutputLow(XMC_GPIO_PORT_t *const port, const uint8_t pin)
{
10002f9c:	b580      	push	{r7, lr}
10002f9e:	b082      	sub	sp, #8
10002fa0:	af00      	add	r7, sp, #0
10002fa2:	6078      	str	r0, [r7, #4]
10002fa4:	1c0a      	adds	r2, r1, #0
10002fa6:	1cfb      	adds	r3, r7, #3
10002fa8:	701a      	strb	r2, [r3, #0]
  XMC_ASSERT("XMC_GPIO_SetOutputLow: Invalid port", XMC_GPIO_CHECK_OUTPUT_PORT(port));

  port->OMR = 0x10000U << pin;
10002faa:	1cfb      	adds	r3, r7, #3
10002fac:	781b      	ldrb	r3, [r3, #0]
10002fae:	2280      	movs	r2, #128	; 0x80
10002fb0:	0252      	lsls	r2, r2, #9
10002fb2:	409a      	lsls	r2, r3
10002fb4:	687b      	ldr	r3, [r7, #4]
10002fb6:	605a      	str	r2, [r3, #4]
}
10002fb8:	46bd      	mov	sp, r7
10002fba:	b002      	add	sp, #8
10002fbc:	bd80      	pop	{r7, pc}
10002fbe:	46c0      	nop			; (mov r8, r8)

10002fc0 <XMC_GPIO_GetInput>:
 * Prior to this api, user has to configure port pin to input mode using XMC_GPIO_SetMode().
 *
 */

__STATIC_INLINE uint32_t XMC_GPIO_GetInput(XMC_GPIO_PORT_t *const port, const uint8_t pin)
{
10002fc0:	b580      	push	{r7, lr}
10002fc2:	b082      	sub	sp, #8
10002fc4:	af00      	add	r7, sp, #0
10002fc6:	6078      	str	r0, [r7, #4]
10002fc8:	1c0a      	adds	r2, r1, #0
10002fca:	1cfb      	adds	r3, r7, #3
10002fcc:	701a      	strb	r2, [r3, #0]
  XMC_ASSERT("XMC_GPIO_GetInput: Invalid port", XMC_GPIO_CHECK_PORT(port));

  return (((port->IN) >> pin) & 0x1U);
10002fce:	687b      	ldr	r3, [r7, #4]
10002fd0:	6a5a      	ldr	r2, [r3, #36]	; 0x24
10002fd2:	1cfb      	adds	r3, r7, #3
10002fd4:	781b      	ldrb	r3, [r3, #0]
10002fd6:	40da      	lsrs	r2, r3
10002fd8:	1c13      	adds	r3, r2, #0
10002fda:	2201      	movs	r2, #1
10002fdc:	4013      	ands	r3, r2
}
10002fde:	1c18      	adds	r0, r3, #0
10002fe0:	46bd      	mov	sp, r7
10002fe2:	b002      	add	sp, #8
10002fe4:	bd80      	pop	{r7, pc}
10002fe6:	46c0      	nop			; (mov r8, r8)

10002fe8 <DIGITAL_IO_SetOutputHigh>:
* }
*  @endcode
*/

__STATIC_INLINE void DIGITAL_IO_SetOutputHigh(const DIGITAL_IO_t *const handler)
{
10002fe8:	b580      	push	{r7, lr}
10002fea:	b082      	sub	sp, #8
10002fec:	af00      	add	r7, sp, #0
10002fee:	6078      	str	r0, [r7, #4]
  XMC_ASSERT("DIGITAL_IO_SetOutputHigh: handler null pointer", handler != NULL);
  XMC_GPIO_SetOutputHigh(handler->gpio_port, handler->gpio_pin);
10002ff0:	687b      	ldr	r3, [r7, #4]
10002ff2:	681a      	ldr	r2, [r3, #0]
10002ff4:	687b      	ldr	r3, [r7, #4]
10002ff6:	7b1b      	ldrb	r3, [r3, #12]
10002ff8:	1c10      	adds	r0, r2, #0
10002ffa:	1c19      	adds	r1, r3, #0
10002ffc:	f7ff ffbe 	bl	10002f7c <XMC_GPIO_SetOutputHigh>
}
10003000:	46bd      	mov	sp, r7
10003002:	b002      	add	sp, #8
10003004:	bd80      	pop	{r7, pc}
10003006:	46c0      	nop			; (mov r8, r8)

10003008 <DIGITAL_IO_SetOutputLow>:
* }
*  @endcode
*/

__STATIC_INLINE void DIGITAL_IO_SetOutputLow(const DIGITAL_IO_t *const handler)
{
10003008:	b580      	push	{r7, lr}
1000300a:	b082      	sub	sp, #8
1000300c:	af00      	add	r7, sp, #0
1000300e:	6078      	str	r0, [r7, #4]
  XMC_ASSERT("DIGITAL_IO_SetOutputLow: handler null pointer", handler != NULL);
  XMC_GPIO_SetOutputLow(handler->gpio_port,handler->gpio_pin);
10003010:	687b      	ldr	r3, [r7, #4]
10003012:	681a      	ldr	r2, [r3, #0]
10003014:	687b      	ldr	r3, [r7, #4]
10003016:	7b1b      	ldrb	r3, [r3, #12]
10003018:	1c10      	adds	r0, r2, #0
1000301a:	1c19      	adds	r1, r3, #0
1000301c:	f7ff ffbe 	bl	10002f9c <XMC_GPIO_SetOutputLow>
}
10003020:	46bd      	mov	sp, r7
10003022:	b002      	add	sp, #8
10003024:	bd80      	pop	{r7, pc}
10003026:	46c0      	nop			; (mov r8, r8)

10003028 <DIGITAL_IO_GetInput>:
* }
*  @endcode
*/

__STATIC_INLINE uint32_t DIGITAL_IO_GetInput(const DIGITAL_IO_t *const handler)
{
10003028:	b580      	push	{r7, lr}
1000302a:	b082      	sub	sp, #8
1000302c:	af00      	add	r7, sp, #0
1000302e:	6078      	str	r0, [r7, #4]
  XMC_ASSERT("DIGITAL_IO_GetInput: handler null pointer", handler != NULL);
  return XMC_GPIO_GetInput(handler->gpio_port, handler->gpio_pin);
10003030:	687b      	ldr	r3, [r7, #4]
10003032:	681a      	ldr	r2, [r3, #0]
10003034:	687b      	ldr	r3, [r7, #4]
10003036:	7b1b      	ldrb	r3, [r3, #12]
10003038:	1c10      	adds	r0, r2, #0
1000303a:	1c19      	adds	r1, r3, #0
1000303c:	f7ff ffc0 	bl	10002fc0 <XMC_GPIO_GetInput>
10003040:	1c03      	adds	r3, r0, #0
}
10003042:	1c18      	adds	r0, r3, #0
10003044:	46bd      	mov	sp, r7
10003046:	b002      	add	sp, #8
10003048:	bd80      	pop	{r7, pc}
1000304a:	46c0      	nop			; (mov r8, r8)

1000304c <reset_status_led_to_relay_state>:
}

//****************************************************************************
// reset_status_led_to_relay_state - gets state of relay and sets relay led according
//****************************************************************************
void reset_status_led_to_relay_state(){
1000304c:	b580      	push	{r7, lr}
1000304e:	b082      	sub	sp, #8
10003050:	af00      	add	r7, sp, #0
	uint32_t state = DIGITAL_IO_GetInput(&IO_RELAY);
10003052:	4b0f      	ldr	r3, [pc, #60]	; (10003090 <reset_status_led_to_relay_state+0x44>)
10003054:	1c18      	adds	r0, r3, #0
10003056:	f7ff ffe7 	bl	10003028 <DIGITAL_IO_GetInput>
1000305a:	1c03      	adds	r3, r0, #0
1000305c:	607b      	str	r3, [r7, #4]
	if(state == 0){
1000305e:	687b      	ldr	r3, [r7, #4]
10003060:	2b00      	cmp	r3, #0
10003062:	d109      	bne.n	10003078 <reset_status_led_to_relay_state+0x2c>
		led_status_pattern = LED_OFF;
10003064:	4b0b      	ldr	r3, [pc, #44]	; (10003094 <reset_status_led_to_relay_state+0x48>)
10003066:	2200      	movs	r2, #0
10003068:	701a      	strb	r2, [r3, #0]
		PWM_CCU4_SetDutyCycle(&PWM_CCU4_LED_STATUS, PWM_FULL_OFF);
1000306a:	4b0b      	ldr	r3, [pc, #44]	; (10003098 <reset_status_led_to_relay_state+0x4c>)
1000306c:	4a0b      	ldr	r2, [pc, #44]	; (1000309c <reset_status_led_to_relay_state+0x50>)
1000306e:	1c18      	adds	r0, r3, #0
10003070:	1c11      	adds	r1, r2, #0
10003072:	f7ff fc0b 	bl	1000288c <PWM_CCU4_SetDutyCycle>
10003076:	e007      	b.n	10003088 <reset_status_led_to_relay_state+0x3c>
	}
	else{
		led_status_pattern = LED_ON;
10003078:	4b06      	ldr	r3, [pc, #24]	; (10003094 <reset_status_led_to_relay_state+0x48>)
1000307a:	2201      	movs	r2, #1
1000307c:	701a      	strb	r2, [r3, #0]
		PWM_CCU4_SetDutyCycle(&PWM_CCU4_LED_STATUS, PWM_FULL_ON);
1000307e:	4b06      	ldr	r3, [pc, #24]	; (10003098 <reset_status_led_to_relay_state+0x4c>)
10003080:	1c18      	adds	r0, r3, #0
10003082:	2100      	movs	r1, #0
10003084:	f7ff fc02 	bl	1000288c <PWM_CCU4_SetDutyCycle>
	}
}
10003088:	46bd      	mov	sp, r7
1000308a:	b002      	add	sp, #8
1000308c:	bd80      	pop	{r7, pc}
1000308e:	46c0      	nop			; (mov r8, r8)
10003090:	1000767c 	.word	0x1000767c
10003094:	20000664 	.word	0x20000664
10003098:	20000520 	.word	0x20000520
1000309c:	00002710 	.word	0x00002710

100030a0 <manage_status_led>:

//****************************************************************************
// manage_leds -
//****************************************************************************

void manage_status_led(){
100030a0:	b580      	push	{r7, lr}
100030a2:	af00      	add	r7, sp, #0
	static uint16_t led_pattern_state_length;

	static uint16_t fade_duty_step;

	// Check target pattern an initiate
	if(led_status_pattern != led_status_pattern_last){
100030a4:	4ba4      	ldr	r3, [pc, #656]	; (10003338 <manage_status_led+0x298>)
100030a6:	781a      	ldrb	r2, [r3, #0]
100030a8:	4ba4      	ldr	r3, [pc, #656]	; (1000333c <manage_status_led+0x29c>)
100030aa:	781b      	ldrb	r3, [r3, #0]
100030ac:	429a      	cmp	r2, r3
100030ae:	d100      	bne.n	100030b2 <manage_status_led+0x12>
100030b0:	e085      	b.n	100031be <manage_status_led+0x11e>
		switch (led_status_pattern){
100030b2:	4ba1      	ldr	r3, [pc, #644]	; (10003338 <manage_status_led+0x298>)
100030b4:	781b      	ldrb	r3, [r3, #0]
100030b6:	2b04      	cmp	r3, #4
100030b8:	d900      	bls.n	100030bc <manage_status_led+0x1c>
100030ba:	e07c      	b.n	100031b6 <manage_status_led+0x116>
100030bc:	009a      	lsls	r2, r3, #2
100030be:	4ba0      	ldr	r3, [pc, #640]	; (10003340 <manage_status_led+0x2a0>)
100030c0:	18d3      	adds	r3, r2, r3
100030c2:	681b      	ldr	r3, [r3, #0]
100030c4:	469f      	mov	pc, r3
			case LED_OFF:
				PWM_CCU4_SetDutyCycle(&PWM_CCU4_LED_STATUS, PWM_FULL_OFF);
100030c6:	4b9f      	ldr	r3, [pc, #636]	; (10003344 <manage_status_led+0x2a4>)
100030c8:	4a9f      	ldr	r2, [pc, #636]	; (10003348 <manage_status_led+0x2a8>)
100030ca:	1c18      	adds	r0, r3, #0
100030cc:	1c11      	adds	r1, r2, #0
100030ce:	f7ff fbdd 	bl	1000288c <PWM_CCU4_SetDutyCycle>
				break;
100030d2:	e070      	b.n	100031b6 <manage_status_led+0x116>
			case LED_ON:
				PWM_CCU4_SetDutyCycle(&PWM_CCU4_LED_STATUS, PWM_FULL_ON);
100030d4:	4b9b      	ldr	r3, [pc, #620]	; (10003344 <manage_status_led+0x2a4>)
100030d6:	1c18      	adds	r0, r3, #0
100030d8:	2100      	movs	r1, #0
100030da:	f7ff fbd7 	bl	1000288c <PWM_CCU4_SetDutyCycle>
				break;
100030de:	e06a      	b.n	100031b6 <manage_status_led+0x116>
			case LED_NUMBER:
				if(led_number >= 1){
100030e0:	4b9a      	ldr	r3, [pc, #616]	; (1000334c <manage_status_led+0x2ac>)
100030e2:	881b      	ldrh	r3, [r3, #0]
100030e4:	2b00      	cmp	r3, #0
100030e6:	d012      	beq.n	1000310e <manage_status_led+0x6e>
					led_pattern_state_timestamp = SYSTIMER_GetTime();
100030e8:	f7ff f8f4 	bl	100022d4 <SYSTIMER_GetTime>
100030ec:	1c02      	adds	r2, r0, #0
100030ee:	4b98      	ldr	r3, [pc, #608]	; (10003350 <manage_status_led+0x2b0>)
100030f0:	601a      	str	r2, [r3, #0]
					led_pattern_state_length = LED_PULSE_SHORT;
100030f2:	4b98      	ldr	r3, [pc, #608]	; (10003354 <manage_status_led+0x2b4>)
100030f4:	2296      	movs	r2, #150	; 0x96
100030f6:	0052      	lsls	r2, r2, #1
100030f8:	801a      	strh	r2, [r3, #0]
					PWM_CCU4_SetDutyCycle(&PWM_CCU4_LED_STATUS, PWM_FULL_OFF);
100030fa:	4b92      	ldr	r3, [pc, #584]	; (10003344 <manage_status_led+0x2a4>)
100030fc:	4a92      	ldr	r2, [pc, #584]	; (10003348 <manage_status_led+0x2a8>)
100030fe:	1c18      	adds	r0, r3, #0
10003100:	1c11      	adds	r1, r2, #0
10003102:	f7ff fbc3 	bl	1000288c <PWM_CCU4_SetDutyCycle>
					led_pattern_state = 0;
10003106:	4b94      	ldr	r3, [pc, #592]	; (10003358 <manage_status_led+0x2b8>)
10003108:	2200      	movs	r2, #0
1000310a:	801a      	strh	r2, [r3, #0]
				}
				break;
1000310c:	e053      	b.n	100031b6 <manage_status_led+0x116>
1000310e:	e052      	b.n	100031b6 <manage_status_led+0x116>
			case LED_FADE_DOWN:
				if(led_fadetime > 0){
10003110:	4b92      	ldr	r3, [pc, #584]	; (1000335c <manage_status_led+0x2bc>)
10003112:	881b      	ldrh	r3, [r3, #0]
10003114:	2b00      	cmp	r3, #0
10003116:	d023      	beq.n	10003160 <manage_status_led+0xc0>
					led_pattern_state_timestamp = SYSTIMER_GetTime();
10003118:	f7ff f8dc 	bl	100022d4 <SYSTIMER_GetTime>
1000311c:	1c02      	adds	r2, r0, #0
1000311e:	4b8c      	ldr	r3, [pc, #560]	; (10003350 <manage_status_led+0x2b0>)
10003120:	601a      	str	r2, [r3, #0]
					led_pattern_state_length = led_fadetime/led_fadesteps;
10003122:	4b8e      	ldr	r3, [pc, #568]	; (1000335c <manage_status_led+0x2bc>)
10003124:	881a      	ldrh	r2, [r3, #0]
10003126:	4b8e      	ldr	r3, [pc, #568]	; (10003360 <manage_status_led+0x2c0>)
10003128:	881b      	ldrh	r3, [r3, #0]
1000312a:	1c10      	adds	r0, r2, #0
1000312c:	1c19      	adds	r1, r3, #0
1000312e:	f000 fc6b 	bl	10003a08 <__aeabi_uidiv>
10003132:	1c03      	adds	r3, r0, #0
10003134:	b29a      	uxth	r2, r3
10003136:	4b87      	ldr	r3, [pc, #540]	; (10003354 <manage_status_led+0x2b4>)
10003138:	801a      	strh	r2, [r3, #0]
					fade_duty_step = PWM_FULL_OFF/led_fadesteps;
1000313a:	4b89      	ldr	r3, [pc, #548]	; (10003360 <manage_status_led+0x2c0>)
1000313c:	881b      	ldrh	r3, [r3, #0]
1000313e:	4882      	ldr	r0, [pc, #520]	; (10003348 <manage_status_led+0x2a8>)
10003140:	1c19      	adds	r1, r3, #0
10003142:	f000 fc61 	bl	10003a08 <__aeabi_uidiv>
10003146:	1c03      	adds	r3, r0, #0
10003148:	b29a      	uxth	r2, r3
1000314a:	4b86      	ldr	r3, [pc, #536]	; (10003364 <manage_status_led+0x2c4>)
1000314c:	801a      	strh	r2, [r3, #0]
					PWM_CCU4_SetDutyCycle(&PWM_CCU4_LED_STATUS, PWM_FULL_ON);
1000314e:	4b7d      	ldr	r3, [pc, #500]	; (10003344 <manage_status_led+0x2a4>)
10003150:	1c18      	adds	r0, r3, #0
10003152:	2100      	movs	r1, #0
10003154:	f7ff fb9a 	bl	1000288c <PWM_CCU4_SetDutyCycle>
					led_pattern_state = 0;
10003158:	4b7f      	ldr	r3, [pc, #508]	; (10003358 <manage_status_led+0x2b8>)
1000315a:	2200      	movs	r2, #0
1000315c:	801a      	strh	r2, [r3, #0]
				}
				break;
1000315e:	e02a      	b.n	100031b6 <manage_status_led+0x116>
10003160:	e029      	b.n	100031b6 <manage_status_led+0x116>
			case LED_FADE_UP:
				if(led_fadetime > 0){
10003162:	4b7e      	ldr	r3, [pc, #504]	; (1000335c <manage_status_led+0x2bc>)
10003164:	881b      	ldrh	r3, [r3, #0]
10003166:	2b00      	cmp	r3, #0
10003168:	d024      	beq.n	100031b4 <manage_status_led+0x114>
					led_pattern_state_timestamp = SYSTIMER_GetTime();
1000316a:	f7ff f8b3 	bl	100022d4 <SYSTIMER_GetTime>
1000316e:	1c02      	adds	r2, r0, #0
10003170:	4b77      	ldr	r3, [pc, #476]	; (10003350 <manage_status_led+0x2b0>)
10003172:	601a      	str	r2, [r3, #0]
					led_pattern_state_length = led_fadetime/led_fadesteps;
10003174:	4b79      	ldr	r3, [pc, #484]	; (1000335c <manage_status_led+0x2bc>)
10003176:	881a      	ldrh	r2, [r3, #0]
10003178:	4b79      	ldr	r3, [pc, #484]	; (10003360 <manage_status_led+0x2c0>)
1000317a:	881b      	ldrh	r3, [r3, #0]
1000317c:	1c10      	adds	r0, r2, #0
1000317e:	1c19      	adds	r1, r3, #0
10003180:	f000 fc42 	bl	10003a08 <__aeabi_uidiv>
10003184:	1c03      	adds	r3, r0, #0
10003186:	b29a      	uxth	r2, r3
10003188:	4b72      	ldr	r3, [pc, #456]	; (10003354 <manage_status_led+0x2b4>)
1000318a:	801a      	strh	r2, [r3, #0]
					fade_duty_step = PWM_FULL_OFF/led_fadesteps;
1000318c:	4b74      	ldr	r3, [pc, #464]	; (10003360 <manage_status_led+0x2c0>)
1000318e:	881b      	ldrh	r3, [r3, #0]
10003190:	486d      	ldr	r0, [pc, #436]	; (10003348 <manage_status_led+0x2a8>)
10003192:	1c19      	adds	r1, r3, #0
10003194:	f000 fc38 	bl	10003a08 <__aeabi_uidiv>
10003198:	1c03      	adds	r3, r0, #0
1000319a:	b29a      	uxth	r2, r3
1000319c:	4b71      	ldr	r3, [pc, #452]	; (10003364 <manage_status_led+0x2c4>)
1000319e:	801a      	strh	r2, [r3, #0]
					PWM_CCU4_SetDutyCycle(&PWM_CCU4_LED_STATUS, PWM_FULL_OFF);
100031a0:	4b68      	ldr	r3, [pc, #416]	; (10003344 <manage_status_led+0x2a4>)
100031a2:	4a69      	ldr	r2, [pc, #420]	; (10003348 <manage_status_led+0x2a8>)
100031a4:	1c18      	adds	r0, r3, #0
100031a6:	1c11      	adds	r1, r2, #0
100031a8:	f7ff fb70 	bl	1000288c <PWM_CCU4_SetDutyCycle>
					led_pattern_state = 0;
100031ac:	4b6a      	ldr	r3, [pc, #424]	; (10003358 <manage_status_led+0x2b8>)
100031ae:	2200      	movs	r2, #0
100031b0:	801a      	strh	r2, [r3, #0]
				}
				break;
100031b2:	e7ff      	b.n	100031b4 <manage_status_led+0x114>
100031b4:	46c0      	nop			; (mov r8, r8)
		}
		led_status_pattern_last = led_status_pattern;
100031b6:	4b60      	ldr	r3, [pc, #384]	; (10003338 <manage_status_led+0x298>)
100031b8:	781a      	ldrb	r2, [r3, #0]
100031ba:	4b60      	ldr	r3, [pc, #384]	; (1000333c <manage_status_led+0x29c>)
100031bc:	701a      	strb	r2, [r3, #0]
	}

	// Handle LED_NUMBER pattern
	if(led_status_pattern == LED_NUMBER){
100031be:	4b5e      	ldr	r3, [pc, #376]	; (10003338 <manage_status_led+0x298>)
100031c0:	781b      	ldrb	r3, [r3, #0]
100031c2:	2b02      	cmp	r3, #2
100031c4:	d149      	bne.n	1000325a <manage_status_led+0x1ba>
		if((SYSTIMER_GetTime() - led_pattern_state_timestamp) / 1000 >= led_pattern_state_length){
100031c6:	f7ff f885 	bl	100022d4 <SYSTIMER_GetTime>
100031ca:	1c02      	adds	r2, r0, #0
100031cc:	4b60      	ldr	r3, [pc, #384]	; (10003350 <manage_status_led+0x2b0>)
100031ce:	681b      	ldr	r3, [r3, #0]
100031d0:	1ad3      	subs	r3, r2, r3
100031d2:	1c18      	adds	r0, r3, #0
100031d4:	23fa      	movs	r3, #250	; 0xfa
100031d6:	0099      	lsls	r1, r3, #2
100031d8:	f000 fc16 	bl	10003a08 <__aeabi_uidiv>
100031dc:	1c03      	adds	r3, r0, #0
100031de:	1c1a      	adds	r2, r3, #0
100031e0:	4b5c      	ldr	r3, [pc, #368]	; (10003354 <manage_status_led+0x2b4>)
100031e2:	881b      	ldrh	r3, [r3, #0]
100031e4:	429a      	cmp	r2, r3
100031e6:	d338      	bcc.n	1000325a <manage_status_led+0x1ba>
			// Next state
			led_pattern_state++;
100031e8:	4b5b      	ldr	r3, [pc, #364]	; (10003358 <manage_status_led+0x2b8>)
100031ea:	881b      	ldrh	r3, [r3, #0]
100031ec:	3301      	adds	r3, #1
100031ee:	b29a      	uxth	r2, r3
100031f0:	4b59      	ldr	r3, [pc, #356]	; (10003358 <manage_status_led+0x2b8>)
100031f2:	801a      	strh	r2, [r3, #0]

			// Check if LED must be powered on or off for this state
			if(led_pattern_state % 2)
100031f4:	4b58      	ldr	r3, [pc, #352]	; (10003358 <manage_status_led+0x2b8>)
100031f6:	881b      	ldrh	r3, [r3, #0]
100031f8:	2201      	movs	r2, #1
100031fa:	4013      	ands	r3, r2
100031fc:	b29b      	uxth	r3, r3
100031fe:	2b00      	cmp	r3, #0
10003200:	d005      	beq.n	1000320e <manage_status_led+0x16e>
				PWM_CCU4_SetDutyCycle(&PWM_CCU4_LED_STATUS, PWM_FULL_ON);
10003202:	4b50      	ldr	r3, [pc, #320]	; (10003344 <manage_status_led+0x2a4>)
10003204:	1c18      	adds	r0, r3, #0
10003206:	2100      	movs	r1, #0
10003208:	f7ff fb40 	bl	1000288c <PWM_CCU4_SetDutyCycle>
1000320c:	e005      	b.n	1000321a <manage_status_led+0x17a>
			else
				PWM_CCU4_SetDutyCycle(&PWM_CCU4_LED_STATUS, PWM_FULL_OFF);
1000320e:	4b4d      	ldr	r3, [pc, #308]	; (10003344 <manage_status_led+0x2a4>)
10003210:	4a4d      	ldr	r2, [pc, #308]	; (10003348 <manage_status_led+0x2a8>)
10003212:	1c18      	adds	r0, r3, #0
10003214:	1c11      	adds	r1, r2, #0
10003216:	f7ff fb39 	bl	1000288c <PWM_CCU4_SetDutyCycle>

			// Detect last low phase and make it longer
			if(led_pattern_state == (led_number*2))
1000321a:	4b4f      	ldr	r3, [pc, #316]	; (10003358 <manage_status_led+0x2b8>)
1000321c:	881b      	ldrh	r3, [r3, #0]
1000321e:	1c1a      	adds	r2, r3, #0
10003220:	4b4a      	ldr	r3, [pc, #296]	; (1000334c <manage_status_led+0x2ac>)
10003222:	881b      	ldrh	r3, [r3, #0]
10003224:	005b      	lsls	r3, r3, #1
10003226:	429a      	cmp	r2, r3
10003228:	d103      	bne.n	10003232 <manage_status_led+0x192>
				led_pattern_state_length = LED_PULSE_LONG;
1000322a:	4b4a      	ldr	r3, [pc, #296]	; (10003354 <manage_status_led+0x2b4>)
1000322c:	4a4e      	ldr	r2, [pc, #312]	; (10003368 <manage_status_led+0x2c8>)
1000322e:	801a      	strh	r2, [r3, #0]
10003230:	e003      	b.n	1000323a <manage_status_led+0x19a>
			else
				led_pattern_state_length = LED_PULSE_SHORT;
10003232:	4b48      	ldr	r3, [pc, #288]	; (10003354 <manage_status_led+0x2b4>)
10003234:	2296      	movs	r2, #150	; 0x96
10003236:	0052      	lsls	r2, r2, #1
10003238:	801a      	strh	r2, [r3, #0]

			// Store current time
			led_pattern_state_timestamp = SYSTIMER_GetTime();
1000323a:	f7ff f84b 	bl	100022d4 <SYSTIMER_GetTime>
1000323e:	1c02      	adds	r2, r0, #0
10003240:	4b43      	ldr	r3, [pc, #268]	; (10003350 <manage_status_led+0x2b0>)
10003242:	601a      	str	r2, [r3, #0]

			// Check if LED pattern is finished
			if(led_pattern_state > led_number*2){
10003244:	4b44      	ldr	r3, [pc, #272]	; (10003358 <manage_status_led+0x2b8>)
10003246:	881b      	ldrh	r3, [r3, #0]
10003248:	1c1a      	adds	r2, r3, #0
1000324a:	4b40      	ldr	r3, [pc, #256]	; (1000334c <manage_status_led+0x2ac>)
1000324c:	881b      	ldrh	r3, [r3, #0]
1000324e:	005b      	lsls	r3, r3, #1
10003250:	429a      	cmp	r2, r3
10003252:	dd02      	ble.n	1000325a <manage_status_led+0x1ba>
				//led_status_pattern = LED_OFF;
				led_pattern_state = 1;
10003254:	4b40      	ldr	r3, [pc, #256]	; (10003358 <manage_status_led+0x2b8>)
10003256:	2201      	movs	r2, #1
10003258:	801a      	strh	r2, [r3, #0]
			}
		}
	}

	// Handle LED_FADE pattern
	if(led_status_pattern == LED_FADE_DOWN){
1000325a:	4b37      	ldr	r3, [pc, #220]	; (10003338 <manage_status_led+0x298>)
1000325c:	781b      	ldrb	r3, [r3, #0]
1000325e:	2b03      	cmp	r3, #3
10003260:	d130      	bne.n	100032c4 <manage_status_led+0x224>
		if((SYSTIMER_GetTime() - led_pattern_state_timestamp) / 1000 >= led_pattern_state_length){
10003262:	f7ff f837 	bl	100022d4 <SYSTIMER_GetTime>
10003266:	1c02      	adds	r2, r0, #0
10003268:	4b39      	ldr	r3, [pc, #228]	; (10003350 <manage_status_led+0x2b0>)
1000326a:	681b      	ldr	r3, [r3, #0]
1000326c:	1ad3      	subs	r3, r2, r3
1000326e:	1c18      	adds	r0, r3, #0
10003270:	23fa      	movs	r3, #250	; 0xfa
10003272:	0099      	lsls	r1, r3, #2
10003274:	f000 fbc8 	bl	10003a08 <__aeabi_uidiv>
10003278:	1c03      	adds	r3, r0, #0
1000327a:	1c1a      	adds	r2, r3, #0
1000327c:	4b35      	ldr	r3, [pc, #212]	; (10003354 <manage_status_led+0x2b4>)
1000327e:	881b      	ldrh	r3, [r3, #0]
10003280:	429a      	cmp	r2, r3
10003282:	d31f      	bcc.n	100032c4 <manage_status_led+0x224>
			//
			PWM_CCU4_SetDutyCycle(&PWM_CCU4_LED_STATUS, (led_pattern_state*fade_duty_step) + PWM_FULL_ON);
10003284:	4b34      	ldr	r3, [pc, #208]	; (10003358 <manage_status_led+0x2b8>)
10003286:	881b      	ldrh	r3, [r3, #0]
10003288:	1c1a      	adds	r2, r3, #0
1000328a:	4b36      	ldr	r3, [pc, #216]	; (10003364 <manage_status_led+0x2c4>)
1000328c:	881b      	ldrh	r3, [r3, #0]
1000328e:	4353      	muls	r3, r2
10003290:	1c1a      	adds	r2, r3, #0
10003292:	4b2c      	ldr	r3, [pc, #176]	; (10003344 <manage_status_led+0x2a4>)
10003294:	1c18      	adds	r0, r3, #0
10003296:	1c11      	adds	r1, r2, #0
10003298:	f7ff faf8 	bl	1000288c <PWM_CCU4_SetDutyCycle>

			// Store current time
			led_pattern_state_timestamp = SYSTIMER_GetTime();
1000329c:	f7ff f81a 	bl	100022d4 <SYSTIMER_GetTime>
100032a0:	1c02      	adds	r2, r0, #0
100032a2:	4b2b      	ldr	r3, [pc, #172]	; (10003350 <manage_status_led+0x2b0>)
100032a4:	601a      	str	r2, [r3, #0]

			// Next state
			led_pattern_state++;
100032a6:	4b2c      	ldr	r3, [pc, #176]	; (10003358 <manage_status_led+0x2b8>)
100032a8:	881b      	ldrh	r3, [r3, #0]
100032aa:	3301      	adds	r3, #1
100032ac:	b29a      	uxth	r2, r3
100032ae:	4b2a      	ldr	r3, [pc, #168]	; (10003358 <manage_status_led+0x2b8>)
100032b0:	801a      	strh	r2, [r3, #0]

			// Check if LED pattern is finished
			if(led_pattern_state >= led_fadesteps){
100032b2:	4b29      	ldr	r3, [pc, #164]	; (10003358 <manage_status_led+0x2b8>)
100032b4:	881a      	ldrh	r2, [r3, #0]
100032b6:	4b2a      	ldr	r3, [pc, #168]	; (10003360 <manage_status_led+0x2c0>)
100032b8:	881b      	ldrh	r3, [r3, #0]
100032ba:	429a      	cmp	r2, r3
100032bc:	d302      	bcc.n	100032c4 <manage_status_led+0x224>
				led_pattern_state = 0;
100032be:	4b26      	ldr	r3, [pc, #152]	; (10003358 <manage_status_led+0x2b8>)
100032c0:	2200      	movs	r2, #0
100032c2:	801a      	strh	r2, [r3, #0]
			}
		}
	}
	if(led_status_pattern == LED_FADE_UP){ //Todo
100032c4:	4b1c      	ldr	r3, [pc, #112]	; (10003338 <manage_status_led+0x298>)
100032c6:	781b      	ldrb	r3, [r3, #0]
100032c8:	2b04      	cmp	r3, #4
100032ca:	d132      	bne.n	10003332 <manage_status_led+0x292>
		if((SYSTIMER_GetTime() - led_pattern_state_timestamp) / 1000 >= led_pattern_state_length){
100032cc:	f7ff f802 	bl	100022d4 <SYSTIMER_GetTime>
100032d0:	1c02      	adds	r2, r0, #0
100032d2:	4b1f      	ldr	r3, [pc, #124]	; (10003350 <manage_status_led+0x2b0>)
100032d4:	681b      	ldr	r3, [r3, #0]
100032d6:	1ad3      	subs	r3, r2, r3
100032d8:	1c18      	adds	r0, r3, #0
100032da:	23fa      	movs	r3, #250	; 0xfa
100032dc:	0099      	lsls	r1, r3, #2
100032de:	f000 fb93 	bl	10003a08 <__aeabi_uidiv>
100032e2:	1c03      	adds	r3, r0, #0
100032e4:	1c1a      	adds	r2, r3, #0
100032e6:	4b1b      	ldr	r3, [pc, #108]	; (10003354 <manage_status_led+0x2b4>)
100032e8:	881b      	ldrh	r3, [r3, #0]
100032ea:	429a      	cmp	r2, r3
100032ec:	d321      	bcc.n	10003332 <manage_status_led+0x292>
			//
			PWM_CCU4_SetDutyCycle(&PWM_CCU4_LED_STATUS, PWM_FULL_OFF - (led_pattern_state*fade_duty_step) );
100032ee:	4b1a      	ldr	r3, [pc, #104]	; (10003358 <manage_status_led+0x2b8>)
100032f0:	881b      	ldrh	r3, [r3, #0]
100032f2:	1c1a      	adds	r2, r3, #0
100032f4:	4b1b      	ldr	r3, [pc, #108]	; (10003364 <manage_status_led+0x2c4>)
100032f6:	881b      	ldrh	r3, [r3, #0]
100032f8:	4353      	muls	r3, r2
100032fa:	1c1a      	adds	r2, r3, #0
100032fc:	4b12      	ldr	r3, [pc, #72]	; (10003348 <manage_status_led+0x2a8>)
100032fe:	1a9b      	subs	r3, r3, r2
10003300:	4a10      	ldr	r2, [pc, #64]	; (10003344 <manage_status_led+0x2a4>)
10003302:	1c10      	adds	r0, r2, #0
10003304:	1c19      	adds	r1, r3, #0
10003306:	f7ff fac1 	bl	1000288c <PWM_CCU4_SetDutyCycle>

			// Store current time
			led_pattern_state_timestamp = SYSTIMER_GetTime();
1000330a:	f7fe ffe3 	bl	100022d4 <SYSTIMER_GetTime>
1000330e:	1c02      	adds	r2, r0, #0
10003310:	4b0f      	ldr	r3, [pc, #60]	; (10003350 <manage_status_led+0x2b0>)
10003312:	601a      	str	r2, [r3, #0]

			// Next state
			led_pattern_state++;
10003314:	4b10      	ldr	r3, [pc, #64]	; (10003358 <manage_status_led+0x2b8>)
10003316:	881b      	ldrh	r3, [r3, #0]
10003318:	3301      	adds	r3, #1
1000331a:	b29a      	uxth	r2, r3
1000331c:	4b0e      	ldr	r3, [pc, #56]	; (10003358 <manage_status_led+0x2b8>)
1000331e:	801a      	strh	r2, [r3, #0]

			// Check if LED pattern is finished
			if(led_pattern_state >= led_fadesteps){
10003320:	4b0d      	ldr	r3, [pc, #52]	; (10003358 <manage_status_led+0x2b8>)
10003322:	881a      	ldrh	r2, [r3, #0]
10003324:	4b0e      	ldr	r3, [pc, #56]	; (10003360 <manage_status_led+0x2c0>)
10003326:	881b      	ldrh	r3, [r3, #0]
10003328:	429a      	cmp	r2, r3
1000332a:	d302      	bcc.n	10003332 <manage_status_led+0x292>
				led_pattern_state = 0;
1000332c:	4b0a      	ldr	r3, [pc, #40]	; (10003358 <manage_status_led+0x2b8>)
1000332e:	2200      	movs	r2, #0
10003330:	801a      	strh	r2, [r3, #0]
			}
		}
	}
}
10003332:	46bd      	mov	sp, r7
10003334:	bd80      	pop	{r7, pc}
10003336:	46c0      	nop			; (mov r8, r8)
10003338:	20000664 	.word	0x20000664
1000333c:	20000665 	.word	0x20000665
10003340:	100076d0 	.word	0x100076d0
10003344:	20000520 	.word	0x20000520
10003348:	00002710 	.word	0x00002710
1000334c:	20000666 	.word	0x20000666
10003350:	2000069c 	.word	0x2000069c
10003354:	200006a0 	.word	0x200006a0
10003358:	200006a2 	.word	0x200006a2
1000335c:	200005a0 	.word	0x200005a0
10003360:	200005a2 	.word	0x200005a2
10003364:	200006a4 	.word	0x200006a4
10003368:	0000044c 	.word	0x0000044c

1000336c <main>:

//****************************************************************************
// main - primary loop function
//****************************************************************************
int main(void)
{
1000336c:	b590      	push	{r4, r7, lr}
1000336e:	b085      	sub	sp, #20
10003370:	af00      	add	r7, sp, #0
	// Initialization of DAVE APPs
	DAVE_STATUS_t status;
	status = DAVE_Init();
10003372:	230b      	movs	r3, #11
10003374:	18fc      	adds	r4, r7, r3
10003376:	f7ff fd19 	bl	10002dac <DAVE_Init>
1000337a:	1c03      	adds	r3, r0, #0
1000337c:	7023      	strb	r3, [r4, #0]

	// Error routine
	if (status != DAVE_STATUS_SUCCESS) {
1000337e:	230b      	movs	r3, #11
10003380:	18fb      	adds	r3, r7, r3
10003382:	781b      	ldrb	r3, [r3, #0]
10003384:	2b00      	cmp	r3, #0
10003386:	d000      	beq.n	1000338a <main+0x1e>
		while(1U){
		}
10003388:	e7fe      	b.n	10003388 <main+0x1c>
	}

	/// - Set initial state -
	// Enable USB chip and switch to USB1
	DIGITAL_IO_SetOutputLow(&IO_USB_SI);
1000338a:	4bcd      	ldr	r3, [pc, #820]	; (100036c0 <main+0x354>)
1000338c:	1c18      	adds	r0, r3, #0
1000338e:	f7ff fe3b 	bl	10003008 <DIGITAL_IO_SetOutputLow>
	DIGITAL_IO_SetOutputLow(&IO_USB_OE);
10003392:	4bcc      	ldr	r3, [pc, #816]	; (100036c4 <main+0x358>)
10003394:	1c18      	adds	r0, r3, #0
10003396:	f7ff fe37 	bl	10003008 <DIGITAL_IO_SetOutputLow>
	// Enable USB1
	DIGITAL_IO_SetOutputHigh(&IO_USBPWR_1);
1000339a:	4bcb      	ldr	r3, [pc, #812]	; (100036c8 <main+0x35c>)
1000339c:	1c18      	adds	r0, r3, #0
1000339e:	f7ff fe23 	bl	10002fe8 <DIGITAL_IO_SetOutputHigh>
	DIGITAL_IO_SetOutputLow(&IO_LED_USB1);
100033a2:	4bca      	ldr	r3, [pc, #808]	; (100036cc <main+0x360>)
100033a4:	1c18      	adds	r0, r3, #0
100033a6:	f7ff fe2f 	bl	10003008 <DIGITAL_IO_SetOutputLow>
	// Disable USB2
	DIGITAL_IO_SetOutputLow(&IO_USBPWR_2);
100033aa:	4bc9      	ldr	r3, [pc, #804]	; (100036d0 <main+0x364>)
100033ac:	1c18      	adds	r0, r3, #0
100033ae:	f7ff fe2b 	bl	10003008 <DIGITAL_IO_SetOutputLow>
	DIGITAL_IO_SetOutputHigh(&IO_LED_USB2);
100033b2:	4bc8      	ldr	r3, [pc, #800]	; (100036d4 <main+0x368>)
100033b4:	1c18      	adds	r0, r3, #0
100033b6:	f7ff fe17 	bl	10002fe8 <DIGITAL_IO_SetOutputHigh>
	// Disable Relay and set LED off
	DIGITAL_IO_SetOutputLow(&IO_RELAY);
100033ba:	4bc7      	ldr	r3, [pc, #796]	; (100036d8 <main+0x36c>)
100033bc:	1c18      	adds	r0, r3, #0
100033be:	f7ff fe23 	bl	10003008 <DIGITAL_IO_SetOutputLow>
	PWM_CCU4_SetDutyCycle(&PWM_CCU4_LED_STATUS, PWM_FULL_OFF);
100033c2:	4bc6      	ldr	r3, [pc, #792]	; (100036dc <main+0x370>)
100033c4:	4ac6      	ldr	r2, [pc, #792]	; (100036e0 <main+0x374>)
100033c6:	1c18      	adds	r0, r3, #0
100033c8:	1c11      	adds	r1, r2, #0
100033ca:	f7ff fa5f 	bl	1000288c <PWM_CCU4_SetDutyCycle>
	// Initialize next value conversion
	ADC_MEASUREMENT_StartConversion(&ADC_SENSOR);
100033ce:	4bc5      	ldr	r3, [pc, #788]	; (100036e4 <main+0x378>)
100033d0:	1c18      	adds	r0, r3, #0
100033d2:	f7ff fcdd 	bl	10002d90 <ADC_MEASUREMENT_StartConversion>

	int main_loop_count = 0;
100033d6:	2300      	movs	r3, #0
100033d8:	60fb      	str	r3, [r7, #12]

	// Main loop
	while(1U)
	{
		// - Status LED handling -
		manage_status_led();
100033da:	f7ff fe61 	bl	100030a0 <manage_status_led>
		main_loop_count++;
100033de:	68fb      	ldr	r3, [r7, #12]
100033e0:	3301      	adds	r3, #1
100033e2:	60fb      	str	r3, [r7, #12]
		systime_debug = SYSTIMER_GetTime();
100033e4:	f7fe ff76 	bl	100022d4 <SYSTIMER_GetTime>
100033e8:	1c03      	adds	r3, r0, #0
100033ea:	1c1a      	adds	r2, r3, #0
100033ec:	4bbe      	ldr	r3, [pc, #760]	; (100036e8 <main+0x37c>)
100033ee:	601a      	str	r2, [r3, #0]

		/// - Button handling -
		// Detect press and save current system time
		if(button_usb_pressed_timestamp == 0 && DIGITAL_IO_GetInput(&IO_SW_USB) == SW_ON)
100033f0:	4bbe      	ldr	r3, [pc, #760]	; (100036ec <main+0x380>)
100033f2:	681b      	ldr	r3, [r3, #0]
100033f4:	2b00      	cmp	r3, #0
100033f6:	d10a      	bne.n	1000340e <main+0xa2>
100033f8:	4bbd      	ldr	r3, [pc, #756]	; (100036f0 <main+0x384>)
100033fa:	1c18      	adds	r0, r3, #0
100033fc:	f7ff fe14 	bl	10003028 <DIGITAL_IO_GetInput>
10003400:	1e03      	subs	r3, r0, #0
10003402:	d104      	bne.n	1000340e <main+0xa2>
			button_usb_pressed_timestamp = SYSTIMER_GetTime();
10003404:	f7fe ff66 	bl	100022d4 <SYSTIMER_GetTime>
10003408:	1c02      	adds	r2, r0, #0
1000340a:	4bb8      	ldr	r3, [pc, #736]	; (100036ec <main+0x380>)
1000340c:	601a      	str	r2, [r3, #0]
		if(button_up_pressed_timestamp == 0 && DIGITAL_IO_GetInput(&IO_SW_UP) == SW_ON)
1000340e:	4bb9      	ldr	r3, [pc, #740]	; (100036f4 <main+0x388>)
10003410:	681b      	ldr	r3, [r3, #0]
10003412:	2b00      	cmp	r3, #0
10003414:	d10a      	bne.n	1000342c <main+0xc0>
10003416:	4bb8      	ldr	r3, [pc, #736]	; (100036f8 <main+0x38c>)
10003418:	1c18      	adds	r0, r3, #0
1000341a:	f7ff fe05 	bl	10003028 <DIGITAL_IO_GetInput>
1000341e:	1e03      	subs	r3, r0, #0
10003420:	d104      	bne.n	1000342c <main+0xc0>
			button_up_pressed_timestamp = SYSTIMER_GetTime();
10003422:	f7fe ff57 	bl	100022d4 <SYSTIMER_GetTime>
10003426:	1c02      	adds	r2, r0, #0
10003428:	4bb2      	ldr	r3, [pc, #712]	; (100036f4 <main+0x388>)
1000342a:	601a      	str	r2, [r3, #0]
		if(button_down_pressed_timestamp == 0 && DIGITAL_IO_GetInput(&IO_SW_DOWN) == SW_ON)
1000342c:	4bb3      	ldr	r3, [pc, #716]	; (100036fc <main+0x390>)
1000342e:	681b      	ldr	r3, [r3, #0]
10003430:	2b00      	cmp	r3, #0
10003432:	d10a      	bne.n	1000344a <main+0xde>
10003434:	4bb2      	ldr	r3, [pc, #712]	; (10003700 <main+0x394>)
10003436:	1c18      	adds	r0, r3, #0
10003438:	f7ff fdf6 	bl	10003028 <DIGITAL_IO_GetInput>
1000343c:	1e03      	subs	r3, r0, #0
1000343e:	d104      	bne.n	1000344a <main+0xde>
			button_down_pressed_timestamp = SYSTIMER_GetTime();
10003440:	f7fe ff48 	bl	100022d4 <SYSTIMER_GetTime>
10003444:	1c02      	adds	r2, r0, #0
10003446:	4bad      	ldr	r3, [pc, #692]	; (100036fc <main+0x390>)
10003448:	601a      	str	r2, [r3, #0]
		// If a press in ongoing and release is detected, calculate time difference
		if(button_usb_pressed_timestamp != 0 && DIGITAL_IO_GetInput(&IO_SW_USB) == SW_OFF){
1000344a:	4ba8      	ldr	r3, [pc, #672]	; (100036ec <main+0x380>)
1000344c:	681b      	ldr	r3, [r3, #0]
1000344e:	2b00      	cmp	r3, #0
10003450:	d028      	beq.n	100034a4 <main+0x138>
10003452:	4ba7      	ldr	r3, [pc, #668]	; (100036f0 <main+0x384>)
10003454:	1c18      	adds	r0, r3, #0
10003456:	f7ff fde7 	bl	10003028 <DIGITAL_IO_GetInput>
1000345a:	1e03      	subs	r3, r0, #0
1000345c:	2b01      	cmp	r3, #1
1000345e:	d121      	bne.n	100034a4 <main+0x138>
			button_usb_pressed_duration = (SYSTIMER_GetTime() - button_usb_pressed_timestamp) / 1000; // convert us to ms
10003460:	f7fe ff38 	bl	100022d4 <SYSTIMER_GetTime>
10003464:	1c02      	adds	r2, r0, #0
10003466:	4ba1      	ldr	r3, [pc, #644]	; (100036ec <main+0x380>)
10003468:	681b      	ldr	r3, [r3, #0]
1000346a:	1ad3      	subs	r3, r2, r3
1000346c:	1c18      	adds	r0, r3, #0
1000346e:	23fa      	movs	r3, #250	; 0xfa
10003470:	0099      	lsls	r1, r3, #2
10003472:	f000 fac9 	bl	10003a08 <__aeabi_uidiv>
10003476:	1c03      	adds	r3, r0, #0
10003478:	b29a      	uxth	r2, r3
1000347a:	4ba2      	ldr	r3, [pc, #648]	; (10003704 <main+0x398>)
1000347c:	801a      	strh	r2, [r3, #0]
			button_usb_pressed_timestamp = 0;
1000347e:	4b9b      	ldr	r3, [pc, #620]	; (100036ec <main+0x380>)
10003480:	2200      	movs	r2, #0
10003482:	601a      	str	r2, [r3, #0]
			// Interpret button press and activate "button pressed" marker
			if(button_usb_pressed_duration >= BTN_LONG_PRESS_DURATION)
10003484:	4b9f      	ldr	r3, [pc, #636]	; (10003704 <main+0x398>)
10003486:	881b      	ldrh	r3, [r3, #0]
10003488:	4a9f      	ldr	r2, [pc, #636]	; (10003708 <main+0x39c>)
1000348a:	4293      	cmp	r3, r2
1000348c:	d903      	bls.n	10003496 <main+0x12a>
				buttonpress_usb = BTNPRESS_LONG;
1000348e:	4b9f      	ldr	r3, [pc, #636]	; (1000370c <main+0x3a0>)
10003490:	2202      	movs	r2, #2
10003492:	701a      	strb	r2, [r3, #0]
10003494:	e006      	b.n	100034a4 <main+0x138>
			else if(button_usb_pressed_duration >= BTN_STD_PRESS_DURATION)
10003496:	4b9b      	ldr	r3, [pc, #620]	; (10003704 <main+0x398>)
10003498:	881b      	ldrh	r3, [r3, #0]
1000349a:	2b3b      	cmp	r3, #59	; 0x3b
1000349c:	d902      	bls.n	100034a4 <main+0x138>
				buttonpress_usb = BTNPRESS_STD;
1000349e:	4b9b      	ldr	r3, [pc, #620]	; (1000370c <main+0x3a0>)
100034a0:	2201      	movs	r2, #1
100034a2:	701a      	strb	r2, [r3, #0]


		}
		if(button_up_pressed_timestamp != 0 && DIGITAL_IO_GetInput(&IO_SW_UP) == SW_OFF){
100034a4:	4b93      	ldr	r3, [pc, #588]	; (100036f4 <main+0x388>)
100034a6:	681b      	ldr	r3, [r3, #0]
100034a8:	2b00      	cmp	r3, #0
100034aa:	d032      	beq.n	10003512 <main+0x1a6>
100034ac:	4b92      	ldr	r3, [pc, #584]	; (100036f8 <main+0x38c>)
100034ae:	1c18      	adds	r0, r3, #0
100034b0:	f7ff fdba 	bl	10003028 <DIGITAL_IO_GetInput>
100034b4:	1e03      	subs	r3, r0, #0
100034b6:	2b01      	cmp	r3, #1
100034b8:	d12b      	bne.n	10003512 <main+0x1a6>
			button_up_pressed_duration = (SYSTIMER_GetTime() - button_up_pressed_timestamp) / 1000; // convert us to ms
100034ba:	f7fe ff0b 	bl	100022d4 <SYSTIMER_GetTime>
100034be:	1c02      	adds	r2, r0, #0
100034c0:	4b8c      	ldr	r3, [pc, #560]	; (100036f4 <main+0x388>)
100034c2:	681b      	ldr	r3, [r3, #0]
100034c4:	1ad3      	subs	r3, r2, r3
100034c6:	1c18      	adds	r0, r3, #0
100034c8:	23fa      	movs	r3, #250	; 0xfa
100034ca:	0099      	lsls	r1, r3, #2
100034cc:	f000 fa9c 	bl	10003a08 <__aeabi_uidiv>
100034d0:	1c03      	adds	r3, r0, #0
100034d2:	b29a      	uxth	r2, r3
100034d4:	4b8e      	ldr	r3, [pc, #568]	; (10003710 <main+0x3a4>)
100034d6:	801a      	strh	r2, [r3, #0]
			button_up_pressed_timestamp = 0;
100034d8:	4b86      	ldr	r3, [pc, #536]	; (100036f4 <main+0x388>)
100034da:	2200      	movs	r2, #0
100034dc:	601a      	str	r2, [r3, #0]
			// Interpret button press and activate "button pressed" marker
			if(button_up_pressed_duration >= BTN_LONG_PRESS_DURATION){
100034de:	4b8c      	ldr	r3, [pc, #560]	; (10003710 <main+0x3a4>)
100034e0:	881b      	ldrh	r3, [r3, #0]
100034e2:	4a89      	ldr	r2, [pc, #548]	; (10003708 <main+0x39c>)
100034e4:	4293      	cmp	r3, r2
100034e6:	d908      	bls.n	100034fa <main+0x18e>
				buttonpress_up = BTNPRESS_LONG;
100034e8:	4b8a      	ldr	r3, [pc, #552]	; (10003714 <main+0x3a8>)
100034ea:	2202      	movs	r2, #2
100034ec:	701a      	strb	r2, [r3, #0]
				button_usb_pressed_long_debug++;
100034ee:	4b8a      	ldr	r3, [pc, #552]	; (10003718 <main+0x3ac>)
100034f0:	681b      	ldr	r3, [r3, #0]
100034f2:	1c5a      	adds	r2, r3, #1
100034f4:	4b88      	ldr	r3, [pc, #544]	; (10003718 <main+0x3ac>)
100034f6:	601a      	str	r2, [r3, #0]
100034f8:	e00b      	b.n	10003512 <main+0x1a6>
			}
			else if(button_up_pressed_duration >= BTN_STD_PRESS_DURATION){
100034fa:	4b85      	ldr	r3, [pc, #532]	; (10003710 <main+0x3a4>)
100034fc:	881b      	ldrh	r3, [r3, #0]
100034fe:	2b3b      	cmp	r3, #59	; 0x3b
10003500:	d907      	bls.n	10003512 <main+0x1a6>
				buttonpress_up = BTNPRESS_STD;
10003502:	4b84      	ldr	r3, [pc, #528]	; (10003714 <main+0x3a8>)
10003504:	2201      	movs	r2, #1
10003506:	701a      	strb	r2, [r3, #0]
				button_usb_pressed_debug++;
10003508:	4b84      	ldr	r3, [pc, #528]	; (1000371c <main+0x3b0>)
1000350a:	681b      	ldr	r3, [r3, #0]
1000350c:	1c5a      	adds	r2, r3, #1
1000350e:	4b83      	ldr	r3, [pc, #524]	; (1000371c <main+0x3b0>)
10003510:	601a      	str	r2, [r3, #0]
			}

		}
		if(button_down_pressed_timestamp != 0 && DIGITAL_IO_GetInput(&IO_SW_DOWN) == SW_OFF){
10003512:	4b7a      	ldr	r3, [pc, #488]	; (100036fc <main+0x390>)
10003514:	681b      	ldr	r3, [r3, #0]
10003516:	2b00      	cmp	r3, #0
10003518:	d028      	beq.n	1000356c <main+0x200>
1000351a:	4b79      	ldr	r3, [pc, #484]	; (10003700 <main+0x394>)
1000351c:	1c18      	adds	r0, r3, #0
1000351e:	f7ff fd83 	bl	10003028 <DIGITAL_IO_GetInput>
10003522:	1e03      	subs	r3, r0, #0
10003524:	2b01      	cmp	r3, #1
10003526:	d121      	bne.n	1000356c <main+0x200>
			button_down_pressed_duration = (SYSTIMER_GetTime() - button_down_pressed_timestamp) / 1000; // convert us to ms
10003528:	f7fe fed4 	bl	100022d4 <SYSTIMER_GetTime>
1000352c:	1c02      	adds	r2, r0, #0
1000352e:	4b73      	ldr	r3, [pc, #460]	; (100036fc <main+0x390>)
10003530:	681b      	ldr	r3, [r3, #0]
10003532:	1ad3      	subs	r3, r2, r3
10003534:	1c18      	adds	r0, r3, #0
10003536:	23fa      	movs	r3, #250	; 0xfa
10003538:	0099      	lsls	r1, r3, #2
1000353a:	f000 fa65 	bl	10003a08 <__aeabi_uidiv>
1000353e:	1c03      	adds	r3, r0, #0
10003540:	b29a      	uxth	r2, r3
10003542:	4b77      	ldr	r3, [pc, #476]	; (10003720 <main+0x3b4>)
10003544:	801a      	strh	r2, [r3, #0]
			button_down_pressed_timestamp = 0;
10003546:	4b6d      	ldr	r3, [pc, #436]	; (100036fc <main+0x390>)
10003548:	2200      	movs	r2, #0
1000354a:	601a      	str	r2, [r3, #0]
			// Interpret button press and activate "button pressed" marker. The code that is reacting to it must reset it afterwards!
			if(button_down_pressed_duration >= BTN_LONG_PRESS_DURATION)
1000354c:	4b74      	ldr	r3, [pc, #464]	; (10003720 <main+0x3b4>)
1000354e:	881b      	ldrh	r3, [r3, #0]
10003550:	4a6d      	ldr	r2, [pc, #436]	; (10003708 <main+0x39c>)
10003552:	4293      	cmp	r3, r2
10003554:	d903      	bls.n	1000355e <main+0x1f2>
				buttonpress_down = BTNPRESS_LONG;
10003556:	4b73      	ldr	r3, [pc, #460]	; (10003724 <main+0x3b8>)
10003558:	2202      	movs	r2, #2
1000355a:	701a      	strb	r2, [r3, #0]
1000355c:	e006      	b.n	1000356c <main+0x200>
			else if(button_down_pressed_duration >= BTN_STD_PRESS_DURATION)
1000355e:	4b70      	ldr	r3, [pc, #448]	; (10003720 <main+0x3b4>)
10003560:	881b      	ldrh	r3, [r3, #0]
10003562:	2b3b      	cmp	r3, #59	; 0x3b
10003564:	d902      	bls.n	1000356c <main+0x200>
				buttonpress_down = BTNPRESS_STD;
10003566:	4b6f      	ldr	r3, [pc, #444]	; (10003724 <main+0x3b8>)
10003568:	2201      	movs	r2, #1
1000356a:	701a      	strb	r2, [r3, #0]
		}

		/// - USB Channel handling -
		switch (USB_state){
1000356c:	4b6e      	ldr	r3, [pc, #440]	; (10003728 <main+0x3bc>)
1000356e:	781b      	ldrb	r3, [r3, #0]
10003570:	2b01      	cmp	r3, #1
10003572:	d023      	beq.n	100035bc <main+0x250>
10003574:	2b02      	cmp	r3, #2
10003576:	d041      	beq.n	100035fc <main+0x290>
10003578:	2b00      	cmp	r3, #0
1000357a:	d140      	bne.n	100035fe <main+0x292>
			case USB_1_active:
				// State code - none atm

				// Transition statement
				if(buttonpress_usb == BTNPRESS_STD){
1000357c:	4b63      	ldr	r3, [pc, #396]	; (1000370c <main+0x3a0>)
1000357e:	781b      	ldrb	r3, [r3, #0]
10003580:	2b01      	cmp	r3, #1
10003582:	d11a      	bne.n	100035ba <main+0x24e>
					DIGITAL_IO_SetOutputLow(&IO_USBPWR_1);
10003584:	4b50      	ldr	r3, [pc, #320]	; (100036c8 <main+0x35c>)
10003586:	1c18      	adds	r0, r3, #0
10003588:	f7ff fd3e 	bl	10003008 <DIGITAL_IO_SetOutputLow>
					DIGITAL_IO_SetOutputHigh(&IO_USB_SI);
1000358c:	4b4c      	ldr	r3, [pc, #304]	; (100036c0 <main+0x354>)
1000358e:	1c18      	adds	r0, r3, #0
10003590:	f7ff fd2a 	bl	10002fe8 <DIGITAL_IO_SetOutputHigh>
					DIGITAL_IO_SetOutputLow(&IO_LED_USB2);
10003594:	4b4f      	ldr	r3, [pc, #316]	; (100036d4 <main+0x368>)
10003596:	1c18      	adds	r0, r3, #0
10003598:	f7ff fd36 	bl	10003008 <DIGITAL_IO_SetOutputLow>
					DIGITAL_IO_SetOutputHigh(&IO_LED_USB1);
1000359c:	4b4b      	ldr	r3, [pc, #300]	; (100036cc <main+0x360>)
1000359e:	1c18      	adds	r0, r3, #0
100035a0:	f7ff fd22 	bl	10002fe8 <DIGITAL_IO_SetOutputHigh>
					DIGITAL_IO_SetOutputHigh(&IO_USBPWR_2);
100035a4:	4b4a      	ldr	r3, [pc, #296]	; (100036d0 <main+0x364>)
100035a6:	1c18      	adds	r0, r3, #0
100035a8:	f7ff fd1e 	bl	10002fe8 <DIGITAL_IO_SetOutputHigh>
					buttonpress_usb = BTNPRESS_NOT;
100035ac:	4b57      	ldr	r3, [pc, #348]	; (1000370c <main+0x3a0>)
100035ae:	2200      	movs	r2, #0
100035b0:	701a      	strb	r2, [r3, #0]

					USB_state = USB_2_active;
100035b2:	4b5d      	ldr	r3, [pc, #372]	; (10003728 <main+0x3bc>)
100035b4:	2201      	movs	r2, #1
100035b6:	701a      	strb	r2, [r3, #0]
				}
				break;
100035b8:	e021      	b.n	100035fe <main+0x292>
100035ba:	e020      	b.n	100035fe <main+0x292>
			case USB_2_active:
				// State code - none atm

				// Transition statement
				if(buttonpress_usb == BTNPRESS_STD){
100035bc:	4b53      	ldr	r3, [pc, #332]	; (1000370c <main+0x3a0>)
100035be:	781b      	ldrb	r3, [r3, #0]
100035c0:	2b01      	cmp	r3, #1
100035c2:	d11a      	bne.n	100035fa <main+0x28e>
					DIGITAL_IO_SetOutputLow(&IO_USBPWR_2);
100035c4:	4b42      	ldr	r3, [pc, #264]	; (100036d0 <main+0x364>)
100035c6:	1c18      	adds	r0, r3, #0
100035c8:	f7ff fd1e 	bl	10003008 <DIGITAL_IO_SetOutputLow>
					DIGITAL_IO_SetOutputLow(&IO_USB_SI);
100035cc:	4b3c      	ldr	r3, [pc, #240]	; (100036c0 <main+0x354>)
100035ce:	1c18      	adds	r0, r3, #0
100035d0:	f7ff fd1a 	bl	10003008 <DIGITAL_IO_SetOutputLow>
					DIGITAL_IO_SetOutputLow(&IO_LED_USB1);
100035d4:	4b3d      	ldr	r3, [pc, #244]	; (100036cc <main+0x360>)
100035d6:	1c18      	adds	r0, r3, #0
100035d8:	f7ff fd16 	bl	10003008 <DIGITAL_IO_SetOutputLow>
					DIGITAL_IO_SetOutputHigh(&IO_LED_USB2);
100035dc:	4b3d      	ldr	r3, [pc, #244]	; (100036d4 <main+0x368>)
100035de:	1c18      	adds	r0, r3, #0
100035e0:	f7ff fd02 	bl	10002fe8 <DIGITAL_IO_SetOutputHigh>
					DIGITAL_IO_SetOutputHigh(&IO_USBPWR_1);
100035e4:	4b38      	ldr	r3, [pc, #224]	; (100036c8 <main+0x35c>)
100035e6:	1c18      	adds	r0, r3, #0
100035e8:	f7ff fcfe 	bl	10002fe8 <DIGITAL_IO_SetOutputHigh>
					buttonpress_usb = BTNPRESS_NOT;
100035ec:	4b47      	ldr	r3, [pc, #284]	; (1000370c <main+0x3a0>)
100035ee:	2200      	movs	r2, #0
100035f0:	701a      	strb	r2, [r3, #0]

					USB_state = USB_1_active;
100035f2:	4b4d      	ldr	r3, [pc, #308]	; (10003728 <main+0x3bc>)
100035f4:	2200      	movs	r2, #0
100035f6:	701a      	strb	r2, [r3, #0]
				}
				break;
100035f8:	e001      	b.n	100035fe <main+0x292>
100035fa:	e000      	b.n	100035fe <main+0x292>
			case USB_inactive:
				// Currently not implemented!
				break;
100035fc:	46c0      	nop			; (mov r8, r8)
		}
		/// - Relay handling -
		// Check for state change triggers based on current state
		switch (relay_state){
100035fe:	4b4b      	ldr	r3, [pc, #300]	; (1000372c <main+0x3c0>)
10003600:	781b      	ldrb	r3, [r3, #0]
10003602:	2b00      	cmp	r3, #0
10003604:	d04a      	beq.n	1000369c <main+0x330>
10003606:	2b01      	cmp	r3, #1
10003608:	d000      	beq.n	1000360c <main+0x2a0>
1000360a:	e0d2      	b.n	100037b2 <main+0x446>
			case RELAY_LOW:
				// State code
				// Check if upper threshold is exceeded. If it is and timestamp is not already set - save timestamp. If timestamp is already saved and threshold is not exceeded anymore reset timestamp
				if     (ADC_val_upper_thres_exceed_timestamp == 0 && ADC_val_current > ADC_upper_threshold){
1000360c:	4b48      	ldr	r3, [pc, #288]	; (10003730 <main+0x3c4>)
1000360e:	681b      	ldr	r3, [r3, #0]
10003610:	2b00      	cmp	r3, #0
10003612:	d10c      	bne.n	1000362e <main+0x2c2>
10003614:	4b47      	ldr	r3, [pc, #284]	; (10003734 <main+0x3c8>)
10003616:	681b      	ldr	r3, [r3, #0]
10003618:	1e1a      	subs	r2, r3, #0
1000361a:	4b47      	ldr	r3, [pc, #284]	; (10003738 <main+0x3cc>)
1000361c:	681b      	ldr	r3, [r3, #0]
1000361e:	429a      	cmp	r2, r3
10003620:	d205      	bcs.n	1000362e <main+0x2c2>
					ADC_val_upper_thres_exceed_timestamp = SYSTIMER_GetTime();
10003622:	f7fe fe57 	bl	100022d4 <SYSTIMER_GetTime>
10003626:	1c02      	adds	r2, r0, #0
10003628:	4b41      	ldr	r3, [pc, #260]	; (10003730 <main+0x3c4>)
1000362a:	601a      	str	r2, [r3, #0]
1000362c:	e00d      	b.n	1000364a <main+0x2de>
				}
				else if(ADC_val_upper_thres_exceed_timestamp != 0 && ADC_val_current < ADC_upper_threshold){
1000362e:	4b40      	ldr	r3, [pc, #256]	; (10003730 <main+0x3c4>)
10003630:	681b      	ldr	r3, [r3, #0]
10003632:	2b00      	cmp	r3, #0
10003634:	d009      	beq.n	1000364a <main+0x2de>
10003636:	4b3f      	ldr	r3, [pc, #252]	; (10003734 <main+0x3c8>)
10003638:	681b      	ldr	r3, [r3, #0]
1000363a:	1e1a      	subs	r2, r3, #0
1000363c:	4b3e      	ldr	r3, [pc, #248]	; (10003738 <main+0x3cc>)
1000363e:	681b      	ldr	r3, [r3, #0]
10003640:	429a      	cmp	r2, r3
10003642:	d902      	bls.n	1000364a <main+0x2de>
					ADC_val_upper_thres_exceed_timestamp = 0;
10003644:	4b3a      	ldr	r3, [pc, #232]	; (10003730 <main+0x3c4>)
10003646:	2200      	movs	r2, #0
10003648:	601a      	str	r2, [r3, #0]
				}

				// Transition statement
				// Check if threshold are exceeded long enough to trigger a switch
				if(ADC_val_upper_thres_exceed_timestamp != 0){
1000364a:	4b39      	ldr	r3, [pc, #228]	; (10003730 <main+0x3c4>)
1000364c:	681b      	ldr	r3, [r3, #0]
1000364e:	2b00      	cmp	r3, #0
10003650:	d023      	beq.n	1000369a <main+0x32e>
					uint16_t upperThresholdExceedDuration = (SYSTIMER_GetTime() - ADC_val_upper_thres_exceed_timestamp)/1000;
10003652:	f7fe fe3f 	bl	100022d4 <SYSTIMER_GetTime>
10003656:	1c02      	adds	r2, r0, #0
10003658:	4b35      	ldr	r3, [pc, #212]	; (10003730 <main+0x3c4>)
1000365a:	681b      	ldr	r3, [r3, #0]
1000365c:	1ad3      	subs	r3, r2, r3
1000365e:	1c18      	adds	r0, r3, #0
10003660:	23fa      	movs	r3, #250	; 0xfa
10003662:	0099      	lsls	r1, r3, #2
10003664:	f000 f9d0 	bl	10003a08 <__aeabi_uidiv>
10003668:	1c03      	adds	r3, r0, #0
1000366a:	1c1a      	adds	r2, r3, #0
1000366c:	2308      	movs	r3, #8
1000366e:	18fb      	adds	r3, r7, r3
10003670:	801a      	strh	r2, [r3, #0]
					if(upperThresholdExceedDuration > relay_threshold_latchtime){
10003672:	4b32      	ldr	r3, [pc, #200]	; (1000373c <main+0x3d0>)
10003674:	881b      	ldrh	r3, [r3, #0]
10003676:	2208      	movs	r2, #8
10003678:	18ba      	adds	r2, r7, r2
1000367a:	8812      	ldrh	r2, [r2, #0]
1000367c:	429a      	cmp	r2, r3
1000367e:	d90c      	bls.n	1000369a <main+0x32e>
						relay_state = RELAY_HIGH;
10003680:	4b2a      	ldr	r3, [pc, #168]	; (1000372c <main+0x3c0>)
10003682:	2200      	movs	r2, #0
10003684:	701a      	strb	r2, [r3, #0]
						DIGITAL_IO_SetOutputHigh(&IO_RELAY);
10003686:	4b14      	ldr	r3, [pc, #80]	; (100036d8 <main+0x36c>)
10003688:	1c18      	adds	r0, r3, #0
1000368a:	f7ff fcad 	bl	10002fe8 <DIGITAL_IO_SetOutputHigh>
						reset_status_led_to_relay_state();
1000368e:	f7ff fcdd 	bl	1000304c <reset_status_led_to_relay_state>
						ADC_val_upper_thres_exceed_timestamp = 0;
10003692:	4b27      	ldr	r3, [pc, #156]	; (10003730 <main+0x3c4>)
10003694:	2200      	movs	r2, #0
10003696:	601a      	str	r2, [r3, #0]
					}
				}
				break;
10003698:	e08b      	b.n	100037b2 <main+0x446>
1000369a:	e08a      	b.n	100037b2 <main+0x446>
			case RELAY_HIGH:
				// State code
				// Check if lower threshold is exceeded. If it is and timestamp is not already set - save timestamp. If timestamp is already saved and threshold is not exceeded anymore reset timestamp
				if(ADC_val_lower_thres_exceed_timestamp == 0 && ADC_val_current < ADC_lower_threshold){
1000369c:	4b28      	ldr	r3, [pc, #160]	; (10003740 <main+0x3d4>)
1000369e:	681b      	ldr	r3, [r3, #0]
100036a0:	2b00      	cmp	r3, #0
100036a2:	d151      	bne.n	10003748 <main+0x3dc>
100036a4:	4b27      	ldr	r3, [pc, #156]	; (10003744 <main+0x3d8>)
100036a6:	681b      	ldr	r3, [r3, #0]
100036a8:	1e1a      	subs	r2, r3, #0
100036aa:	4b23      	ldr	r3, [pc, #140]	; (10003738 <main+0x3cc>)
100036ac:	681b      	ldr	r3, [r3, #0]
100036ae:	429a      	cmp	r2, r3
100036b0:	d94a      	bls.n	10003748 <main+0x3dc>
					ADC_val_lower_thres_exceed_timestamp = SYSTIMER_GetTime();
100036b2:	f7fe fe0f 	bl	100022d4 <SYSTIMER_GetTime>
100036b6:	1c02      	adds	r2, r0, #0
100036b8:	4b21      	ldr	r3, [pc, #132]	; (10003740 <main+0x3d4>)
100036ba:	601a      	str	r2, [r3, #0]
100036bc:	e052      	b.n	10003764 <main+0x3f8>
100036be:	46c0      	nop			; (mov r8, r8)
100036c0:	100075fc 	.word	0x100075fc
100036c4:	1000760c 	.word	0x1000760c
100036c8:	1000766c 	.word	0x1000766c
100036cc:	1000769c 	.word	0x1000769c
100036d0:	1000765c 	.word	0x1000765c
100036d4:	1000768c 	.word	0x1000768c
100036d8:	1000767c 	.word	0x1000767c
100036dc:	20000520 	.word	0x20000520
100036e0:	00002710 	.word	0x00002710
100036e4:	20000578 	.word	0x20000578
100036e8:	20000694 	.word	0x20000694
100036ec:	2000066c 	.word	0x2000066c
100036f0:	1000762c 	.word	0x1000762c
100036f4:	20000670 	.word	0x20000670
100036f8:	1000763c 	.word	0x1000763c
100036fc:	20000674 	.word	0x20000674
10003700:	1000764c 	.word	0x1000764c
10003704:	20000678 	.word	0x20000678
10003708:	000003e7 	.word	0x000003e7
1000370c:	20000668 	.word	0x20000668
10003710:	2000067a 	.word	0x2000067a
10003714:	20000669 	.word	0x20000669
10003718:	20000690 	.word	0x20000690
1000371c:	2000068c 	.word	0x2000068c
10003720:	2000067c 	.word	0x2000067c
10003724:	2000066a 	.word	0x2000066a
10003728:	200007d1 	.word	0x200007d1
1000372c:	200007d0 	.word	0x200007d0
10003730:	20000684 	.word	0x20000684
10003734:	20000598 	.word	0x20000598
10003738:	20000680 	.word	0x20000680
1000373c:	20000594 	.word	0x20000594
10003740:	20000688 	.word	0x20000688
10003744:	2000059c 	.word	0x2000059c
				}
				else if(ADC_val_lower_thres_exceed_timestamp != 0 && ADC_val_current > ADC_lower_threshold){
10003748:	4b8b      	ldr	r3, [pc, #556]	; (10003978 <main+0x60c>)
1000374a:	681b      	ldr	r3, [r3, #0]
1000374c:	2b00      	cmp	r3, #0
1000374e:	d009      	beq.n	10003764 <main+0x3f8>
10003750:	4b8a      	ldr	r3, [pc, #552]	; (1000397c <main+0x610>)
10003752:	681b      	ldr	r3, [r3, #0]
10003754:	1e1a      	subs	r2, r3, #0
10003756:	4b8a      	ldr	r3, [pc, #552]	; (10003980 <main+0x614>)
10003758:	681b      	ldr	r3, [r3, #0]
1000375a:	429a      	cmp	r2, r3
1000375c:	d202      	bcs.n	10003764 <main+0x3f8>
					ADC_val_lower_thres_exceed_timestamp = 0;
1000375e:	4b86      	ldr	r3, [pc, #536]	; (10003978 <main+0x60c>)
10003760:	2200      	movs	r2, #0
10003762:	601a      	str	r2, [r3, #0]
				}

				// Transition statement
				// Check if threshold are exceeded long enough to trigger a switch
				if(ADC_val_lower_thres_exceed_timestamp != 0){
10003764:	4b84      	ldr	r3, [pc, #528]	; (10003978 <main+0x60c>)
10003766:	681b      	ldr	r3, [r3, #0]
10003768:	2b00      	cmp	r3, #0
1000376a:	d021      	beq.n	100037b0 <main+0x444>
					uint16_t lowerThresholdExceedDuration = (SYSTIMER_GetTime() - ADC_val_lower_thres_exceed_timestamp)/1000;
1000376c:	f7fe fdb2 	bl	100022d4 <SYSTIMER_GetTime>
10003770:	1c02      	adds	r2, r0, #0
10003772:	4b81      	ldr	r3, [pc, #516]	; (10003978 <main+0x60c>)
10003774:	681b      	ldr	r3, [r3, #0]
10003776:	1ad3      	subs	r3, r2, r3
10003778:	1c18      	adds	r0, r3, #0
1000377a:	23fa      	movs	r3, #250	; 0xfa
1000377c:	0099      	lsls	r1, r3, #2
1000377e:	f000 f943 	bl	10003a08 <__aeabi_uidiv>
10003782:	1c03      	adds	r3, r0, #0
10003784:	1c1a      	adds	r2, r3, #0
10003786:	1dbb      	adds	r3, r7, #6
10003788:	801a      	strh	r2, [r3, #0]
					if(lowerThresholdExceedDuration > relay_threshold_latchtime){
1000378a:	4b7e      	ldr	r3, [pc, #504]	; (10003984 <main+0x618>)
1000378c:	881b      	ldrh	r3, [r3, #0]
1000378e:	1dba      	adds	r2, r7, #6
10003790:	8812      	ldrh	r2, [r2, #0]
10003792:	429a      	cmp	r2, r3
10003794:	d90c      	bls.n	100037b0 <main+0x444>
						relay_state = RELAY_LOW;
10003796:	4b7c      	ldr	r3, [pc, #496]	; (10003988 <main+0x61c>)
10003798:	2201      	movs	r2, #1
1000379a:	701a      	strb	r2, [r3, #0]
						DIGITAL_IO_SetOutputLow(&IO_RELAY);
1000379c:	4b7b      	ldr	r3, [pc, #492]	; (1000398c <main+0x620>)
1000379e:	1c18      	adds	r0, r3, #0
100037a0:	f7ff fc32 	bl	10003008 <DIGITAL_IO_SetOutputLow>
						reset_status_led_to_relay_state();
100037a4:	f7ff fc52 	bl	1000304c <reset_status_led_to_relay_state>
						ADC_val_lower_thres_exceed_timestamp = 0;
100037a8:	4b73      	ldr	r3, [pc, #460]	; (10003978 <main+0x60c>)
100037aa:	2200      	movs	r2, #0
100037ac:	601a      	str	r2, [r3, #0]
					}
				}
				break;
100037ae:	e7ff      	b.n	100037b0 <main+0x444>
100037b0:	46c0      	nop			; (mov r8, r8)
		}
		// Init next value conversion
		ADC_MEASUREMENT_StartConversion(&ADC_SENSOR);
100037b2:	4b77      	ldr	r3, [pc, #476]	; (10003990 <main+0x624>)
100037b4:	1c18      	adds	r0, r3, #0
100037b6:	f7ff faeb 	bl	10002d90 <ADC_MEASUREMENT_StartConversion>

		/// - Relay settings handling - Todo auto exit menus after time?, led signal when reaching max?, upper threshold cant be lower than lower threshold?
		switch(setup_state){
100037ba:	4b76      	ldr	r3, [pc, #472]	; (10003994 <main+0x628>)
100037bc:	781b      	ldrb	r3, [r3, #0]
100037be:	2b01      	cmp	r3, #1
100037c0:	d032      	beq.n	10003828 <main+0x4bc>
100037c2:	dc02      	bgt.n	100037ca <main+0x45e>
100037c4:	2b00      	cmp	r3, #0
100037c6:	d006      	beq.n	100037d6 <main+0x46a>
100037c8:	e0cc      	b.n	10003964 <main+0x5f8>
100037ca:	2b02      	cmp	r3, #2
100037cc:	d060      	beq.n	10003890 <main+0x524>
100037ce:	2b03      	cmp	r3, #3
100037d0:	d100      	bne.n	100037d4 <main+0x468>
100037d2:	e091      	b.n	100038f8 <main+0x58c>
100037d4:	e0c6      	b.n	10003964 <main+0x5f8>
			case SETUP_IDLE:
				/// Interpret button press and change to according setup sub-menu (state)
				// A long  press of up or down brings system in time setup menu
				// A short press of up         brings system in upper threshold setup menu
				// A short press of down       brings system in lower threshold setup menu
				if(buttonpress_up == BTNPRESS_LONG || buttonpress_down == BTNPRESS_LONG){
100037d6:	4b70      	ldr	r3, [pc, #448]	; (10003998 <main+0x62c>)
100037d8:	781b      	ldrb	r3, [r3, #0]
100037da:	2b02      	cmp	r3, #2
100037dc:	d003      	beq.n	100037e6 <main+0x47a>
100037de:	4b6f      	ldr	r3, [pc, #444]	; (1000399c <main+0x630>)
100037e0:	781b      	ldrb	r3, [r3, #0]
100037e2:	2b02      	cmp	r3, #2
100037e4:	d109      	bne.n	100037fa <main+0x48e>
					setup_state = SETUP_TIME_TH;
100037e6:	4b6b      	ldr	r3, [pc, #428]	; (10003994 <main+0x628>)
100037e8:	2203      	movs	r2, #3
100037ea:	701a      	strb	r2, [r3, #0]
					led_status_pattern = LED_NUMBER;
100037ec:	4b6c      	ldr	r3, [pc, #432]	; (100039a0 <main+0x634>)
100037ee:	2202      	movs	r2, #2
100037f0:	701a      	strb	r2, [r3, #0]
					led_number = 1;
100037f2:	4b6c      	ldr	r3, [pc, #432]	; (100039a4 <main+0x638>)
100037f4:	2201      	movs	r2, #1
100037f6:	801a      	strh	r2, [r3, #0]
100037f8:	e015      	b.n	10003826 <main+0x4ba>
				}
				else if(buttonpress_up == BTNPRESS_STD){
100037fa:	4b67      	ldr	r3, [pc, #412]	; (10003998 <main+0x62c>)
100037fc:	781b      	ldrb	r3, [r3, #0]
100037fe:	2b01      	cmp	r3, #1
10003800:	d106      	bne.n	10003810 <main+0x4a4>
					setup_state = SETUP_UPPER_TH;
10003802:	4b64      	ldr	r3, [pc, #400]	; (10003994 <main+0x628>)
10003804:	2201      	movs	r2, #1
10003806:	701a      	strb	r2, [r3, #0]
					//led_status_pattern = LED_NUMBER;
					//led_number = 5;
					led_status_pattern = LED_FADE_UP;
10003808:	4b65      	ldr	r3, [pc, #404]	; (100039a0 <main+0x634>)
1000380a:	2204      	movs	r2, #4
1000380c:	701a      	strb	r2, [r3, #0]
1000380e:	e00a      	b.n	10003826 <main+0x4ba>
				}
				else if(buttonpress_down == BTNPRESS_STD){
10003810:	4b62      	ldr	r3, [pc, #392]	; (1000399c <main+0x630>)
10003812:	781b      	ldrb	r3, [r3, #0]
10003814:	2b01      	cmp	r3, #1
10003816:	d106      	bne.n	10003826 <main+0x4ba>
					setup_state = SETUP_LOWER_TH;
10003818:	4b5e      	ldr	r3, [pc, #376]	; (10003994 <main+0x628>)
1000381a:	2202      	movs	r2, #2
1000381c:	701a      	strb	r2, [r3, #0]
					//led_status_pattern = LED_NUMBER;
					//led_number = 3;
					led_status_pattern = LED_FADE_DOWN;
1000381e:	4b60      	ldr	r3, [pc, #384]	; (100039a0 <main+0x634>)
10003820:	2203      	movs	r2, #3
10003822:	701a      	strb	r2, [r3, #0]
				}
				break;
10003824:	e09e      	b.n	10003964 <main+0x5f8>
10003826:	e09d      	b.n	10003964 <main+0x5f8>

				/// Interpret button press:
				// A long  press of up or down brings system back to setup idle
				// A short press of up         increases the upper threshold value
				// A short press of down       decreases the upper threshold value
				if(buttonpress_up == BTNPRESS_LONG || buttonpress_down == BTNPRESS_LONG){
10003828:	4b5b      	ldr	r3, [pc, #364]	; (10003998 <main+0x62c>)
1000382a:	781b      	ldrb	r3, [r3, #0]
1000382c:	2b02      	cmp	r3, #2
1000382e:	d003      	beq.n	10003838 <main+0x4cc>
10003830:	4b5a      	ldr	r3, [pc, #360]	; (1000399c <main+0x630>)
10003832:	781b      	ldrb	r3, [r3, #0]
10003834:	2b02      	cmp	r3, #2
10003836:	d105      	bne.n	10003844 <main+0x4d8>
					setup_state = SETUP_IDLE;
10003838:	4b56      	ldr	r3, [pc, #344]	; (10003994 <main+0x628>)
1000383a:	2200      	movs	r2, #0
1000383c:	701a      	strb	r2, [r3, #0]
					reset_status_led_to_relay_state();
1000383e:	f7ff fc05 	bl	1000304c <reset_status_led_to_relay_state>
10003842:	e024      	b.n	1000388e <main+0x522>
				}
				else if(buttonpress_up == BTNPRESS_STD){
10003844:	4b54      	ldr	r3, [pc, #336]	; (10003998 <main+0x62c>)
10003846:	781b      	ldrb	r3, [r3, #0]
10003848:	2b01      	cmp	r3, #1
1000384a:	d10e      	bne.n	1000386a <main+0x4fe>
					ADC_upper_threshold += ADC_THRESHOLD_INCREMENT;
1000384c:	4b56      	ldr	r3, [pc, #344]	; (100039a8 <main+0x63c>)
1000384e:	681b      	ldr	r3, [r3, #0]
10003850:	337c      	adds	r3, #124	; 0x7c
10003852:	1c1a      	adds	r2, r3, #0
10003854:	4b54      	ldr	r3, [pc, #336]	; (100039a8 <main+0x63c>)
10003856:	601a      	str	r2, [r3, #0]
					if(ADC_upper_threshold > ADC_THRESHOLD_MAX)
10003858:	4b53      	ldr	r3, [pc, #332]	; (100039a8 <main+0x63c>)
1000385a:	681b      	ldr	r3, [r3, #0]
1000385c:	4a53      	ldr	r2, [pc, #332]	; (100039ac <main+0x640>)
1000385e:	4293      	cmp	r3, r2
10003860:	dd15      	ble.n	1000388e <main+0x522>
						ADC_upper_threshold = ADC_THRESHOLD_MAX;
10003862:	4b51      	ldr	r3, [pc, #324]	; (100039a8 <main+0x63c>)
10003864:	4a51      	ldr	r2, [pc, #324]	; (100039ac <main+0x640>)
10003866:	601a      	str	r2, [r3, #0]
					if(ADC_upper_threshold <= 0)
						ADC_upper_threshold = 0;
					//if(ADC_upper_threshold <= ADC_lower_threshold)
						//ADC_upper_threshold = ADC_lower_threshold;
				}
				break;
10003868:	e07c      	b.n	10003964 <main+0x5f8>
				else if(buttonpress_up == BTNPRESS_STD){
					ADC_upper_threshold += ADC_THRESHOLD_INCREMENT;
					if(ADC_upper_threshold > ADC_THRESHOLD_MAX)
						ADC_upper_threshold = ADC_THRESHOLD_MAX;
				}
				else if(buttonpress_down == BTNPRESS_STD){
1000386a:	4b4c      	ldr	r3, [pc, #304]	; (1000399c <main+0x630>)
1000386c:	781b      	ldrb	r3, [r3, #0]
1000386e:	2b01      	cmp	r3, #1
10003870:	d10d      	bne.n	1000388e <main+0x522>
					ADC_upper_threshold -= ADC_THRESHOLD_INCREMENT;
10003872:	4b4d      	ldr	r3, [pc, #308]	; (100039a8 <main+0x63c>)
10003874:	681b      	ldr	r3, [r3, #0]
10003876:	3b7c      	subs	r3, #124	; 0x7c
10003878:	1c1a      	adds	r2, r3, #0
1000387a:	4b4b      	ldr	r3, [pc, #300]	; (100039a8 <main+0x63c>)
1000387c:	601a      	str	r2, [r3, #0]
					if(ADC_upper_threshold <= 0)
1000387e:	4b4a      	ldr	r3, [pc, #296]	; (100039a8 <main+0x63c>)
10003880:	681b      	ldr	r3, [r3, #0]
10003882:	2b00      	cmp	r3, #0
10003884:	dc03      	bgt.n	1000388e <main+0x522>
						ADC_upper_threshold = 0;
10003886:	4b48      	ldr	r3, [pc, #288]	; (100039a8 <main+0x63c>)
10003888:	2200      	movs	r2, #0
1000388a:	601a      	str	r2, [r3, #0]
					//if(ADC_upper_threshold <= ADC_lower_threshold)
						//ADC_upper_threshold = ADC_lower_threshold;
				}
				break;
1000388c:	e06a      	b.n	10003964 <main+0x5f8>
1000388e:	e069      	b.n	10003964 <main+0x5f8>

				/// Interpret button press:
				// A long  press of up or down brings system back to setup idle
				// A short press of up         increases the lower threshold value
				// A short press of down       decreases the lower threshold value
				if(buttonpress_up == BTNPRESS_LONG || buttonpress_down == BTNPRESS_LONG){
10003890:	4b41      	ldr	r3, [pc, #260]	; (10003998 <main+0x62c>)
10003892:	781b      	ldrb	r3, [r3, #0]
10003894:	2b02      	cmp	r3, #2
10003896:	d003      	beq.n	100038a0 <main+0x534>
10003898:	4b40      	ldr	r3, [pc, #256]	; (1000399c <main+0x630>)
1000389a:	781b      	ldrb	r3, [r3, #0]
1000389c:	2b02      	cmp	r3, #2
1000389e:	d105      	bne.n	100038ac <main+0x540>
					setup_state = SETUP_IDLE;
100038a0:	4b3c      	ldr	r3, [pc, #240]	; (10003994 <main+0x628>)
100038a2:	2200      	movs	r2, #0
100038a4:	701a      	strb	r2, [r3, #0]
					reset_status_led_to_relay_state();
100038a6:	f7ff fbd1 	bl	1000304c <reset_status_led_to_relay_state>
100038aa:	e024      	b.n	100038f6 <main+0x58a>
				}
				else if(buttonpress_up == BTNPRESS_STD){
100038ac:	4b3a      	ldr	r3, [pc, #232]	; (10003998 <main+0x62c>)
100038ae:	781b      	ldrb	r3, [r3, #0]
100038b0:	2b01      	cmp	r3, #1
100038b2:	d10e      	bne.n	100038d2 <main+0x566>
					ADC_lower_threshold += ADC_THRESHOLD_INCREMENT;
100038b4:	4b31      	ldr	r3, [pc, #196]	; (1000397c <main+0x610>)
100038b6:	681b      	ldr	r3, [r3, #0]
100038b8:	337c      	adds	r3, #124	; 0x7c
100038ba:	1c1a      	adds	r2, r3, #0
100038bc:	4b2f      	ldr	r3, [pc, #188]	; (1000397c <main+0x610>)
100038be:	601a      	str	r2, [r3, #0]
					if(ADC_lower_threshold > ADC_THRESHOLD_MAX)
100038c0:	4b2e      	ldr	r3, [pc, #184]	; (1000397c <main+0x610>)
100038c2:	681b      	ldr	r3, [r3, #0]
100038c4:	4a39      	ldr	r2, [pc, #228]	; (100039ac <main+0x640>)
100038c6:	4293      	cmp	r3, r2
100038c8:	dd15      	ble.n	100038f6 <main+0x58a>
						ADC_lower_threshold = ADC_THRESHOLD_MAX;
100038ca:	4b2c      	ldr	r3, [pc, #176]	; (1000397c <main+0x610>)
100038cc:	4a37      	ldr	r2, [pc, #220]	; (100039ac <main+0x640>)
100038ce:	601a      	str	r2, [r3, #0]
				else if(buttonpress_down == BTNPRESS_STD){
					ADC_lower_threshold -= ADC_THRESHOLD_INCREMENT;
					if(ADC_lower_threshold <= 0)
						ADC_lower_threshold = 0;
				}
				break;
100038d0:	e048      	b.n	10003964 <main+0x5f8>
				else if(buttonpress_up == BTNPRESS_STD){
					ADC_lower_threshold += ADC_THRESHOLD_INCREMENT;
					if(ADC_lower_threshold > ADC_THRESHOLD_MAX)
						ADC_lower_threshold = ADC_THRESHOLD_MAX;
				}
				else if(buttonpress_down == BTNPRESS_STD){
100038d2:	4b32      	ldr	r3, [pc, #200]	; (1000399c <main+0x630>)
100038d4:	781b      	ldrb	r3, [r3, #0]
100038d6:	2b01      	cmp	r3, #1
100038d8:	d10d      	bne.n	100038f6 <main+0x58a>
					ADC_lower_threshold -= ADC_THRESHOLD_INCREMENT;
100038da:	4b28      	ldr	r3, [pc, #160]	; (1000397c <main+0x610>)
100038dc:	681b      	ldr	r3, [r3, #0]
100038de:	3b7c      	subs	r3, #124	; 0x7c
100038e0:	1c1a      	adds	r2, r3, #0
100038e2:	4b26      	ldr	r3, [pc, #152]	; (1000397c <main+0x610>)
100038e4:	601a      	str	r2, [r3, #0]
					if(ADC_lower_threshold <= 0)
100038e6:	4b25      	ldr	r3, [pc, #148]	; (1000397c <main+0x610>)
100038e8:	681b      	ldr	r3, [r3, #0]
100038ea:	2b00      	cmp	r3, #0
100038ec:	dc03      	bgt.n	100038f6 <main+0x58a>
						ADC_lower_threshold = 0;
100038ee:	4b23      	ldr	r3, [pc, #140]	; (1000397c <main+0x610>)
100038f0:	2200      	movs	r2, #0
100038f2:	601a      	str	r2, [r3, #0]
				}
				break;
100038f4:	e036      	b.n	10003964 <main+0x5f8>
100038f6:	e035      	b.n	10003964 <main+0x5f8>
			case SETUP_TIME_TH:
				/// Interpret button press:
				// A long  press of up or down brings system back to setup idle
				// A short press of up         increases the threshold exceed time
				// A short press of down       decreases the threshold exceed time
				if(buttonpress_up == BTNPRESS_LONG || buttonpress_down == BTNPRESS_LONG){
100038f8:	4b27      	ldr	r3, [pc, #156]	; (10003998 <main+0x62c>)
100038fa:	781b      	ldrb	r3, [r3, #0]
100038fc:	2b02      	cmp	r3, #2
100038fe:	d003      	beq.n	10003908 <main+0x59c>
10003900:	4b26      	ldr	r3, [pc, #152]	; (1000399c <main+0x630>)
10003902:	781b      	ldrb	r3, [r3, #0]
10003904:	2b02      	cmp	r3, #2
10003906:	d105      	bne.n	10003914 <main+0x5a8>
					setup_state = SETUP_IDLE;
10003908:	4b22      	ldr	r3, [pc, #136]	; (10003994 <main+0x628>)
1000390a:	2200      	movs	r2, #0
1000390c:	701a      	strb	r2, [r3, #0]
					reset_status_led_to_relay_state();
1000390e:	f7ff fb9d 	bl	1000304c <reset_status_led_to_relay_state>
10003912:	e026      	b.n	10003962 <main+0x5f6>
				}
				else if(buttonpress_up == BTNPRESS_STD){
10003914:	4b20      	ldr	r3, [pc, #128]	; (10003998 <main+0x62c>)
10003916:	781b      	ldrb	r3, [r3, #0]
10003918:	2b01      	cmp	r3, #1
1000391a:	d10f      	bne.n	1000393c <main+0x5d0>
					relay_threshold_latchtime += RELAY_LATCHTIME_INCREMENT;
1000391c:	4b19      	ldr	r3, [pc, #100]	; (10003984 <main+0x618>)
1000391e:	881b      	ldrh	r3, [r3, #0]
10003920:	33f5      	adds	r3, #245	; 0xf5
10003922:	33ff      	adds	r3, #255	; 0xff
10003924:	b29a      	uxth	r2, r3
10003926:	4b17      	ldr	r3, [pc, #92]	; (10003984 <main+0x618>)
10003928:	801a      	strh	r2, [r3, #0]
					if(relay_threshold_latchtime > RELAY_LATCHTIME_MAX)
1000392a:	4b16      	ldr	r3, [pc, #88]	; (10003984 <main+0x618>)
1000392c:	881b      	ldrh	r3, [r3, #0]
1000392e:	4a20      	ldr	r2, [pc, #128]	; (100039b0 <main+0x644>)
10003930:	4293      	cmp	r3, r2
10003932:	d916      	bls.n	10003962 <main+0x5f6>
						relay_threshold_latchtime = RELAY_LATCHTIME_MAX;
10003934:	4b13      	ldr	r3, [pc, #76]	; (10003984 <main+0x618>)
10003936:	4a1f      	ldr	r2, [pc, #124]	; (100039b4 <main+0x648>)
10003938:	801a      	strh	r2, [r3, #0]
				else if(buttonpress_down == BTNPRESS_STD){
					relay_threshold_latchtime -= RELAY_LATCHTIME_INCREMENT;
					if(relay_threshold_latchtime <= 0)
						relay_threshold_latchtime = 0;
				}
				break;
1000393a:	e012      	b.n	10003962 <main+0x5f6>
				else if(buttonpress_up == BTNPRESS_STD){
					relay_threshold_latchtime += RELAY_LATCHTIME_INCREMENT;
					if(relay_threshold_latchtime > RELAY_LATCHTIME_MAX)
						relay_threshold_latchtime = RELAY_LATCHTIME_MAX;
				}
				else if(buttonpress_down == BTNPRESS_STD){
1000393c:	4b17      	ldr	r3, [pc, #92]	; (1000399c <main+0x630>)
1000393e:	781b      	ldrb	r3, [r3, #0]
10003940:	2b01      	cmp	r3, #1
10003942:	d10e      	bne.n	10003962 <main+0x5f6>
					relay_threshold_latchtime -= RELAY_LATCHTIME_INCREMENT;
10003944:	4b0f      	ldr	r3, [pc, #60]	; (10003984 <main+0x618>)
10003946:	881b      	ldrh	r3, [r3, #0]
10003948:	3bf5      	subs	r3, #245	; 0xf5
1000394a:	3bff      	subs	r3, #255	; 0xff
1000394c:	b29a      	uxth	r2, r3
1000394e:	4b0d      	ldr	r3, [pc, #52]	; (10003984 <main+0x618>)
10003950:	801a      	strh	r2, [r3, #0]
					if(relay_threshold_latchtime <= 0)
10003952:	4b0c      	ldr	r3, [pc, #48]	; (10003984 <main+0x618>)
10003954:	881b      	ldrh	r3, [r3, #0]
10003956:	2b00      	cmp	r3, #0
10003958:	d103      	bne.n	10003962 <main+0x5f6>
						relay_threshold_latchtime = 0;
1000395a:	4b0a      	ldr	r3, [pc, #40]	; (10003984 <main+0x618>)
1000395c:	2200      	movs	r2, #0
1000395e:	801a      	strh	r2, [r3, #0]
				}
				break;
10003960:	e7ff      	b.n	10003962 <main+0x5f6>
10003962:	46c0      	nop			; (mov r8, r8)
		}

		// Reset all button presses
		buttonpress_usb = BTNPRESS_NOT;
10003964:	4b14      	ldr	r3, [pc, #80]	; (100039b8 <main+0x64c>)
10003966:	2200      	movs	r2, #0
10003968:	701a      	strb	r2, [r3, #0]
		buttonpress_up = BTNPRESS_NOT;
1000396a:	4b0b      	ldr	r3, [pc, #44]	; (10003998 <main+0x62c>)
1000396c:	2200      	movs	r2, #0
1000396e:	701a      	strb	r2, [r3, #0]
		buttonpress_down = BTNPRESS_NOT;
10003970:	4b0a      	ldr	r3, [pc, #40]	; (1000399c <main+0x630>)
10003972:	2200      	movs	r2, #0
10003974:	701a      	strb	r2, [r3, #0]
	}
10003976:	e530      	b.n	100033da <main+0x6e>
10003978:	20000688 	.word	0x20000688
1000397c:	2000059c 	.word	0x2000059c
10003980:	20000680 	.word	0x20000680
10003984:	20000594 	.word	0x20000594
10003988:	200007d0 	.word	0x200007d0
1000398c:	1000767c 	.word	0x1000767c
10003990:	20000578 	.word	0x20000578
10003994:	200007d2 	.word	0x200007d2
10003998:	20000669 	.word	0x20000669
1000399c:	2000066a 	.word	0x2000066a
100039a0:	20000664 	.word	0x20000664
100039a4:	20000666 	.word	0x20000666
100039a8:	20000598 	.word	0x20000598
100039ac:	00000fff 	.word	0x00000fff
100039b0:	0000ea60 	.word	0x0000ea60
100039b4:	ffffea60 	.word	0xffffea60
100039b8:	20000668 	.word	0x20000668

100039bc <VADC0_C0_0_IRQHandler>:
//}

int meas_invalid_count = 0;

void Adc_Measurement_Handler()
{
100039bc:	b580      	push	{r7, lr}
100039be:	b082      	sub	sp, #8
100039c0:	af00      	add	r7, sp, #0
	//uint8_t channel_num;
	//uint8_t group_num;
	uint32_t adc_register;

	#if(UC_SERIES == XMC11)
	adc_register = ADC_MEASUREMENT_GetGlobalDetailedResult();
100039c2:	f7ff facb 	bl	10002f5c <ADC_MEASUREMENT_GetGlobalDetailedResult>
100039c6:	1c03      	adds	r3, r0, #0
100039c8:	607b      	str	r3, [r7, #4]
	#endif

	if((bool)(adc_register >> VADC_GLOBRES_VF_Pos))
100039ca:	687b      	ldr	r3, [r7, #4]
100039cc:	2b00      	cmp	r3, #0
100039ce:	da0d      	bge.n	100039ec <VADC0_C0_0_IRQHandler+0x30>
	{
		//channel_num = (adc_register & VADC_GLOBRES_CHNR_Msk) >> VADC_GLOBRES_CHNR_Pos;
		//group_num = ADC_MEASUREMENT_Channel_A.group_index;
		ADC_val_current = (adc_register & VADC_GLOBRES_RESULT_Msk) >> ((uint32_t)(ADC_SENSOR.iclass_config_handle->conversion_mode_standard) * (uint32_t)2);
100039d0:	687b      	ldr	r3, [r7, #4]
100039d2:	041b      	lsls	r3, r3, #16
100039d4:	0c1a      	lsrs	r2, r3, #16
100039d6:	4b09      	ldr	r3, [pc, #36]	; (100039fc <VADC0_C0_0_IRQHandler+0x40>)
100039d8:	689b      	ldr	r3, [r3, #8]
100039da:	785b      	ldrb	r3, [r3, #1]
100039dc:	075b      	lsls	r3, r3, #29
100039de:	0f5b      	lsrs	r3, r3, #29
100039e0:	b2db      	uxtb	r3, r3
100039e2:	005b      	lsls	r3, r3, #1
100039e4:	40da      	lsrs	r2, r3
100039e6:	4b06      	ldr	r3, [pc, #24]	; (10003a00 <VADC0_C0_0_IRQHandler+0x44>)
100039e8:	601a      	str	r2, [r3, #0]
100039ea:	e004      	b.n	100039f6 <VADC0_C0_0_IRQHandler+0x3a>
	}
	else{
		meas_invalid_count++;
100039ec:	4b05      	ldr	r3, [pc, #20]	; (10003a04 <VADC0_C0_0_IRQHandler+0x48>)
100039ee:	681b      	ldr	r3, [r3, #0]
100039f0:	1c5a      	adds	r2, r3, #1
100039f2:	4b04      	ldr	r3, [pc, #16]	; (10003a04 <VADC0_C0_0_IRQHandler+0x48>)
100039f4:	601a      	str	r2, [r3, #0]
	}

}
100039f6:	46bd      	mov	sp, r7
100039f8:	b002      	add	sp, #8
100039fa:	bd80      	pop	{r7, pc}
100039fc:	20000578 	.word	0x20000578
10003a00:	20000680 	.word	0x20000680
10003a04:	20000698 	.word	0x20000698

10003a08 <__aeabi_uidiv>:
10003a08:	2200      	movs	r2, #0
10003a0a:	0843      	lsrs	r3, r0, #1
10003a0c:	428b      	cmp	r3, r1
10003a0e:	d374      	bcc.n	10003afa <__aeabi_uidiv+0xf2>
10003a10:	0903      	lsrs	r3, r0, #4
10003a12:	428b      	cmp	r3, r1
10003a14:	d35f      	bcc.n	10003ad6 <__aeabi_uidiv+0xce>
10003a16:	0a03      	lsrs	r3, r0, #8
10003a18:	428b      	cmp	r3, r1
10003a1a:	d344      	bcc.n	10003aa6 <__aeabi_uidiv+0x9e>
10003a1c:	0b03      	lsrs	r3, r0, #12
10003a1e:	428b      	cmp	r3, r1
10003a20:	d328      	bcc.n	10003a74 <__aeabi_uidiv+0x6c>
10003a22:	0c03      	lsrs	r3, r0, #16
10003a24:	428b      	cmp	r3, r1
10003a26:	d30d      	bcc.n	10003a44 <__aeabi_uidiv+0x3c>
10003a28:	22ff      	movs	r2, #255	; 0xff
10003a2a:	0209      	lsls	r1, r1, #8
10003a2c:	ba12      	rev	r2, r2
10003a2e:	0c03      	lsrs	r3, r0, #16
10003a30:	428b      	cmp	r3, r1
10003a32:	d302      	bcc.n	10003a3a <__aeabi_uidiv+0x32>
10003a34:	1212      	asrs	r2, r2, #8
10003a36:	0209      	lsls	r1, r1, #8
10003a38:	d065      	beq.n	10003b06 <__aeabi_uidiv+0xfe>
10003a3a:	0b03      	lsrs	r3, r0, #12
10003a3c:	428b      	cmp	r3, r1
10003a3e:	d319      	bcc.n	10003a74 <__aeabi_uidiv+0x6c>
10003a40:	e000      	b.n	10003a44 <__aeabi_uidiv+0x3c>
10003a42:	0a09      	lsrs	r1, r1, #8
10003a44:	0bc3      	lsrs	r3, r0, #15
10003a46:	428b      	cmp	r3, r1
10003a48:	d301      	bcc.n	10003a4e <__aeabi_uidiv+0x46>
10003a4a:	03cb      	lsls	r3, r1, #15
10003a4c:	1ac0      	subs	r0, r0, r3
10003a4e:	4152      	adcs	r2, r2
10003a50:	0b83      	lsrs	r3, r0, #14
10003a52:	428b      	cmp	r3, r1
10003a54:	d301      	bcc.n	10003a5a <__aeabi_uidiv+0x52>
10003a56:	038b      	lsls	r3, r1, #14
10003a58:	1ac0      	subs	r0, r0, r3
10003a5a:	4152      	adcs	r2, r2
10003a5c:	0b43      	lsrs	r3, r0, #13
10003a5e:	428b      	cmp	r3, r1
10003a60:	d301      	bcc.n	10003a66 <__aeabi_uidiv+0x5e>
10003a62:	034b      	lsls	r3, r1, #13
10003a64:	1ac0      	subs	r0, r0, r3
10003a66:	4152      	adcs	r2, r2
10003a68:	0b03      	lsrs	r3, r0, #12
10003a6a:	428b      	cmp	r3, r1
10003a6c:	d301      	bcc.n	10003a72 <__aeabi_uidiv+0x6a>
10003a6e:	030b      	lsls	r3, r1, #12
10003a70:	1ac0      	subs	r0, r0, r3
10003a72:	4152      	adcs	r2, r2
10003a74:	0ac3      	lsrs	r3, r0, #11
10003a76:	428b      	cmp	r3, r1
10003a78:	d301      	bcc.n	10003a7e <__aeabi_uidiv+0x76>
10003a7a:	02cb      	lsls	r3, r1, #11
10003a7c:	1ac0      	subs	r0, r0, r3
10003a7e:	4152      	adcs	r2, r2
10003a80:	0a83      	lsrs	r3, r0, #10
10003a82:	428b      	cmp	r3, r1
10003a84:	d301      	bcc.n	10003a8a <__aeabi_uidiv+0x82>
10003a86:	028b      	lsls	r3, r1, #10
10003a88:	1ac0      	subs	r0, r0, r3
10003a8a:	4152      	adcs	r2, r2
10003a8c:	0a43      	lsrs	r3, r0, #9
10003a8e:	428b      	cmp	r3, r1
10003a90:	d301      	bcc.n	10003a96 <__aeabi_uidiv+0x8e>
10003a92:	024b      	lsls	r3, r1, #9
10003a94:	1ac0      	subs	r0, r0, r3
10003a96:	4152      	adcs	r2, r2
10003a98:	0a03      	lsrs	r3, r0, #8
10003a9a:	428b      	cmp	r3, r1
10003a9c:	d301      	bcc.n	10003aa2 <__aeabi_uidiv+0x9a>
10003a9e:	020b      	lsls	r3, r1, #8
10003aa0:	1ac0      	subs	r0, r0, r3
10003aa2:	4152      	adcs	r2, r2
10003aa4:	d2cd      	bcs.n	10003a42 <__aeabi_uidiv+0x3a>
10003aa6:	09c3      	lsrs	r3, r0, #7
10003aa8:	428b      	cmp	r3, r1
10003aaa:	d301      	bcc.n	10003ab0 <__aeabi_uidiv+0xa8>
10003aac:	01cb      	lsls	r3, r1, #7
10003aae:	1ac0      	subs	r0, r0, r3
10003ab0:	4152      	adcs	r2, r2
10003ab2:	0983      	lsrs	r3, r0, #6
10003ab4:	428b      	cmp	r3, r1
10003ab6:	d301      	bcc.n	10003abc <__aeabi_uidiv+0xb4>
10003ab8:	018b      	lsls	r3, r1, #6
10003aba:	1ac0      	subs	r0, r0, r3
10003abc:	4152      	adcs	r2, r2
10003abe:	0943      	lsrs	r3, r0, #5
10003ac0:	428b      	cmp	r3, r1
10003ac2:	d301      	bcc.n	10003ac8 <__aeabi_uidiv+0xc0>
10003ac4:	014b      	lsls	r3, r1, #5
10003ac6:	1ac0      	subs	r0, r0, r3
10003ac8:	4152      	adcs	r2, r2
10003aca:	0903      	lsrs	r3, r0, #4
10003acc:	428b      	cmp	r3, r1
10003ace:	d301      	bcc.n	10003ad4 <__aeabi_uidiv+0xcc>
10003ad0:	010b      	lsls	r3, r1, #4
10003ad2:	1ac0      	subs	r0, r0, r3
10003ad4:	4152      	adcs	r2, r2
10003ad6:	08c3      	lsrs	r3, r0, #3
10003ad8:	428b      	cmp	r3, r1
10003ada:	d301      	bcc.n	10003ae0 <__aeabi_uidiv+0xd8>
10003adc:	00cb      	lsls	r3, r1, #3
10003ade:	1ac0      	subs	r0, r0, r3
10003ae0:	4152      	adcs	r2, r2
10003ae2:	0883      	lsrs	r3, r0, #2
10003ae4:	428b      	cmp	r3, r1
10003ae6:	d301      	bcc.n	10003aec <__aeabi_uidiv+0xe4>
10003ae8:	008b      	lsls	r3, r1, #2
10003aea:	1ac0      	subs	r0, r0, r3
10003aec:	4152      	adcs	r2, r2
10003aee:	0843      	lsrs	r3, r0, #1
10003af0:	428b      	cmp	r3, r1
10003af2:	d301      	bcc.n	10003af8 <__aeabi_uidiv+0xf0>
10003af4:	004b      	lsls	r3, r1, #1
10003af6:	1ac0      	subs	r0, r0, r3
10003af8:	4152      	adcs	r2, r2
10003afa:	1a41      	subs	r1, r0, r1
10003afc:	d200      	bcs.n	10003b00 <__aeabi_uidiv+0xf8>
10003afe:	4601      	mov	r1, r0
10003b00:	4152      	adcs	r2, r2
10003b02:	4610      	mov	r0, r2
10003b04:	4770      	bx	lr
10003b06:	e7ff      	b.n	10003b08 <__aeabi_uidiv+0x100>
10003b08:	b501      	push	{r0, lr}
10003b0a:	2000      	movs	r0, #0
10003b0c:	f000 f8fc 	bl	10003d08 <__aeabi_idiv0>
10003b10:	bd02      	pop	{r1, pc}
10003b12:	46c0      	nop			; (mov r8, r8)

10003b14 <__aeabi_uidivmod>:
10003b14:	2900      	cmp	r1, #0
10003b16:	d0f7      	beq.n	10003b08 <__aeabi_uidiv+0x100>
10003b18:	b503      	push	{r0, r1, lr}
10003b1a:	f7ff ff75 	bl	10003a08 <__aeabi_uidiv>
10003b1e:	bc0e      	pop	{r1, r2, r3}
10003b20:	4342      	muls	r2, r0
10003b22:	1a89      	subs	r1, r1, r2
10003b24:	4718      	bx	r3
10003b26:	46c0      	nop			; (mov r8, r8)

10003b28 <__aeabi_idiv>:
10003b28:	4603      	mov	r3, r0
10003b2a:	430b      	orrs	r3, r1
10003b2c:	d47f      	bmi.n	10003c2e <__aeabi_idiv+0x106>
10003b2e:	2200      	movs	r2, #0
10003b30:	0843      	lsrs	r3, r0, #1
10003b32:	428b      	cmp	r3, r1
10003b34:	d374      	bcc.n	10003c20 <__aeabi_idiv+0xf8>
10003b36:	0903      	lsrs	r3, r0, #4
10003b38:	428b      	cmp	r3, r1
10003b3a:	d35f      	bcc.n	10003bfc <__aeabi_idiv+0xd4>
10003b3c:	0a03      	lsrs	r3, r0, #8
10003b3e:	428b      	cmp	r3, r1
10003b40:	d344      	bcc.n	10003bcc <__aeabi_idiv+0xa4>
10003b42:	0b03      	lsrs	r3, r0, #12
10003b44:	428b      	cmp	r3, r1
10003b46:	d328      	bcc.n	10003b9a <__aeabi_idiv+0x72>
10003b48:	0c03      	lsrs	r3, r0, #16
10003b4a:	428b      	cmp	r3, r1
10003b4c:	d30d      	bcc.n	10003b6a <__aeabi_idiv+0x42>
10003b4e:	22ff      	movs	r2, #255	; 0xff
10003b50:	0209      	lsls	r1, r1, #8
10003b52:	ba12      	rev	r2, r2
10003b54:	0c03      	lsrs	r3, r0, #16
10003b56:	428b      	cmp	r3, r1
10003b58:	d302      	bcc.n	10003b60 <__aeabi_idiv+0x38>
10003b5a:	1212      	asrs	r2, r2, #8
10003b5c:	0209      	lsls	r1, r1, #8
10003b5e:	d065      	beq.n	10003c2c <__aeabi_idiv+0x104>
10003b60:	0b03      	lsrs	r3, r0, #12
10003b62:	428b      	cmp	r3, r1
10003b64:	d319      	bcc.n	10003b9a <__aeabi_idiv+0x72>
10003b66:	e000      	b.n	10003b6a <__aeabi_idiv+0x42>
10003b68:	0a09      	lsrs	r1, r1, #8
10003b6a:	0bc3      	lsrs	r3, r0, #15
10003b6c:	428b      	cmp	r3, r1
10003b6e:	d301      	bcc.n	10003b74 <__aeabi_idiv+0x4c>
10003b70:	03cb      	lsls	r3, r1, #15
10003b72:	1ac0      	subs	r0, r0, r3
10003b74:	4152      	adcs	r2, r2
10003b76:	0b83      	lsrs	r3, r0, #14
10003b78:	428b      	cmp	r3, r1
10003b7a:	d301      	bcc.n	10003b80 <__aeabi_idiv+0x58>
10003b7c:	038b      	lsls	r3, r1, #14
10003b7e:	1ac0      	subs	r0, r0, r3
10003b80:	4152      	adcs	r2, r2
10003b82:	0b43      	lsrs	r3, r0, #13
10003b84:	428b      	cmp	r3, r1
10003b86:	d301      	bcc.n	10003b8c <__aeabi_idiv+0x64>
10003b88:	034b      	lsls	r3, r1, #13
10003b8a:	1ac0      	subs	r0, r0, r3
10003b8c:	4152      	adcs	r2, r2
10003b8e:	0b03      	lsrs	r3, r0, #12
10003b90:	428b      	cmp	r3, r1
10003b92:	d301      	bcc.n	10003b98 <__aeabi_idiv+0x70>
10003b94:	030b      	lsls	r3, r1, #12
10003b96:	1ac0      	subs	r0, r0, r3
10003b98:	4152      	adcs	r2, r2
10003b9a:	0ac3      	lsrs	r3, r0, #11
10003b9c:	428b      	cmp	r3, r1
10003b9e:	d301      	bcc.n	10003ba4 <__aeabi_idiv+0x7c>
10003ba0:	02cb      	lsls	r3, r1, #11
10003ba2:	1ac0      	subs	r0, r0, r3
10003ba4:	4152      	adcs	r2, r2
10003ba6:	0a83      	lsrs	r3, r0, #10
10003ba8:	428b      	cmp	r3, r1
10003baa:	d301      	bcc.n	10003bb0 <__aeabi_idiv+0x88>
10003bac:	028b      	lsls	r3, r1, #10
10003bae:	1ac0      	subs	r0, r0, r3
10003bb0:	4152      	adcs	r2, r2
10003bb2:	0a43      	lsrs	r3, r0, #9
10003bb4:	428b      	cmp	r3, r1
10003bb6:	d301      	bcc.n	10003bbc <__aeabi_idiv+0x94>
10003bb8:	024b      	lsls	r3, r1, #9
10003bba:	1ac0      	subs	r0, r0, r3
10003bbc:	4152      	adcs	r2, r2
10003bbe:	0a03      	lsrs	r3, r0, #8
10003bc0:	428b      	cmp	r3, r1
10003bc2:	d301      	bcc.n	10003bc8 <__aeabi_idiv+0xa0>
10003bc4:	020b      	lsls	r3, r1, #8
10003bc6:	1ac0      	subs	r0, r0, r3
10003bc8:	4152      	adcs	r2, r2
10003bca:	d2cd      	bcs.n	10003b68 <__aeabi_idiv+0x40>
10003bcc:	09c3      	lsrs	r3, r0, #7
10003bce:	428b      	cmp	r3, r1
10003bd0:	d301      	bcc.n	10003bd6 <__aeabi_idiv+0xae>
10003bd2:	01cb      	lsls	r3, r1, #7
10003bd4:	1ac0      	subs	r0, r0, r3
10003bd6:	4152      	adcs	r2, r2
10003bd8:	0983      	lsrs	r3, r0, #6
10003bda:	428b      	cmp	r3, r1
10003bdc:	d301      	bcc.n	10003be2 <__aeabi_idiv+0xba>
10003bde:	018b      	lsls	r3, r1, #6
10003be0:	1ac0      	subs	r0, r0, r3
10003be2:	4152      	adcs	r2, r2
10003be4:	0943      	lsrs	r3, r0, #5
10003be6:	428b      	cmp	r3, r1
10003be8:	d301      	bcc.n	10003bee <__aeabi_idiv+0xc6>
10003bea:	014b      	lsls	r3, r1, #5
10003bec:	1ac0      	subs	r0, r0, r3
10003bee:	4152      	adcs	r2, r2
10003bf0:	0903      	lsrs	r3, r0, #4
10003bf2:	428b      	cmp	r3, r1
10003bf4:	d301      	bcc.n	10003bfa <__aeabi_idiv+0xd2>
10003bf6:	010b      	lsls	r3, r1, #4
10003bf8:	1ac0      	subs	r0, r0, r3
10003bfa:	4152      	adcs	r2, r2
10003bfc:	08c3      	lsrs	r3, r0, #3
10003bfe:	428b      	cmp	r3, r1
10003c00:	d301      	bcc.n	10003c06 <__aeabi_idiv+0xde>
10003c02:	00cb      	lsls	r3, r1, #3
10003c04:	1ac0      	subs	r0, r0, r3
10003c06:	4152      	adcs	r2, r2
10003c08:	0883      	lsrs	r3, r0, #2
10003c0a:	428b      	cmp	r3, r1
10003c0c:	d301      	bcc.n	10003c12 <__aeabi_idiv+0xea>
10003c0e:	008b      	lsls	r3, r1, #2
10003c10:	1ac0      	subs	r0, r0, r3
10003c12:	4152      	adcs	r2, r2
10003c14:	0843      	lsrs	r3, r0, #1
10003c16:	428b      	cmp	r3, r1
10003c18:	d301      	bcc.n	10003c1e <__aeabi_idiv+0xf6>
10003c1a:	004b      	lsls	r3, r1, #1
10003c1c:	1ac0      	subs	r0, r0, r3
10003c1e:	4152      	adcs	r2, r2
10003c20:	1a41      	subs	r1, r0, r1
10003c22:	d200      	bcs.n	10003c26 <__aeabi_idiv+0xfe>
10003c24:	4601      	mov	r1, r0
10003c26:	4152      	adcs	r2, r2
10003c28:	4610      	mov	r0, r2
10003c2a:	4770      	bx	lr
10003c2c:	e05d      	b.n	10003cea <__aeabi_idiv+0x1c2>
10003c2e:	0fca      	lsrs	r2, r1, #31
10003c30:	d000      	beq.n	10003c34 <__aeabi_idiv+0x10c>
10003c32:	4249      	negs	r1, r1
10003c34:	1003      	asrs	r3, r0, #32
10003c36:	d300      	bcc.n	10003c3a <__aeabi_idiv+0x112>
10003c38:	4240      	negs	r0, r0
10003c3a:	4053      	eors	r3, r2
10003c3c:	2200      	movs	r2, #0
10003c3e:	469c      	mov	ip, r3
10003c40:	0903      	lsrs	r3, r0, #4
10003c42:	428b      	cmp	r3, r1
10003c44:	d32d      	bcc.n	10003ca2 <__aeabi_idiv+0x17a>
10003c46:	0a03      	lsrs	r3, r0, #8
10003c48:	428b      	cmp	r3, r1
10003c4a:	d312      	bcc.n	10003c72 <__aeabi_idiv+0x14a>
10003c4c:	22fc      	movs	r2, #252	; 0xfc
10003c4e:	0189      	lsls	r1, r1, #6
10003c50:	ba12      	rev	r2, r2
10003c52:	0a03      	lsrs	r3, r0, #8
10003c54:	428b      	cmp	r3, r1
10003c56:	d30c      	bcc.n	10003c72 <__aeabi_idiv+0x14a>
10003c58:	0189      	lsls	r1, r1, #6
10003c5a:	1192      	asrs	r2, r2, #6
10003c5c:	428b      	cmp	r3, r1
10003c5e:	d308      	bcc.n	10003c72 <__aeabi_idiv+0x14a>
10003c60:	0189      	lsls	r1, r1, #6
10003c62:	1192      	asrs	r2, r2, #6
10003c64:	428b      	cmp	r3, r1
10003c66:	d304      	bcc.n	10003c72 <__aeabi_idiv+0x14a>
10003c68:	0189      	lsls	r1, r1, #6
10003c6a:	d03a      	beq.n	10003ce2 <__aeabi_idiv+0x1ba>
10003c6c:	1192      	asrs	r2, r2, #6
10003c6e:	e000      	b.n	10003c72 <__aeabi_idiv+0x14a>
10003c70:	0989      	lsrs	r1, r1, #6
10003c72:	09c3      	lsrs	r3, r0, #7
10003c74:	428b      	cmp	r3, r1
10003c76:	d301      	bcc.n	10003c7c <__aeabi_idiv+0x154>
10003c78:	01cb      	lsls	r3, r1, #7
10003c7a:	1ac0      	subs	r0, r0, r3
10003c7c:	4152      	adcs	r2, r2
10003c7e:	0983      	lsrs	r3, r0, #6
10003c80:	428b      	cmp	r3, r1
10003c82:	d301      	bcc.n	10003c88 <__aeabi_idiv+0x160>
10003c84:	018b      	lsls	r3, r1, #6
10003c86:	1ac0      	subs	r0, r0, r3
10003c88:	4152      	adcs	r2, r2
10003c8a:	0943      	lsrs	r3, r0, #5
10003c8c:	428b      	cmp	r3, r1
10003c8e:	d301      	bcc.n	10003c94 <__aeabi_idiv+0x16c>
10003c90:	014b      	lsls	r3, r1, #5
10003c92:	1ac0      	subs	r0, r0, r3
10003c94:	4152      	adcs	r2, r2
10003c96:	0903      	lsrs	r3, r0, #4
10003c98:	428b      	cmp	r3, r1
10003c9a:	d301      	bcc.n	10003ca0 <__aeabi_idiv+0x178>
10003c9c:	010b      	lsls	r3, r1, #4
10003c9e:	1ac0      	subs	r0, r0, r3
10003ca0:	4152      	adcs	r2, r2
10003ca2:	08c3      	lsrs	r3, r0, #3
10003ca4:	428b      	cmp	r3, r1
10003ca6:	d301      	bcc.n	10003cac <__aeabi_idiv+0x184>
10003ca8:	00cb      	lsls	r3, r1, #3
10003caa:	1ac0      	subs	r0, r0, r3
10003cac:	4152      	adcs	r2, r2
10003cae:	0883      	lsrs	r3, r0, #2
10003cb0:	428b      	cmp	r3, r1
10003cb2:	d301      	bcc.n	10003cb8 <__aeabi_idiv+0x190>
10003cb4:	008b      	lsls	r3, r1, #2
10003cb6:	1ac0      	subs	r0, r0, r3
10003cb8:	4152      	adcs	r2, r2
10003cba:	d2d9      	bcs.n	10003c70 <__aeabi_idiv+0x148>
10003cbc:	0843      	lsrs	r3, r0, #1
10003cbe:	428b      	cmp	r3, r1
10003cc0:	d301      	bcc.n	10003cc6 <__aeabi_idiv+0x19e>
10003cc2:	004b      	lsls	r3, r1, #1
10003cc4:	1ac0      	subs	r0, r0, r3
10003cc6:	4152      	adcs	r2, r2
10003cc8:	1a41      	subs	r1, r0, r1
10003cca:	d200      	bcs.n	10003cce <__aeabi_idiv+0x1a6>
10003ccc:	4601      	mov	r1, r0
10003cce:	4663      	mov	r3, ip
10003cd0:	4152      	adcs	r2, r2
10003cd2:	105b      	asrs	r3, r3, #1
10003cd4:	4610      	mov	r0, r2
10003cd6:	d301      	bcc.n	10003cdc <__aeabi_idiv+0x1b4>
10003cd8:	4240      	negs	r0, r0
10003cda:	2b00      	cmp	r3, #0
10003cdc:	d500      	bpl.n	10003ce0 <__aeabi_idiv+0x1b8>
10003cde:	4249      	negs	r1, r1
10003ce0:	4770      	bx	lr
10003ce2:	4663      	mov	r3, ip
10003ce4:	105b      	asrs	r3, r3, #1
10003ce6:	d300      	bcc.n	10003cea <__aeabi_idiv+0x1c2>
10003ce8:	4240      	negs	r0, r0
10003cea:	b501      	push	{r0, lr}
10003cec:	2000      	movs	r0, #0
10003cee:	f000 f80b 	bl	10003d08 <__aeabi_idiv0>
10003cf2:	bd02      	pop	{r1, pc}

10003cf4 <__aeabi_idivmod>:
10003cf4:	2900      	cmp	r1, #0
10003cf6:	d0f8      	beq.n	10003cea <__aeabi_idiv+0x1c2>
10003cf8:	b503      	push	{r0, r1, lr}
10003cfa:	f7ff ff15 	bl	10003b28 <__aeabi_idiv>
10003cfe:	bc0e      	pop	{r1, r2, r3}
10003d00:	4342      	muls	r2, r0
10003d02:	1a89      	subs	r1, r1, r2
10003d04:	4718      	bx	r3
10003d06:	46c0      	nop			; (mov r8, r8)

10003d08 <__aeabi_idiv0>:
10003d08:	4770      	bx	lr
10003d0a:	46c0      	nop			; (mov r8, r8)

10003d0c <__clzsi2>:
10003d0c:	211c      	movs	r1, #28
10003d0e:	2301      	movs	r3, #1
10003d10:	041b      	lsls	r3, r3, #16
10003d12:	4298      	cmp	r0, r3
10003d14:	d301      	bcc.n	10003d1a <__clzsi2+0xe>
10003d16:	0c00      	lsrs	r0, r0, #16
10003d18:	3910      	subs	r1, #16
10003d1a:	0a1b      	lsrs	r3, r3, #8
10003d1c:	4298      	cmp	r0, r3
10003d1e:	d301      	bcc.n	10003d24 <__clzsi2+0x18>
10003d20:	0a00      	lsrs	r0, r0, #8
10003d22:	3908      	subs	r1, #8
10003d24:	091b      	lsrs	r3, r3, #4
10003d26:	4298      	cmp	r0, r3
10003d28:	d301      	bcc.n	10003d2e <__clzsi2+0x22>
10003d2a:	0900      	lsrs	r0, r0, #4
10003d2c:	3904      	subs	r1, #4
10003d2e:	a202      	add	r2, pc, #8	; (adr r2, 10003d38 <__clzsi2+0x2c>)
10003d30:	5c10      	ldrb	r0, [r2, r0]
10003d32:	1840      	adds	r0, r0, r1
10003d34:	4770      	bx	lr
10003d36:	46c0      	nop			; (mov r8, r8)
10003d38:	02020304 	.word	0x02020304
10003d3c:	01010101 	.word	0x01010101
	...

10003d48 <__errno>:
10003d48:	4b01      	ldr	r3, [pc, #4]	; (10003d50 <__errno+0x8>)
10003d4a:	6818      	ldr	r0, [r3, #0]
10003d4c:	4770      	bx	lr
10003d4e:	46c0      	nop			; (mov r8, r8)
10003d50:	20000604 	.word	0x20000604

10003d54 <__libc_init_array>:
10003d54:	4b0e      	ldr	r3, [pc, #56]	; (10003d90 <__libc_init_array+0x3c>)
10003d56:	b570      	push	{r4, r5, r6, lr}
10003d58:	2500      	movs	r5, #0
10003d5a:	1c1e      	adds	r6, r3, #0
10003d5c:	4c0d      	ldr	r4, [pc, #52]	; (10003d94 <__libc_init_array+0x40>)
10003d5e:	1ae4      	subs	r4, r4, r3
10003d60:	10a4      	asrs	r4, r4, #2
10003d62:	42a5      	cmp	r5, r4
10003d64:	d004      	beq.n	10003d70 <__libc_init_array+0x1c>
10003d66:	00ab      	lsls	r3, r5, #2
10003d68:	58f3      	ldr	r3, [r6, r3]
10003d6a:	4798      	blx	r3
10003d6c:	3501      	adds	r5, #1
10003d6e:	e7f8      	b.n	10003d62 <__libc_init_array+0xe>
10003d70:	f7fe f816 	bl	10001da0 <_init>
10003d74:	4b08      	ldr	r3, [pc, #32]	; (10003d98 <__libc_init_array+0x44>)
10003d76:	2500      	movs	r5, #0
10003d78:	1c1e      	adds	r6, r3, #0
10003d7a:	4c08      	ldr	r4, [pc, #32]	; (10003d9c <__libc_init_array+0x48>)
10003d7c:	1ae4      	subs	r4, r4, r3
10003d7e:	10a4      	asrs	r4, r4, #2
10003d80:	42a5      	cmp	r5, r4
10003d82:	d004      	beq.n	10003d8e <__libc_init_array+0x3a>
10003d84:	00ab      	lsls	r3, r5, #2
10003d86:	58f3      	ldr	r3, [r6, r3]
10003d88:	4798      	blx	r3
10003d8a:	3501      	adds	r5, #1
10003d8c:	e7f8      	b.n	10003d80 <__libc_init_array+0x2c>
10003d8e:	bd70      	pop	{r4, r5, r6, pc}
10003d90:	20000640 	.word	0x20000640
10003d94:	20000640 	.word	0x20000640
10003d98:	20000640 	.word	0x20000640
10003d9c:	20000640 	.word	0x20000640

10003da0 <__cvt>:
10003da0:	b5f0      	push	{r4, r5, r6, r7, lr}
10003da2:	b08b      	sub	sp, #44	; 0x2c
10003da4:	1c14      	adds	r4, r2, #0
10003da6:	1e1d      	subs	r5, r3, #0
10003da8:	9912      	ldr	r1, [sp, #72]	; 0x48
10003daa:	da06      	bge.n	10003dba <__cvt+0x1a>
10003dac:	2480      	movs	r4, #128	; 0x80
10003dae:	0624      	lsls	r4, r4, #24
10003db0:	192b      	adds	r3, r5, r4
10003db2:	1c1d      	adds	r5, r3, #0
10003db4:	1c14      	adds	r4, r2, #0
10003db6:	232d      	movs	r3, #45	; 0x2d
10003db8:	e000      	b.n	10003dbc <__cvt+0x1c>
10003dba:	2300      	movs	r3, #0
10003dbc:	700b      	strb	r3, [r1, #0]
10003dbe:	2320      	movs	r3, #32
10003dc0:	9e14      	ldr	r6, [sp, #80]	; 0x50
10003dc2:	2203      	movs	r2, #3
10003dc4:	439e      	bics	r6, r3
10003dc6:	2e46      	cmp	r6, #70	; 0x46
10003dc8:	d007      	beq.n	10003dda <__cvt+0x3a>
10003dca:	1c33      	adds	r3, r6, #0
10003dcc:	3b45      	subs	r3, #69	; 0x45
10003dce:	4259      	negs	r1, r3
10003dd0:	414b      	adcs	r3, r1
10003dd2:	9910      	ldr	r1, [sp, #64]	; 0x40
10003dd4:	3a01      	subs	r2, #1
10003dd6:	18cb      	adds	r3, r1, r3
10003dd8:	9310      	str	r3, [sp, #64]	; 0x40
10003dda:	9b10      	ldr	r3, [sp, #64]	; 0x40
10003ddc:	9200      	str	r2, [sp, #0]
10003dde:	9301      	str	r3, [sp, #4]
10003de0:	9b13      	ldr	r3, [sp, #76]	; 0x4c
10003de2:	1c22      	adds	r2, r4, #0
10003de4:	9302      	str	r3, [sp, #8]
10003de6:	ab08      	add	r3, sp, #32
10003de8:	9303      	str	r3, [sp, #12]
10003dea:	ab09      	add	r3, sp, #36	; 0x24
10003dec:	9304      	str	r3, [sp, #16]
10003dee:	1c2b      	adds	r3, r5, #0
10003df0:	f000 fbc8 	bl	10004584 <_dtoa_r>
10003df4:	1c07      	adds	r7, r0, #0
10003df6:	2e47      	cmp	r6, #71	; 0x47
10003df8:	d102      	bne.n	10003e00 <__cvt+0x60>
10003dfa:	9b11      	ldr	r3, [sp, #68]	; 0x44
10003dfc:	07db      	lsls	r3, r3, #31
10003dfe:	d52c      	bpl.n	10003e5a <__cvt+0xba>
10003e00:	9b10      	ldr	r3, [sp, #64]	; 0x40
10003e02:	18fb      	adds	r3, r7, r3
10003e04:	9307      	str	r3, [sp, #28]
10003e06:	2e46      	cmp	r6, #70	; 0x46
10003e08:	d114      	bne.n	10003e34 <__cvt+0x94>
10003e0a:	783b      	ldrb	r3, [r7, #0]
10003e0c:	2b30      	cmp	r3, #48	; 0x30
10003e0e:	d10c      	bne.n	10003e2a <__cvt+0x8a>
10003e10:	1c20      	adds	r0, r4, #0
10003e12:	1c29      	adds	r1, r5, #0
10003e14:	2200      	movs	r2, #0
10003e16:	2300      	movs	r3, #0
10003e18:	f001 fd50 	bl	100058bc <__aeabi_dcmpeq>
10003e1c:	2800      	cmp	r0, #0
10003e1e:	d104      	bne.n	10003e2a <__cvt+0x8a>
10003e20:	2301      	movs	r3, #1
10003e22:	9a10      	ldr	r2, [sp, #64]	; 0x40
10003e24:	1a9b      	subs	r3, r3, r2
10003e26:	9a13      	ldr	r2, [sp, #76]	; 0x4c
10003e28:	6013      	str	r3, [r2, #0]
10003e2a:	9b13      	ldr	r3, [sp, #76]	; 0x4c
10003e2c:	9a07      	ldr	r2, [sp, #28]
10003e2e:	681b      	ldr	r3, [r3, #0]
10003e30:	18d3      	adds	r3, r2, r3
10003e32:	9307      	str	r3, [sp, #28]
10003e34:	1c20      	adds	r0, r4, #0
10003e36:	1c29      	adds	r1, r5, #0
10003e38:	2200      	movs	r2, #0
10003e3a:	2300      	movs	r3, #0
10003e3c:	f001 fd3e 	bl	100058bc <__aeabi_dcmpeq>
10003e40:	2800      	cmp	r0, #0
10003e42:	d001      	beq.n	10003e48 <__cvt+0xa8>
10003e44:	9b07      	ldr	r3, [sp, #28]
10003e46:	9309      	str	r3, [sp, #36]	; 0x24
10003e48:	9b09      	ldr	r3, [sp, #36]	; 0x24
10003e4a:	9a07      	ldr	r2, [sp, #28]
10003e4c:	4293      	cmp	r3, r2
10003e4e:	d204      	bcs.n	10003e5a <__cvt+0xba>
10003e50:	1c5a      	adds	r2, r3, #1
10003e52:	9209      	str	r2, [sp, #36]	; 0x24
10003e54:	2230      	movs	r2, #48	; 0x30
10003e56:	701a      	strb	r2, [r3, #0]
10003e58:	e7f6      	b.n	10003e48 <__cvt+0xa8>
10003e5a:	1c38      	adds	r0, r7, #0
10003e5c:	9b09      	ldr	r3, [sp, #36]	; 0x24
10003e5e:	9a15      	ldr	r2, [sp, #84]	; 0x54
10003e60:	1bdb      	subs	r3, r3, r7
10003e62:	6013      	str	r3, [r2, #0]
10003e64:	b00b      	add	sp, #44	; 0x2c
10003e66:	bdf0      	pop	{r4, r5, r6, r7, pc}

10003e68 <__exponent>:
10003e68:	b5f7      	push	{r0, r1, r2, r4, r5, r6, r7, lr}
10003e6a:	232b      	movs	r3, #43	; 0x2b
10003e6c:	1c07      	adds	r7, r0, #0
10003e6e:	1c0c      	adds	r4, r1, #0
10003e70:	7002      	strb	r2, [r0, #0]
10003e72:	1c86      	adds	r6, r0, #2
10003e74:	2900      	cmp	r1, #0
10003e76:	da01      	bge.n	10003e7c <__exponent+0x14>
10003e78:	232d      	movs	r3, #45	; 0x2d
10003e7a:	424c      	negs	r4, r1
10003e7c:	707b      	strb	r3, [r7, #1]
10003e7e:	2c09      	cmp	r4, #9
10003e80:	dd1c      	ble.n	10003ebc <__exponent+0x54>
10003e82:	466b      	mov	r3, sp
10003e84:	1ddd      	adds	r5, r3, #7
10003e86:	1c20      	adds	r0, r4, #0
10003e88:	210a      	movs	r1, #10
10003e8a:	f7ff ff33 	bl	10003cf4 <__aeabi_idivmod>
10003e8e:	3d01      	subs	r5, #1
10003e90:	3130      	adds	r1, #48	; 0x30
10003e92:	7029      	strb	r1, [r5, #0]
10003e94:	1c20      	adds	r0, r4, #0
10003e96:	210a      	movs	r1, #10
10003e98:	f7ff fe46 	bl	10003b28 <__aeabi_idiv>
10003e9c:	1e04      	subs	r4, r0, #0
10003e9e:	2c09      	cmp	r4, #9
10003ea0:	dcf1      	bgt.n	10003e86 <__exponent+0x1e>
10003ea2:	3d01      	subs	r5, #1
10003ea4:	3430      	adds	r4, #48	; 0x30
10003ea6:	702c      	strb	r4, [r5, #0]
10003ea8:	466b      	mov	r3, sp
10003eaa:	3307      	adds	r3, #7
10003eac:	1c30      	adds	r0, r6, #0
10003eae:	42ab      	cmp	r3, r5
10003eb0:	d909      	bls.n	10003ec6 <__exponent+0x5e>
10003eb2:	782b      	ldrb	r3, [r5, #0]
10003eb4:	3501      	adds	r5, #1
10003eb6:	7033      	strb	r3, [r6, #0]
10003eb8:	3601      	adds	r6, #1
10003eba:	e7f5      	b.n	10003ea8 <__exponent+0x40>
10003ebc:	2330      	movs	r3, #48	; 0x30
10003ebe:	18e4      	adds	r4, r4, r3
10003ec0:	7033      	strb	r3, [r6, #0]
10003ec2:	1cb0      	adds	r0, r6, #2
10003ec4:	7074      	strb	r4, [r6, #1]
10003ec6:	1bc0      	subs	r0, r0, r7
10003ec8:	bdfe      	pop	{r1, r2, r3, r4, r5, r6, r7, pc}
	...

10003ecc <_printf_float>:
10003ecc:	b5f0      	push	{r4, r5, r6, r7, lr}
10003ece:	b093      	sub	sp, #76	; 0x4c
10003ed0:	1c0c      	adds	r4, r1, #0
10003ed2:	9208      	str	r2, [sp, #32]
10003ed4:	9e18      	ldr	r6, [sp, #96]	; 0x60
10003ed6:	9309      	str	r3, [sp, #36]	; 0x24
10003ed8:	1c05      	adds	r5, r0, #0
10003eda:	f001 f953 	bl	10005184 <_localeconv_r>
10003ede:	6803      	ldr	r3, [r0, #0]
10003ee0:	1c18      	adds	r0, r3, #0
10003ee2:	930b      	str	r3, [sp, #44]	; 0x2c
10003ee4:	f000 fac0 	bl	10004468 <strlen>
10003ee8:	2300      	movs	r3, #0
10003eea:	2207      	movs	r2, #7
10003eec:	9310      	str	r3, [sp, #64]	; 0x40
10003eee:	6833      	ldr	r3, [r6, #0]
10003ef0:	900c      	str	r0, [sp, #48]	; 0x30
10003ef2:	3307      	adds	r3, #7
10003ef4:	4393      	bics	r3, r2
10003ef6:	1c1a      	adds	r2, r3, #0
10003ef8:	6818      	ldr	r0, [r3, #0]
10003efa:	6859      	ldr	r1, [r3, #4]
10003efc:	3208      	adds	r2, #8
10003efe:	7e27      	ldrb	r7, [r4, #24]
10003f00:	6032      	str	r2, [r6, #0]
10003f02:	64a0      	str	r0, [r4, #72]	; 0x48
10003f04:	64e1      	str	r1, [r4, #76]	; 0x4c
10003f06:	f000 fa87 	bl	10004418 <__fpclassifyd>
10003f0a:	2801      	cmp	r0, #1
10003f0c:	d118      	bne.n	10003f40 <_printf_float+0x74>
10003f0e:	6ca0      	ldr	r0, [r4, #72]	; 0x48
10003f10:	6ce1      	ldr	r1, [r4, #76]	; 0x4c
10003f12:	2200      	movs	r2, #0
10003f14:	2300      	movs	r3, #0
10003f16:	f001 fcd7 	bl	100058c8 <__aeabi_dcmplt>
10003f1a:	2800      	cmp	r0, #0
10003f1c:	d003      	beq.n	10003f26 <_printf_float+0x5a>
10003f1e:	1c23      	adds	r3, r4, #0
10003f20:	222d      	movs	r2, #45	; 0x2d
10003f22:	3343      	adds	r3, #67	; 0x43
10003f24:	701a      	strb	r2, [r3, #0]
10003f26:	4bb7      	ldr	r3, [pc, #732]	; (10004204 <_printf_float+0x338>)
10003f28:	930a      	str	r3, [sp, #40]	; 0x28
10003f2a:	2f47      	cmp	r7, #71	; 0x47
10003f2c:	d901      	bls.n	10003f32 <_printf_float+0x66>
10003f2e:	4bb6      	ldr	r3, [pc, #728]	; (10004208 <_printf_float+0x33c>)
10003f30:	930a      	str	r3, [sp, #40]	; 0x28
10003f32:	2303      	movs	r3, #3
10003f34:	6822      	ldr	r2, [r4, #0]
10003f36:	6123      	str	r3, [r4, #16]
10003f38:	3301      	adds	r3, #1
10003f3a:	439a      	bics	r2, r3
10003f3c:	6022      	str	r2, [r4, #0]
10003f3e:	e012      	b.n	10003f66 <_printf_float+0x9a>
10003f40:	6ca0      	ldr	r0, [r4, #72]	; 0x48
10003f42:	6ce1      	ldr	r1, [r4, #76]	; 0x4c
10003f44:	f000 fa68 	bl	10004418 <__fpclassifyd>
10003f48:	6826      	ldr	r6, [r4, #0]
10003f4a:	2800      	cmp	r0, #0
10003f4c:	d10d      	bne.n	10003f6a <_printf_float+0x9e>
10003f4e:	4baf      	ldr	r3, [pc, #700]	; (1000420c <_printf_float+0x340>)
10003f50:	930a      	str	r3, [sp, #40]	; 0x28
10003f52:	2f47      	cmp	r7, #71	; 0x47
10003f54:	d901      	bls.n	10003f5a <_printf_float+0x8e>
10003f56:	4bae      	ldr	r3, [pc, #696]	; (10004210 <_printf_float+0x344>)
10003f58:	930a      	str	r3, [sp, #40]	; 0x28
10003f5a:	2303      	movs	r3, #3
10003f5c:	1c31      	adds	r1, r6, #0
10003f5e:	6123      	str	r3, [r4, #16]
10003f60:	3301      	adds	r3, #1
10003f62:	4399      	bics	r1, r3
10003f64:	6021      	str	r1, [r4, #0]
10003f66:	2600      	movs	r6, #0
10003f68:	e080      	b.n	1000406c <_printf_float+0x1a0>
10003f6a:	2180      	movs	r1, #128	; 0x80
10003f6c:	6860      	ldr	r0, [r4, #4]
10003f6e:	00c9      	lsls	r1, r1, #3
10003f70:	1c43      	adds	r3, r0, #1
10003f72:	d101      	bne.n	10003f78 <_printf_float+0xac>
10003f74:	2306      	movs	r3, #6
10003f76:	e009      	b.n	10003f8c <_printf_float+0xc0>
10003f78:	6ca2      	ldr	r2, [r4, #72]	; 0x48
10003f7a:	6ce3      	ldr	r3, [r4, #76]	; 0x4c
10003f7c:	2f67      	cmp	r7, #103	; 0x67
10003f7e:	d001      	beq.n	10003f84 <_printf_float+0xb8>
10003f80:	2f47      	cmp	r7, #71	; 0x47
10003f82:	d104      	bne.n	10003f8e <_printf_float+0xc2>
10003f84:	2800      	cmp	r0, #0
10003f86:	d000      	beq.n	10003f8a <_printf_float+0xbe>
10003f88:	e1c1      	b.n	1000430e <_printf_float+0x442>
10003f8a:	2301      	movs	r3, #1
10003f8c:	6063      	str	r3, [r4, #4]
10003f8e:	6863      	ldr	r3, [r4, #4]
10003f90:	4331      	orrs	r1, r6
10003f92:	9300      	str	r3, [sp, #0]
10003f94:	2323      	movs	r3, #35	; 0x23
10003f96:	6021      	str	r1, [r4, #0]
10003f98:	9101      	str	r1, [sp, #4]
10003f9a:	2100      	movs	r1, #0
10003f9c:	aa06      	add	r2, sp, #24
10003f9e:	189b      	adds	r3, r3, r2
10003fa0:	9302      	str	r3, [sp, #8]
10003fa2:	ab0f      	add	r3, sp, #60	; 0x3c
10003fa4:	9303      	str	r3, [sp, #12]
10003fa6:	ab10      	add	r3, sp, #64	; 0x40
10003fa8:	9305      	str	r3, [sp, #20]
10003faa:	9704      	str	r7, [sp, #16]
10003fac:	6ca2      	ldr	r2, [r4, #72]	; 0x48
10003fae:	6ce3      	ldr	r3, [r4, #76]	; 0x4c
10003fb0:	9106      	str	r1, [sp, #24]
10003fb2:	1c28      	adds	r0, r5, #0
10003fb4:	f7ff fef4 	bl	10003da0 <__cvt>
10003fb8:	2320      	movs	r3, #32
10003fba:	1c3a      	adds	r2, r7, #0
10003fbc:	900a      	str	r0, [sp, #40]	; 0x28
10003fbe:	439a      	bics	r2, r3
10003fc0:	2a47      	cmp	r2, #71	; 0x47
10003fc2:	d107      	bne.n	10003fd4 <_printf_float+0x108>
10003fc4:	9b0f      	ldr	r3, [sp, #60]	; 0x3c
10003fc6:	1cda      	adds	r2, r3, #3
10003fc8:	db02      	blt.n	10003fd0 <_printf_float+0x104>
10003fca:	6862      	ldr	r2, [r4, #4]
10003fcc:	4293      	cmp	r3, r2
10003fce:	dd2d      	ble.n	1000402c <_printf_float+0x160>
10003fd0:	3f02      	subs	r7, #2
10003fd2:	b2ff      	uxtb	r7, r7
10003fd4:	990f      	ldr	r1, [sp, #60]	; 0x3c
10003fd6:	2f65      	cmp	r7, #101	; 0x65
10003fd8:	d812      	bhi.n	10004000 <_printf_float+0x134>
10003fda:	1c20      	adds	r0, r4, #0
10003fdc:	3901      	subs	r1, #1
10003fde:	1c3a      	adds	r2, r7, #0
10003fe0:	3050      	adds	r0, #80	; 0x50
10003fe2:	910f      	str	r1, [sp, #60]	; 0x3c
10003fe4:	f7ff ff40 	bl	10003e68 <__exponent>
10003fe8:	9a10      	ldr	r2, [sp, #64]	; 0x40
10003fea:	1c06      	adds	r6, r0, #0
10003fec:	1883      	adds	r3, r0, r2
10003fee:	6123      	str	r3, [r4, #16]
10003ff0:	2a01      	cmp	r2, #1
10003ff2:	dc02      	bgt.n	10003ffa <_printf_float+0x12e>
10003ff4:	6822      	ldr	r2, [r4, #0]
10003ff6:	07d2      	lsls	r2, r2, #31
10003ff8:	d52e      	bpl.n	10004058 <_printf_float+0x18c>
10003ffa:	3301      	adds	r3, #1
10003ffc:	6123      	str	r3, [r4, #16]
10003ffe:	e02b      	b.n	10004058 <_printf_float+0x18c>
10004000:	2f66      	cmp	r7, #102	; 0x66
10004002:	d114      	bne.n	1000402e <_printf_float+0x162>
10004004:	6863      	ldr	r3, [r4, #4]
10004006:	2900      	cmp	r1, #0
10004008:	dd08      	ble.n	1000401c <_printf_float+0x150>
1000400a:	6121      	str	r1, [r4, #16]
1000400c:	2b00      	cmp	r3, #0
1000400e:	d102      	bne.n	10004016 <_printf_float+0x14a>
10004010:	6822      	ldr	r2, [r4, #0]
10004012:	07d2      	lsls	r2, r2, #31
10004014:	d51d      	bpl.n	10004052 <_printf_float+0x186>
10004016:	3301      	adds	r3, #1
10004018:	18cb      	adds	r3, r1, r3
1000401a:	e011      	b.n	10004040 <_printf_float+0x174>
1000401c:	2b00      	cmp	r3, #0
1000401e:	d103      	bne.n	10004028 <_printf_float+0x15c>
10004020:	2201      	movs	r2, #1
10004022:	6821      	ldr	r1, [r4, #0]
10004024:	4211      	tst	r1, r2
10004026:	d013      	beq.n	10004050 <_printf_float+0x184>
10004028:	1c9a      	adds	r2, r3, #2
1000402a:	e011      	b.n	10004050 <_printf_float+0x184>
1000402c:	2767      	movs	r7, #103	; 0x67
1000402e:	9b0f      	ldr	r3, [sp, #60]	; 0x3c
10004030:	9810      	ldr	r0, [sp, #64]	; 0x40
10004032:	4283      	cmp	r3, r0
10004034:	db06      	blt.n	10004044 <_printf_float+0x178>
10004036:	6822      	ldr	r2, [r4, #0]
10004038:	6123      	str	r3, [r4, #16]
1000403a:	07d2      	lsls	r2, r2, #31
1000403c:	d509      	bpl.n	10004052 <_printf_float+0x186>
1000403e:	3301      	adds	r3, #1
10004040:	6123      	str	r3, [r4, #16]
10004042:	e006      	b.n	10004052 <_printf_float+0x186>
10004044:	2201      	movs	r2, #1
10004046:	2b00      	cmp	r3, #0
10004048:	dc01      	bgt.n	1000404e <_printf_float+0x182>
1000404a:	2102      	movs	r1, #2
1000404c:	1aca      	subs	r2, r1, r3
1000404e:	1882      	adds	r2, r0, r2
10004050:	6122      	str	r2, [r4, #16]
10004052:	2600      	movs	r6, #0
10004054:	9b0f      	ldr	r3, [sp, #60]	; 0x3c
10004056:	65a3      	str	r3, [r4, #88]	; 0x58
10004058:	2323      	movs	r3, #35	; 0x23
1000405a:	aa06      	add	r2, sp, #24
1000405c:	189b      	adds	r3, r3, r2
1000405e:	781b      	ldrb	r3, [r3, #0]
10004060:	2b00      	cmp	r3, #0
10004062:	d003      	beq.n	1000406c <_printf_float+0x1a0>
10004064:	1c23      	adds	r3, r4, #0
10004066:	222d      	movs	r2, #45	; 0x2d
10004068:	3343      	adds	r3, #67	; 0x43
1000406a:	701a      	strb	r2, [r3, #0]
1000406c:	9b09      	ldr	r3, [sp, #36]	; 0x24
1000406e:	1c28      	adds	r0, r5, #0
10004070:	9300      	str	r3, [sp, #0]
10004072:	1c21      	adds	r1, r4, #0
10004074:	9b08      	ldr	r3, [sp, #32]
10004076:	aa11      	add	r2, sp, #68	; 0x44
10004078:	f000 f960 	bl	1000433c <_printf_common>
1000407c:	1c43      	adds	r3, r0, #1
1000407e:	d102      	bne.n	10004086 <_printf_float+0x1ba>
10004080:	2001      	movs	r0, #1
10004082:	4240      	negs	r0, r0
10004084:	e157      	b.n	10004336 <_printf_float+0x46a>
10004086:	6822      	ldr	r2, [r4, #0]
10004088:	0553      	lsls	r3, r2, #21
1000408a:	d404      	bmi.n	10004096 <_printf_float+0x1ca>
1000408c:	1c28      	adds	r0, r5, #0
1000408e:	9908      	ldr	r1, [sp, #32]
10004090:	9a0a      	ldr	r2, [sp, #40]	; 0x28
10004092:	6923      	ldr	r3, [r4, #16]
10004094:	e117      	b.n	100042c6 <_printf_float+0x3fa>
10004096:	2f65      	cmp	r7, #101	; 0x65
10004098:	d800      	bhi.n	1000409c <_printf_float+0x1d0>
1000409a:	e0d5      	b.n	10004248 <_printf_float+0x37c>
1000409c:	6ca0      	ldr	r0, [r4, #72]	; 0x48
1000409e:	6ce1      	ldr	r1, [r4, #76]	; 0x4c
100040a0:	2200      	movs	r2, #0
100040a2:	2300      	movs	r3, #0
100040a4:	f001 fc0a 	bl	100058bc <__aeabi_dcmpeq>
100040a8:	2800      	cmp	r0, #0
100040aa:	d02b      	beq.n	10004104 <_printf_float+0x238>
100040ac:	2301      	movs	r3, #1
100040ae:	1c28      	adds	r0, r5, #0
100040b0:	9908      	ldr	r1, [sp, #32]
100040b2:	4a58      	ldr	r2, [pc, #352]	; (10004214 <_printf_float+0x348>)
100040b4:	9e09      	ldr	r6, [sp, #36]	; 0x24
100040b6:	47b0      	blx	r6
100040b8:	1c43      	adds	r3, r0, #1
100040ba:	d0e1      	beq.n	10004080 <_printf_float+0x1b4>
100040bc:	9b0f      	ldr	r3, [sp, #60]	; 0x3c
100040be:	9a10      	ldr	r2, [sp, #64]	; 0x40
100040c0:	4293      	cmp	r3, r2
100040c2:	db07      	blt.n	100040d4 <_printf_float+0x208>
100040c4:	6823      	ldr	r3, [r4, #0]
100040c6:	07db      	lsls	r3, r3, #31
100040c8:	d404      	bmi.n	100040d4 <_printf_float+0x208>
100040ca:	6823      	ldr	r3, [r4, #0]
100040cc:	079b      	lsls	r3, r3, #30
100040ce:	d500      	bpl.n	100040d2 <_printf_float+0x206>
100040d0:	e11b      	b.n	1000430a <_printf_float+0x43e>
100040d2:	e114      	b.n	100042fe <_printf_float+0x432>
100040d4:	9e09      	ldr	r6, [sp, #36]	; 0x24
100040d6:	1c28      	adds	r0, r5, #0
100040d8:	9908      	ldr	r1, [sp, #32]
100040da:	9a0b      	ldr	r2, [sp, #44]	; 0x2c
100040dc:	9b0c      	ldr	r3, [sp, #48]	; 0x30
100040de:	47b0      	blx	r6
100040e0:	2600      	movs	r6, #0
100040e2:	1c43      	adds	r3, r0, #1
100040e4:	d0cc      	beq.n	10004080 <_printf_float+0x1b4>
100040e6:	9b10      	ldr	r3, [sp, #64]	; 0x40
100040e8:	3b01      	subs	r3, #1
100040ea:	429e      	cmp	r6, r3
100040ec:	daed      	bge.n	100040ca <_printf_float+0x1fe>
100040ee:	1c22      	adds	r2, r4, #0
100040f0:	2301      	movs	r3, #1
100040f2:	1c28      	adds	r0, r5, #0
100040f4:	9908      	ldr	r1, [sp, #32]
100040f6:	321a      	adds	r2, #26
100040f8:	9f09      	ldr	r7, [sp, #36]	; 0x24
100040fa:	47b8      	blx	r7
100040fc:	1c43      	adds	r3, r0, #1
100040fe:	d0bf      	beq.n	10004080 <_printf_float+0x1b4>
10004100:	3601      	adds	r6, #1
10004102:	e7f0      	b.n	100040e6 <_printf_float+0x21a>
10004104:	9b0f      	ldr	r3, [sp, #60]	; 0x3c
10004106:	2b00      	cmp	r3, #0
10004108:	dc2b      	bgt.n	10004162 <_printf_float+0x296>
1000410a:	2301      	movs	r3, #1
1000410c:	1c28      	adds	r0, r5, #0
1000410e:	9908      	ldr	r1, [sp, #32]
10004110:	4a40      	ldr	r2, [pc, #256]	; (10004214 <_printf_float+0x348>)
10004112:	9e09      	ldr	r6, [sp, #36]	; 0x24
10004114:	47b0      	blx	r6
10004116:	1c43      	adds	r3, r0, #1
10004118:	d0b2      	beq.n	10004080 <_printf_float+0x1b4>
1000411a:	9b0f      	ldr	r3, [sp, #60]	; 0x3c
1000411c:	2b00      	cmp	r3, #0
1000411e:	d105      	bne.n	1000412c <_printf_float+0x260>
10004120:	9b10      	ldr	r3, [sp, #64]	; 0x40
10004122:	2b00      	cmp	r3, #0
10004124:	d102      	bne.n	1000412c <_printf_float+0x260>
10004126:	6823      	ldr	r3, [r4, #0]
10004128:	07db      	lsls	r3, r3, #31
1000412a:	d5ce      	bpl.n	100040ca <_printf_float+0x1fe>
1000412c:	9e09      	ldr	r6, [sp, #36]	; 0x24
1000412e:	1c28      	adds	r0, r5, #0
10004130:	9908      	ldr	r1, [sp, #32]
10004132:	9a0b      	ldr	r2, [sp, #44]	; 0x2c
10004134:	9b0c      	ldr	r3, [sp, #48]	; 0x30
10004136:	47b0      	blx	r6
10004138:	2600      	movs	r6, #0
1000413a:	1c43      	adds	r3, r0, #1
1000413c:	d0a0      	beq.n	10004080 <_printf_float+0x1b4>
1000413e:	9b0f      	ldr	r3, [sp, #60]	; 0x3c
10004140:	1c28      	adds	r0, r5, #0
10004142:	425b      	negs	r3, r3
10004144:	9908      	ldr	r1, [sp, #32]
10004146:	429e      	cmp	r6, r3
10004148:	da08      	bge.n	1000415c <_printf_float+0x290>
1000414a:	1c22      	adds	r2, r4, #0
1000414c:	2301      	movs	r3, #1
1000414e:	321a      	adds	r2, #26
10004150:	9f09      	ldr	r7, [sp, #36]	; 0x24
10004152:	47b8      	blx	r7
10004154:	1c43      	adds	r3, r0, #1
10004156:	d093      	beq.n	10004080 <_printf_float+0x1b4>
10004158:	3601      	adds	r6, #1
1000415a:	e7f0      	b.n	1000413e <_printf_float+0x272>
1000415c:	9a0a      	ldr	r2, [sp, #40]	; 0x28
1000415e:	9b10      	ldr	r3, [sp, #64]	; 0x40
10004160:	e0b1      	b.n	100042c6 <_printf_float+0x3fa>
10004162:	9b10      	ldr	r3, [sp, #64]	; 0x40
10004164:	6da6      	ldr	r6, [r4, #88]	; 0x58
10004166:	429e      	cmp	r6, r3
10004168:	dd00      	ble.n	1000416c <_printf_float+0x2a0>
1000416a:	1c1e      	adds	r6, r3, #0
1000416c:	2e00      	cmp	r6, #0
1000416e:	dc01      	bgt.n	10004174 <_printf_float+0x2a8>
10004170:	2300      	movs	r3, #0
10004172:	e014      	b.n	1000419e <_printf_float+0x2d2>
10004174:	1c33      	adds	r3, r6, #0
10004176:	1c28      	adds	r0, r5, #0
10004178:	9908      	ldr	r1, [sp, #32]
1000417a:	9a0a      	ldr	r2, [sp, #40]	; 0x28
1000417c:	9f09      	ldr	r7, [sp, #36]	; 0x24
1000417e:	47b8      	blx	r7
10004180:	1c43      	adds	r3, r0, #1
10004182:	d1f5      	bne.n	10004170 <_printf_float+0x2a4>
10004184:	e77c      	b.n	10004080 <_printf_float+0x1b4>
10004186:	1c22      	adds	r2, r4, #0
10004188:	2301      	movs	r3, #1
1000418a:	1c28      	adds	r0, r5, #0
1000418c:	9908      	ldr	r1, [sp, #32]
1000418e:	321a      	adds	r2, #26
10004190:	9f09      	ldr	r7, [sp, #36]	; 0x24
10004192:	47b8      	blx	r7
10004194:	1c43      	adds	r3, r0, #1
10004196:	d100      	bne.n	1000419a <_printf_float+0x2ce>
10004198:	e772      	b.n	10004080 <_printf_float+0x1b4>
1000419a:	9b0d      	ldr	r3, [sp, #52]	; 0x34
1000419c:	3301      	adds	r3, #1
1000419e:	930d      	str	r3, [sp, #52]	; 0x34
100041a0:	43f3      	mvns	r3, r6
100041a2:	6da2      	ldr	r2, [r4, #88]	; 0x58
100041a4:	17db      	asrs	r3, r3, #31
100041a6:	990d      	ldr	r1, [sp, #52]	; 0x34
100041a8:	4033      	ands	r3, r6
100041aa:	1ad3      	subs	r3, r2, r3
100041ac:	4299      	cmp	r1, r3
100041ae:	dbea      	blt.n	10004186 <_printf_float+0x2ba>
100041b0:	9b0a      	ldr	r3, [sp, #40]	; 0x28
100041b2:	189e      	adds	r6, r3, r2
100041b4:	9b0f      	ldr	r3, [sp, #60]	; 0x3c
100041b6:	9a10      	ldr	r2, [sp, #64]	; 0x40
100041b8:	4293      	cmp	r3, r2
100041ba:	db0e      	blt.n	100041da <_printf_float+0x30e>
100041bc:	6823      	ldr	r3, [r4, #0]
100041be:	07db      	lsls	r3, r3, #31
100041c0:	d40b      	bmi.n	100041da <_printf_float+0x30e>
100041c2:	9b10      	ldr	r3, [sp, #64]	; 0x40
100041c4:	9a0a      	ldr	r2, [sp, #40]	; 0x28
100041c6:	18d7      	adds	r7, r2, r3
100041c8:	9a0f      	ldr	r2, [sp, #60]	; 0x3c
100041ca:	1bbf      	subs	r7, r7, r6
100041cc:	1a9b      	subs	r3, r3, r2
100041ce:	429f      	cmp	r7, r3
100041d0:	dd00      	ble.n	100041d4 <_printf_float+0x308>
100041d2:	1c1f      	adds	r7, r3, #0
100041d4:	2f00      	cmp	r7, #0
100041d6:	dc09      	bgt.n	100041ec <_printf_float+0x320>
100041d8:	e011      	b.n	100041fe <_printf_float+0x332>
100041da:	9b0c      	ldr	r3, [sp, #48]	; 0x30
100041dc:	1c28      	adds	r0, r5, #0
100041de:	9908      	ldr	r1, [sp, #32]
100041e0:	9a0b      	ldr	r2, [sp, #44]	; 0x2c
100041e2:	9f09      	ldr	r7, [sp, #36]	; 0x24
100041e4:	47b8      	blx	r7
100041e6:	1c43      	adds	r3, r0, #1
100041e8:	d1eb      	bne.n	100041c2 <_printf_float+0x2f6>
100041ea:	e749      	b.n	10004080 <_printf_float+0x1b4>
100041ec:	1c32      	adds	r2, r6, #0
100041ee:	1c3b      	adds	r3, r7, #0
100041f0:	1c28      	adds	r0, r5, #0
100041f2:	9908      	ldr	r1, [sp, #32]
100041f4:	9e09      	ldr	r6, [sp, #36]	; 0x24
100041f6:	47b0      	blx	r6
100041f8:	1c43      	adds	r3, r0, #1
100041fa:	d100      	bne.n	100041fe <_printf_float+0x332>
100041fc:	e740      	b.n	10004080 <_printf_float+0x1b4>
100041fe:	2300      	movs	r3, #0
10004200:	e016      	b.n	10004230 <_printf_float+0x364>
10004202:	46c0      	nop			; (mov r8, r8)
10004204:	100076e6 	.word	0x100076e6
10004208:	100076ea 	.word	0x100076ea
1000420c:	100076ee 	.word	0x100076ee
10004210:	100076f2 	.word	0x100076f2
10004214:	100076f6 	.word	0x100076f6
10004218:	1c22      	adds	r2, r4, #0
1000421a:	2301      	movs	r3, #1
1000421c:	1c28      	adds	r0, r5, #0
1000421e:	9908      	ldr	r1, [sp, #32]
10004220:	321a      	adds	r2, #26
10004222:	9e09      	ldr	r6, [sp, #36]	; 0x24
10004224:	47b0      	blx	r6
10004226:	1c43      	adds	r3, r0, #1
10004228:	d100      	bne.n	1000422c <_printf_float+0x360>
1000422a:	e729      	b.n	10004080 <_printf_float+0x1b4>
1000422c:	9b0a      	ldr	r3, [sp, #40]	; 0x28
1000422e:	3301      	adds	r3, #1
10004230:	930a      	str	r3, [sp, #40]	; 0x28
10004232:	9a0f      	ldr	r2, [sp, #60]	; 0x3c
10004234:	9b10      	ldr	r3, [sp, #64]	; 0x40
10004236:	1a9a      	subs	r2, r3, r2
10004238:	43fb      	mvns	r3, r7
1000423a:	17db      	asrs	r3, r3, #31
1000423c:	403b      	ands	r3, r7
1000423e:	1ad3      	subs	r3, r2, r3
10004240:	9a0a      	ldr	r2, [sp, #40]	; 0x28
10004242:	429a      	cmp	r2, r3
10004244:	dbe8      	blt.n	10004218 <_printf_float+0x34c>
10004246:	e740      	b.n	100040ca <_printf_float+0x1fe>
10004248:	9b10      	ldr	r3, [sp, #64]	; 0x40
1000424a:	1c28      	adds	r0, r5, #0
1000424c:	9908      	ldr	r1, [sp, #32]
1000424e:	2b01      	cmp	r3, #1
10004250:	dc02      	bgt.n	10004258 <_printf_float+0x38c>
10004252:	2301      	movs	r3, #1
10004254:	421a      	tst	r2, r3
10004256:	d03c      	beq.n	100042d2 <_printf_float+0x406>
10004258:	2301      	movs	r3, #1
1000425a:	9a0a      	ldr	r2, [sp, #40]	; 0x28
1000425c:	9f09      	ldr	r7, [sp, #36]	; 0x24
1000425e:	47b8      	blx	r7
10004260:	1c43      	adds	r3, r0, #1
10004262:	d100      	bne.n	10004266 <_printf_float+0x39a>
10004264:	e70c      	b.n	10004080 <_printf_float+0x1b4>
10004266:	9b0c      	ldr	r3, [sp, #48]	; 0x30
10004268:	1c28      	adds	r0, r5, #0
1000426a:	9908      	ldr	r1, [sp, #32]
1000426c:	9a0b      	ldr	r2, [sp, #44]	; 0x2c
1000426e:	9f09      	ldr	r7, [sp, #36]	; 0x24
10004270:	47b8      	blx	r7
10004272:	1c43      	adds	r3, r0, #1
10004274:	d100      	bne.n	10004278 <_printf_float+0x3ac>
10004276:	e703      	b.n	10004080 <_printf_float+0x1b4>
10004278:	6ca0      	ldr	r0, [r4, #72]	; 0x48
1000427a:	6ce1      	ldr	r1, [r4, #76]	; 0x4c
1000427c:	2300      	movs	r3, #0
1000427e:	2200      	movs	r2, #0
10004280:	f001 fb1c 	bl	100058bc <__aeabi_dcmpeq>
10004284:	2300      	movs	r3, #0
10004286:	2800      	cmp	r0, #0
10004288:	d112      	bne.n	100042b0 <_printf_float+0x3e4>
1000428a:	9a0a      	ldr	r2, [sp, #40]	; 0x28
1000428c:	9b10      	ldr	r3, [sp, #64]	; 0x40
1000428e:	3201      	adds	r2, #1
10004290:	3b01      	subs	r3, #1
10004292:	1c28      	adds	r0, r5, #0
10004294:	9908      	ldr	r1, [sp, #32]
10004296:	e01d      	b.n	100042d4 <_printf_float+0x408>
10004298:	1c22      	adds	r2, r4, #0
1000429a:	2301      	movs	r3, #1
1000429c:	1c28      	adds	r0, r5, #0
1000429e:	9908      	ldr	r1, [sp, #32]
100042a0:	321a      	adds	r2, #26
100042a2:	9f09      	ldr	r7, [sp, #36]	; 0x24
100042a4:	47b8      	blx	r7
100042a6:	1c43      	adds	r3, r0, #1
100042a8:	d100      	bne.n	100042ac <_printf_float+0x3e0>
100042aa:	e6e9      	b.n	10004080 <_printf_float+0x1b4>
100042ac:	9b0a      	ldr	r3, [sp, #40]	; 0x28
100042ae:	3301      	adds	r3, #1
100042b0:	930a      	str	r3, [sp, #40]	; 0x28
100042b2:	9b10      	ldr	r3, [sp, #64]	; 0x40
100042b4:	9a0a      	ldr	r2, [sp, #40]	; 0x28
100042b6:	3b01      	subs	r3, #1
100042b8:	429a      	cmp	r2, r3
100042ba:	dbed      	blt.n	10004298 <_printf_float+0x3cc>
100042bc:	1c22      	adds	r2, r4, #0
100042be:	1c28      	adds	r0, r5, #0
100042c0:	1c33      	adds	r3, r6, #0
100042c2:	9908      	ldr	r1, [sp, #32]
100042c4:	3250      	adds	r2, #80	; 0x50
100042c6:	9e09      	ldr	r6, [sp, #36]	; 0x24
100042c8:	47b0      	blx	r6
100042ca:	1c43      	adds	r3, r0, #1
100042cc:	d000      	beq.n	100042d0 <_printf_float+0x404>
100042ce:	e6fc      	b.n	100040ca <_printf_float+0x1fe>
100042d0:	e6d6      	b.n	10004080 <_printf_float+0x1b4>
100042d2:	9a0a      	ldr	r2, [sp, #40]	; 0x28
100042d4:	9f09      	ldr	r7, [sp, #36]	; 0x24
100042d6:	47b8      	blx	r7
100042d8:	1c43      	adds	r3, r0, #1
100042da:	d1ef      	bne.n	100042bc <_printf_float+0x3f0>
100042dc:	e6d0      	b.n	10004080 <_printf_float+0x1b4>
100042de:	1c22      	adds	r2, r4, #0
100042e0:	2301      	movs	r3, #1
100042e2:	1c28      	adds	r0, r5, #0
100042e4:	9908      	ldr	r1, [sp, #32]
100042e6:	3219      	adds	r2, #25
100042e8:	9f09      	ldr	r7, [sp, #36]	; 0x24
100042ea:	47b8      	blx	r7
100042ec:	1c43      	adds	r3, r0, #1
100042ee:	d100      	bne.n	100042f2 <_printf_float+0x426>
100042f0:	e6c6      	b.n	10004080 <_printf_float+0x1b4>
100042f2:	3601      	adds	r6, #1
100042f4:	68e3      	ldr	r3, [r4, #12]
100042f6:	9a11      	ldr	r2, [sp, #68]	; 0x44
100042f8:	1a9b      	subs	r3, r3, r2
100042fa:	429e      	cmp	r6, r3
100042fc:	dbef      	blt.n	100042de <_printf_float+0x412>
100042fe:	9b11      	ldr	r3, [sp, #68]	; 0x44
10004300:	68e0      	ldr	r0, [r4, #12]
10004302:	4298      	cmp	r0, r3
10004304:	da17      	bge.n	10004336 <_printf_float+0x46a>
10004306:	1c18      	adds	r0, r3, #0
10004308:	e015      	b.n	10004336 <_printf_float+0x46a>
1000430a:	2600      	movs	r6, #0
1000430c:	e7f2      	b.n	100042f4 <_printf_float+0x428>
1000430e:	4331      	orrs	r1, r6
10004310:	6021      	str	r1, [r4, #0]
10004312:	9101      	str	r1, [sp, #4]
10004314:	2123      	movs	r1, #35	; 0x23
10004316:	9000      	str	r0, [sp, #0]
10004318:	a806      	add	r0, sp, #24
1000431a:	1809      	adds	r1, r1, r0
1000431c:	9102      	str	r1, [sp, #8]
1000431e:	a90f      	add	r1, sp, #60	; 0x3c
10004320:	9103      	str	r1, [sp, #12]
10004322:	a910      	add	r1, sp, #64	; 0x40
10004324:	9105      	str	r1, [sp, #20]
10004326:	2100      	movs	r1, #0
10004328:	9704      	str	r7, [sp, #16]
1000432a:	9106      	str	r1, [sp, #24]
1000432c:	1c28      	adds	r0, r5, #0
1000432e:	f7ff fd37 	bl	10003da0 <__cvt>
10004332:	900a      	str	r0, [sp, #40]	; 0x28
10004334:	e646      	b.n	10003fc4 <_printf_float+0xf8>
10004336:	b013      	add	sp, #76	; 0x4c
10004338:	bdf0      	pop	{r4, r5, r6, r7, pc}
1000433a:	46c0      	nop			; (mov r8, r8)

1000433c <_printf_common>:
1000433c:	b5f7      	push	{r0, r1, r2, r4, r5, r6, r7, lr}
1000433e:	1c17      	adds	r7, r2, #0
10004340:	9301      	str	r3, [sp, #4]
10004342:	690a      	ldr	r2, [r1, #16]
10004344:	688b      	ldr	r3, [r1, #8]
10004346:	9000      	str	r0, [sp, #0]
10004348:	1c0c      	adds	r4, r1, #0
1000434a:	4293      	cmp	r3, r2
1000434c:	da00      	bge.n	10004350 <_printf_common+0x14>
1000434e:	1c13      	adds	r3, r2, #0
10004350:	1c22      	adds	r2, r4, #0
10004352:	603b      	str	r3, [r7, #0]
10004354:	3243      	adds	r2, #67	; 0x43
10004356:	7812      	ldrb	r2, [r2, #0]
10004358:	2a00      	cmp	r2, #0
1000435a:	d001      	beq.n	10004360 <_printf_common+0x24>
1000435c:	3301      	adds	r3, #1
1000435e:	603b      	str	r3, [r7, #0]
10004360:	6823      	ldr	r3, [r4, #0]
10004362:	069b      	lsls	r3, r3, #26
10004364:	d502      	bpl.n	1000436c <_printf_common+0x30>
10004366:	683b      	ldr	r3, [r7, #0]
10004368:	3302      	adds	r3, #2
1000436a:	603b      	str	r3, [r7, #0]
1000436c:	2506      	movs	r5, #6
1000436e:	6823      	ldr	r3, [r4, #0]
10004370:	401d      	ands	r5, r3
10004372:	d01e      	beq.n	100043b2 <_printf_common+0x76>
10004374:	1c23      	adds	r3, r4, #0
10004376:	3343      	adds	r3, #67	; 0x43
10004378:	781b      	ldrb	r3, [r3, #0]
1000437a:	1e5a      	subs	r2, r3, #1
1000437c:	4193      	sbcs	r3, r2
1000437e:	6822      	ldr	r2, [r4, #0]
10004380:	0692      	lsls	r2, r2, #26
10004382:	d51c      	bpl.n	100043be <_printf_common+0x82>
10004384:	2030      	movs	r0, #48	; 0x30
10004386:	18e1      	adds	r1, r4, r3
10004388:	3140      	adds	r1, #64	; 0x40
1000438a:	70c8      	strb	r0, [r1, #3]
1000438c:	1c21      	adds	r1, r4, #0
1000438e:	1c5a      	adds	r2, r3, #1
10004390:	3145      	adds	r1, #69	; 0x45
10004392:	7809      	ldrb	r1, [r1, #0]
10004394:	18a2      	adds	r2, r4, r2
10004396:	3240      	adds	r2, #64	; 0x40
10004398:	3302      	adds	r3, #2
1000439a:	70d1      	strb	r1, [r2, #3]
1000439c:	e00f      	b.n	100043be <_printf_common+0x82>
1000439e:	1c22      	adds	r2, r4, #0
100043a0:	2301      	movs	r3, #1
100043a2:	9800      	ldr	r0, [sp, #0]
100043a4:	9901      	ldr	r1, [sp, #4]
100043a6:	3219      	adds	r2, #25
100043a8:	9e08      	ldr	r6, [sp, #32]
100043aa:	47b0      	blx	r6
100043ac:	1c43      	adds	r3, r0, #1
100043ae:	d00e      	beq.n	100043ce <_printf_common+0x92>
100043b0:	3501      	adds	r5, #1
100043b2:	68e3      	ldr	r3, [r4, #12]
100043b4:	683a      	ldr	r2, [r7, #0]
100043b6:	1a9b      	subs	r3, r3, r2
100043b8:	429d      	cmp	r5, r3
100043ba:	dbf0      	blt.n	1000439e <_printf_common+0x62>
100043bc:	e7da      	b.n	10004374 <_printf_common+0x38>
100043be:	1c22      	adds	r2, r4, #0
100043c0:	9800      	ldr	r0, [sp, #0]
100043c2:	9901      	ldr	r1, [sp, #4]
100043c4:	3243      	adds	r2, #67	; 0x43
100043c6:	9d08      	ldr	r5, [sp, #32]
100043c8:	47a8      	blx	r5
100043ca:	1c43      	adds	r3, r0, #1
100043cc:	d102      	bne.n	100043d4 <_printf_common+0x98>
100043ce:	2001      	movs	r0, #1
100043d0:	4240      	negs	r0, r0
100043d2:	e020      	b.n	10004416 <_printf_common+0xda>
100043d4:	2306      	movs	r3, #6
100043d6:	6820      	ldr	r0, [r4, #0]
100043d8:	68e1      	ldr	r1, [r4, #12]
100043da:	683a      	ldr	r2, [r7, #0]
100043dc:	4003      	ands	r3, r0
100043de:	2500      	movs	r5, #0
100043e0:	2b04      	cmp	r3, #4
100043e2:	d103      	bne.n	100043ec <_printf_common+0xb0>
100043e4:	1a8d      	subs	r5, r1, r2
100043e6:	43eb      	mvns	r3, r5
100043e8:	17db      	asrs	r3, r3, #31
100043ea:	401d      	ands	r5, r3
100043ec:	68a3      	ldr	r3, [r4, #8]
100043ee:	6922      	ldr	r2, [r4, #16]
100043f0:	4293      	cmp	r3, r2
100043f2:	dd01      	ble.n	100043f8 <_printf_common+0xbc>
100043f4:	1a9b      	subs	r3, r3, r2
100043f6:	18ed      	adds	r5, r5, r3
100043f8:	2700      	movs	r7, #0
100043fa:	42af      	cmp	r7, r5
100043fc:	da0a      	bge.n	10004414 <_printf_common+0xd8>
100043fe:	1c22      	adds	r2, r4, #0
10004400:	2301      	movs	r3, #1
10004402:	9800      	ldr	r0, [sp, #0]
10004404:	9901      	ldr	r1, [sp, #4]
10004406:	321a      	adds	r2, #26
10004408:	9e08      	ldr	r6, [sp, #32]
1000440a:	47b0      	blx	r6
1000440c:	1c43      	adds	r3, r0, #1
1000440e:	d0de      	beq.n	100043ce <_printf_common+0x92>
10004410:	3701      	adds	r7, #1
10004412:	e7f2      	b.n	100043fa <_printf_common+0xbe>
10004414:	2000      	movs	r0, #0
10004416:	bdfe      	pop	{r1, r2, r3, r4, r5, r6, r7, pc}

10004418 <__fpclassifyd>:
10004418:	b530      	push	{r4, r5, lr}
1000441a:	1c0c      	adds	r4, r1, #0
1000441c:	2302      	movs	r3, #2
1000441e:	4304      	orrs	r4, r0
10004420:	d017      	beq.n	10004452 <__fpclassifyd+0x3a>
10004422:	2480      	movs	r4, #128	; 0x80
10004424:	0624      	lsls	r4, r4, #24
10004426:	42a1      	cmp	r1, r4
10004428:	d101      	bne.n	1000442e <__fpclassifyd+0x16>
1000442a:	2800      	cmp	r0, #0
1000442c:	d011      	beq.n	10004452 <__fpclassifyd+0x3a>
1000442e:	4b0a      	ldr	r3, [pc, #40]	; (10004458 <__fpclassifyd+0x40>)
10004430:	0049      	lsls	r1, r1, #1
10004432:	0849      	lsrs	r1, r1, #1
10004434:	4a09      	ldr	r2, [pc, #36]	; (1000445c <__fpclassifyd+0x44>)
10004436:	18cc      	adds	r4, r1, r3
10004438:	2304      	movs	r3, #4
1000443a:	4294      	cmp	r4, r2
1000443c:	d909      	bls.n	10004452 <__fpclassifyd+0x3a>
1000443e:	4a08      	ldr	r2, [pc, #32]	; (10004460 <__fpclassifyd+0x48>)
10004440:	3b01      	subs	r3, #1
10004442:	4291      	cmp	r1, r2
10004444:	d905      	bls.n	10004452 <__fpclassifyd+0x3a>
10004446:	4a07      	ldr	r2, [pc, #28]	; (10004464 <__fpclassifyd+0x4c>)
10004448:	2300      	movs	r3, #0
1000444a:	4291      	cmp	r1, r2
1000444c:	d101      	bne.n	10004452 <__fpclassifyd+0x3a>
1000444e:	4243      	negs	r3, r0
10004450:	4143      	adcs	r3, r0
10004452:	1c18      	adds	r0, r3, #0
10004454:	bd30      	pop	{r4, r5, pc}
10004456:	46c0      	nop			; (mov r8, r8)
10004458:	fff00000 	.word	0xfff00000
1000445c:	7fdfffff 	.word	0x7fdfffff
10004460:	000fffff 	.word	0x000fffff
10004464:	7ff00000 	.word	0x7ff00000

10004468 <strlen>:
10004468:	2300      	movs	r3, #0
1000446a:	5cc2      	ldrb	r2, [r0, r3]
1000446c:	3301      	adds	r3, #1
1000446e:	2a00      	cmp	r2, #0
10004470:	d1fb      	bne.n	1000446a <strlen+0x2>
10004472:	1e58      	subs	r0, r3, #1
10004474:	4770      	bx	lr

10004476 <quorem>:
10004476:	b5f0      	push	{r4, r5, r6, r7, lr}
10004478:	6903      	ldr	r3, [r0, #16]
1000447a:	690c      	ldr	r4, [r1, #16]
1000447c:	b089      	sub	sp, #36	; 0x24
1000447e:	2600      	movs	r6, #0
10004480:	42a3      	cmp	r3, r4
10004482:	db7c      	blt.n	1000457e <quorem+0x108>
10004484:	1c0b      	adds	r3, r1, #0
10004486:	3c01      	subs	r4, #1
10004488:	3314      	adds	r3, #20
1000448a:	00a5      	lsls	r5, r4, #2
1000448c:	9303      	str	r3, [sp, #12]
1000448e:	195b      	adds	r3, r3, r5
10004490:	9304      	str	r3, [sp, #16]
10004492:	1c03      	adds	r3, r0, #0
10004494:	3314      	adds	r3, #20
10004496:	9301      	str	r3, [sp, #4]
10004498:	195d      	adds	r5, r3, r5
1000449a:	9b04      	ldr	r3, [sp, #16]
1000449c:	9107      	str	r1, [sp, #28]
1000449e:	681b      	ldr	r3, [r3, #0]
100044a0:	9002      	str	r0, [sp, #8]
100044a2:	1c59      	adds	r1, r3, #1
100044a4:	6828      	ldr	r0, [r5, #0]
100044a6:	9305      	str	r3, [sp, #20]
100044a8:	f7ff faae 	bl	10003a08 <__aeabi_uidiv>
100044ac:	1e07      	subs	r7, r0, #0
100044ae:	42b7      	cmp	r7, r6
100044b0:	d035      	beq.n	1000451e <quorem+0xa8>
100044b2:	9b03      	ldr	r3, [sp, #12]
100044b4:	9801      	ldr	r0, [sp, #4]
100044b6:	469c      	mov	ip, r3
100044b8:	9605      	str	r6, [sp, #20]
100044ba:	4663      	mov	r3, ip
100044bc:	cb04      	ldmia	r3!, {r2}
100044be:	b291      	uxth	r1, r2
100044c0:	4379      	muls	r1, r7
100044c2:	0c12      	lsrs	r2, r2, #16
100044c4:	437a      	muls	r2, r7
100044c6:	1871      	adds	r1, r6, r1
100044c8:	0c0e      	lsrs	r6, r1, #16
100044ca:	469c      	mov	ip, r3
100044cc:	18b3      	adds	r3, r6, r2
100044ce:	9306      	str	r3, [sp, #24]
100044d0:	8802      	ldrh	r2, [r0, #0]
100044d2:	0c1e      	lsrs	r6, r3, #16
100044d4:	9b05      	ldr	r3, [sp, #20]
100044d6:	b289      	uxth	r1, r1
100044d8:	18d2      	adds	r2, r2, r3
100044da:	6803      	ldr	r3, [r0, #0]
100044dc:	1a52      	subs	r2, r2, r1
100044de:	0c19      	lsrs	r1, r3, #16
100044e0:	466b      	mov	r3, sp
100044e2:	8b1b      	ldrh	r3, [r3, #24]
100044e4:	1acb      	subs	r3, r1, r3
100044e6:	1411      	asrs	r1, r2, #16
100044e8:	185b      	adds	r3, r3, r1
100044ea:	1419      	asrs	r1, r3, #16
100044ec:	b292      	uxth	r2, r2
100044ee:	041b      	lsls	r3, r3, #16
100044f0:	431a      	orrs	r2, r3
100044f2:	9b04      	ldr	r3, [sp, #16]
100044f4:	9105      	str	r1, [sp, #20]
100044f6:	c004      	stmia	r0!, {r2}
100044f8:	4563      	cmp	r3, ip
100044fa:	d2de      	bcs.n	100044ba <quorem+0x44>
100044fc:	682b      	ldr	r3, [r5, #0]
100044fe:	2b00      	cmp	r3, #0
10004500:	d10d      	bne.n	1000451e <quorem+0xa8>
10004502:	1c23      	adds	r3, r4, #0
10004504:	9a01      	ldr	r2, [sp, #4]
10004506:	3d04      	subs	r5, #4
10004508:	4295      	cmp	r5, r2
1000450a:	d803      	bhi.n	10004514 <quorem+0x9e>
1000450c:	9a02      	ldr	r2, [sp, #8]
1000450e:	1c1c      	adds	r4, r3, #0
10004510:	6113      	str	r3, [r2, #16]
10004512:	e004      	b.n	1000451e <quorem+0xa8>
10004514:	682a      	ldr	r2, [r5, #0]
10004516:	2a00      	cmp	r2, #0
10004518:	d1f8      	bne.n	1000450c <quorem+0x96>
1000451a:	3b01      	subs	r3, #1
1000451c:	e7f2      	b.n	10004504 <quorem+0x8e>
1000451e:	9802      	ldr	r0, [sp, #8]
10004520:	9907      	ldr	r1, [sp, #28]
10004522:	f001 f857 	bl	100055d4 <__mcmp>
10004526:	2800      	cmp	r0, #0
10004528:	db28      	blt.n	1000457c <quorem+0x106>
1000452a:	2000      	movs	r0, #0
1000452c:	9901      	ldr	r1, [sp, #4]
1000452e:	9a03      	ldr	r2, [sp, #12]
10004530:	3701      	adds	r7, #1
10004532:	ca20      	ldmia	r2!, {r5}
10004534:	880b      	ldrh	r3, [r1, #0]
10004536:	1818      	adds	r0, r3, r0
10004538:	b2ab      	uxth	r3, r5
1000453a:	1ac3      	subs	r3, r0, r3
1000453c:	6808      	ldr	r0, [r1, #0]
1000453e:	0c2d      	lsrs	r5, r5, #16
10004540:	0c00      	lsrs	r0, r0, #16
10004542:	1b45      	subs	r5, r0, r5
10004544:	141e      	asrs	r6, r3, #16
10004546:	19ad      	adds	r5, r5, r6
10004548:	1428      	asrs	r0, r5, #16
1000454a:	b29b      	uxth	r3, r3
1000454c:	042d      	lsls	r5, r5, #16
1000454e:	432b      	orrs	r3, r5
10004550:	c108      	stmia	r1!, {r3}
10004552:	9b04      	ldr	r3, [sp, #16]
10004554:	4293      	cmp	r3, r2
10004556:	d2ec      	bcs.n	10004532 <quorem+0xbc>
10004558:	9a01      	ldr	r2, [sp, #4]
1000455a:	00a3      	lsls	r3, r4, #2
1000455c:	18d3      	adds	r3, r2, r3
1000455e:	681a      	ldr	r2, [r3, #0]
10004560:	2a00      	cmp	r2, #0
10004562:	d10b      	bne.n	1000457c <quorem+0x106>
10004564:	9a01      	ldr	r2, [sp, #4]
10004566:	3b04      	subs	r3, #4
10004568:	4293      	cmp	r3, r2
1000456a:	d802      	bhi.n	10004572 <quorem+0xfc>
1000456c:	9b02      	ldr	r3, [sp, #8]
1000456e:	611c      	str	r4, [r3, #16]
10004570:	e004      	b.n	1000457c <quorem+0x106>
10004572:	681a      	ldr	r2, [r3, #0]
10004574:	2a00      	cmp	r2, #0
10004576:	d1f9      	bne.n	1000456c <quorem+0xf6>
10004578:	3c01      	subs	r4, #1
1000457a:	e7f3      	b.n	10004564 <quorem+0xee>
1000457c:	1c3e      	adds	r6, r7, #0
1000457e:	1c30      	adds	r0, r6, #0
10004580:	b009      	add	sp, #36	; 0x24
10004582:	bdf0      	pop	{r4, r5, r6, r7, pc}

10004584 <_dtoa_r>:
10004584:	b5f0      	push	{r4, r5, r6, r7, lr}
10004586:	1c16      	adds	r6, r2, #0
10004588:	1c1f      	adds	r7, r3, #0
1000458a:	6a44      	ldr	r4, [r0, #36]	; 0x24
1000458c:	b09b      	sub	sp, #108	; 0x6c
1000458e:	9008      	str	r0, [sp, #32]
10004590:	9d23      	ldr	r5, [sp, #140]	; 0x8c
10004592:	9606      	str	r6, [sp, #24]
10004594:	9707      	str	r7, [sp, #28]
10004596:	2c00      	cmp	r4, #0
10004598:	d108      	bne.n	100045ac <_dtoa_r+0x28>
1000459a:	2010      	movs	r0, #16
1000459c:	f000 fdf6 	bl	1000518c <malloc>
100045a0:	9b08      	ldr	r3, [sp, #32]
100045a2:	6258      	str	r0, [r3, #36]	; 0x24
100045a4:	6044      	str	r4, [r0, #4]
100045a6:	6084      	str	r4, [r0, #8]
100045a8:	6004      	str	r4, [r0, #0]
100045aa:	60c4      	str	r4, [r0, #12]
100045ac:	9b08      	ldr	r3, [sp, #32]
100045ae:	6a5b      	ldr	r3, [r3, #36]	; 0x24
100045b0:	6819      	ldr	r1, [r3, #0]
100045b2:	2900      	cmp	r1, #0
100045b4:	d00b      	beq.n	100045ce <_dtoa_r+0x4a>
100045b6:	685a      	ldr	r2, [r3, #4]
100045b8:	2301      	movs	r3, #1
100045ba:	4093      	lsls	r3, r2
100045bc:	604a      	str	r2, [r1, #4]
100045be:	608b      	str	r3, [r1, #8]
100045c0:	9808      	ldr	r0, [sp, #32]
100045c2:	f000 fe2e 	bl	10005222 <_Bfree>
100045c6:	2200      	movs	r2, #0
100045c8:	9b08      	ldr	r3, [sp, #32]
100045ca:	6a5b      	ldr	r3, [r3, #36]	; 0x24
100045cc:	601a      	str	r2, [r3, #0]
100045ce:	9b07      	ldr	r3, [sp, #28]
100045d0:	2b00      	cmp	r3, #0
100045d2:	da05      	bge.n	100045e0 <_dtoa_r+0x5c>
100045d4:	2301      	movs	r3, #1
100045d6:	602b      	str	r3, [r5, #0]
100045d8:	007b      	lsls	r3, r7, #1
100045da:	085b      	lsrs	r3, r3, #1
100045dc:	9307      	str	r3, [sp, #28]
100045de:	e001      	b.n	100045e4 <_dtoa_r+0x60>
100045e0:	2300      	movs	r3, #0
100045e2:	602b      	str	r3, [r5, #0]
100045e4:	9c07      	ldr	r4, [sp, #28]
100045e6:	4bc6      	ldr	r3, [pc, #792]	; (10004900 <_dtoa_r+0x37c>)
100045e8:	1c22      	adds	r2, r4, #0
100045ea:	9317      	str	r3, [sp, #92]	; 0x5c
100045ec:	401a      	ands	r2, r3
100045ee:	429a      	cmp	r2, r3
100045f0:	d119      	bne.n	10004626 <_dtoa_r+0xa2>
100045f2:	4bc4      	ldr	r3, [pc, #784]	; (10004904 <_dtoa_r+0x380>)
100045f4:	9a22      	ldr	r2, [sp, #136]	; 0x88
100045f6:	6013      	str	r3, [r2, #0]
100045f8:	9a06      	ldr	r2, [sp, #24]
100045fa:	4bc3      	ldr	r3, [pc, #780]	; (10004908 <_dtoa_r+0x384>)
100045fc:	2a00      	cmp	r2, #0
100045fe:	d102      	bne.n	10004606 <_dtoa_r+0x82>
10004600:	0324      	lsls	r4, r4, #12
10004602:	d100      	bne.n	10004606 <_dtoa_r+0x82>
10004604:	4bc1      	ldr	r3, [pc, #772]	; (1000490c <_dtoa_r+0x388>)
10004606:	9a24      	ldr	r2, [sp, #144]	; 0x90
10004608:	1c18      	adds	r0, r3, #0
1000460a:	2a00      	cmp	r2, #0
1000460c:	d101      	bne.n	10004612 <_dtoa_r+0x8e>
1000460e:	f000 fdb6 	bl	1000517e <_dtoa_r+0xbfa>
10004612:	78d9      	ldrb	r1, [r3, #3]
10004614:	1cda      	adds	r2, r3, #3
10004616:	2900      	cmp	r1, #0
10004618:	d000      	beq.n	1000461c <_dtoa_r+0x98>
1000461a:	3205      	adds	r2, #5
1000461c:	9924      	ldr	r1, [sp, #144]	; 0x90
1000461e:	1c18      	adds	r0, r3, #0
10004620:	600a      	str	r2, [r1, #0]
10004622:	f000 fdac 	bl	1000517e <_dtoa_r+0xbfa>
10004626:	9e06      	ldr	r6, [sp, #24]
10004628:	9f07      	ldr	r7, [sp, #28]
1000462a:	2200      	movs	r2, #0
1000462c:	1c30      	adds	r0, r6, #0
1000462e:	1c39      	adds	r1, r7, #0
10004630:	2300      	movs	r3, #0
10004632:	f001 f943 	bl	100058bc <__aeabi_dcmpeq>
10004636:	1e05      	subs	r5, r0, #0
10004638:	d00e      	beq.n	10004658 <_dtoa_r+0xd4>
1000463a:	2301      	movs	r3, #1
1000463c:	9a22      	ldr	r2, [sp, #136]	; 0x88
1000463e:	6013      	str	r3, [r2, #0]
10004640:	4bb3      	ldr	r3, [pc, #716]	; (10004910 <_dtoa_r+0x38c>)
10004642:	9a24      	ldr	r2, [sp, #144]	; 0x90
10004644:	1c18      	adds	r0, r3, #0
10004646:	2a00      	cmp	r2, #0
10004648:	d101      	bne.n	1000464e <_dtoa_r+0xca>
1000464a:	f000 fd98 	bl	1000517e <_dtoa_r+0xbfa>
1000464e:	4ab1      	ldr	r2, [pc, #708]	; (10004914 <_dtoa_r+0x390>)
10004650:	9924      	ldr	r1, [sp, #144]	; 0x90
10004652:	600a      	str	r2, [r1, #0]
10004654:	f000 fd93 	bl	1000517e <_dtoa_r+0xbfa>
10004658:	ab19      	add	r3, sp, #100	; 0x64
1000465a:	9300      	str	r3, [sp, #0]
1000465c:	ab18      	add	r3, sp, #96	; 0x60
1000465e:	9301      	str	r3, [sp, #4]
10004660:	9808      	ldr	r0, [sp, #32]
10004662:	1c32      	adds	r2, r6, #0
10004664:	1c3b      	adds	r3, r7, #0
10004666:	f001 f83b 	bl	100056e0 <__d2b>
1000466a:	0061      	lsls	r1, r4, #1
1000466c:	900a      	str	r0, [sp, #40]	; 0x28
1000466e:	0d49      	lsrs	r1, r1, #21
10004670:	d009      	beq.n	10004686 <_dtoa_r+0x102>
10004672:	0338      	lsls	r0, r7, #12
10004674:	4ca8      	ldr	r4, [pc, #672]	; (10004918 <_dtoa_r+0x394>)
10004676:	0b00      	lsrs	r0, r0, #12
10004678:	4304      	orrs	r4, r0
1000467a:	48a8      	ldr	r0, [pc, #672]	; (1000491c <_dtoa_r+0x398>)
1000467c:	1c32      	adds	r2, r6, #0
1000467e:	1c23      	adds	r3, r4, #0
10004680:	180e      	adds	r6, r1, r0
10004682:	9516      	str	r5, [sp, #88]	; 0x58
10004684:	e01c      	b.n	100046c0 <_dtoa_r+0x13c>
10004686:	9b18      	ldr	r3, [sp, #96]	; 0x60
10004688:	9a19      	ldr	r2, [sp, #100]	; 0x64
1000468a:	189e      	adds	r6, r3, r2
1000468c:	4ba4      	ldr	r3, [pc, #656]	; (10004920 <_dtoa_r+0x39c>)
1000468e:	429e      	cmp	r6, r3
10004690:	db09      	blt.n	100046a6 <_dtoa_r+0x122>
10004692:	4ba4      	ldr	r3, [pc, #656]	; (10004924 <_dtoa_r+0x3a0>)
10004694:	18f0      	adds	r0, r6, r3
10004696:	9b06      	ldr	r3, [sp, #24]
10004698:	40c3      	lsrs	r3, r0
1000469a:	1c18      	adds	r0, r3, #0
1000469c:	4ba2      	ldr	r3, [pc, #648]	; (10004928 <_dtoa_r+0x3a4>)
1000469e:	1b9b      	subs	r3, r3, r6
100046a0:	409c      	lsls	r4, r3
100046a2:	4320      	orrs	r0, r4
100046a4:	e004      	b.n	100046b0 <_dtoa_r+0x12c>
100046a6:	48a1      	ldr	r0, [pc, #644]	; (1000492c <_dtoa_r+0x3a8>)
100046a8:	9b06      	ldr	r3, [sp, #24]
100046aa:	1b80      	subs	r0, r0, r6
100046ac:	4083      	lsls	r3, r0
100046ae:	1c18      	adds	r0, r3, #0
100046b0:	f002 ff1e 	bl	100074f0 <__aeabi_ui2d>
100046b4:	4c9e      	ldr	r4, [pc, #632]	; (10004930 <_dtoa_r+0x3ac>)
100046b6:	1c02      	adds	r2, r0, #0
100046b8:	190b      	adds	r3, r1, r4
100046ba:	2101      	movs	r1, #1
100046bc:	3e01      	subs	r6, #1
100046be:	9116      	str	r1, [sp, #88]	; 0x58
100046c0:	1c10      	adds	r0, r2, #0
100046c2:	1c19      	adds	r1, r3, #0
100046c4:	2200      	movs	r2, #0
100046c6:	4b9b      	ldr	r3, [pc, #620]	; (10004934 <_dtoa_r+0x3b0>)
100046c8:	f002 fb26 	bl	10006d18 <__aeabi_dsub>
100046cc:	4a9a      	ldr	r2, [pc, #616]	; (10004938 <_dtoa_r+0x3b4>)
100046ce:	4b9b      	ldr	r3, [pc, #620]	; (1000493c <_dtoa_r+0x3b8>)
100046d0:	f002 f888 	bl	100067e4 <__aeabi_dmul>
100046d4:	4a9a      	ldr	r2, [pc, #616]	; (10004940 <_dtoa_r+0x3bc>)
100046d6:	4b9b      	ldr	r3, [pc, #620]	; (10004944 <_dtoa_r+0x3c0>)
100046d8:	f001 f91e 	bl	10005918 <__aeabi_dadd>
100046dc:	1c04      	adds	r4, r0, #0
100046de:	1c30      	adds	r0, r6, #0
100046e0:	1c0d      	adds	r5, r1, #0
100046e2:	f002 fec9 	bl	10007478 <__aeabi_i2d>
100046e6:	4a98      	ldr	r2, [pc, #608]	; (10004948 <_dtoa_r+0x3c4>)
100046e8:	4b98      	ldr	r3, [pc, #608]	; (1000494c <_dtoa_r+0x3c8>)
100046ea:	f002 f87b 	bl	100067e4 <__aeabi_dmul>
100046ee:	1c02      	adds	r2, r0, #0
100046f0:	1c0b      	adds	r3, r1, #0
100046f2:	1c20      	adds	r0, r4, #0
100046f4:	1c29      	adds	r1, r5, #0
100046f6:	f001 f90f 	bl	10005918 <__aeabi_dadd>
100046fa:	1c04      	adds	r4, r0, #0
100046fc:	1c0d      	adds	r5, r1, #0
100046fe:	f002 fe85 	bl	1000740c <__aeabi_d2iz>
10004702:	1c29      	adds	r1, r5, #0
10004704:	9003      	str	r0, [sp, #12]
10004706:	2200      	movs	r2, #0
10004708:	1c20      	adds	r0, r4, #0
1000470a:	2300      	movs	r3, #0
1000470c:	f001 f8dc 	bl	100058c8 <__aeabi_dcmplt>
10004710:	2800      	cmp	r0, #0
10004712:	d00d      	beq.n	10004730 <_dtoa_r+0x1ac>
10004714:	9803      	ldr	r0, [sp, #12]
10004716:	f002 feaf 	bl	10007478 <__aeabi_i2d>
1000471a:	1c02      	adds	r2, r0, #0
1000471c:	1c0b      	adds	r3, r1, #0
1000471e:	1c20      	adds	r0, r4, #0
10004720:	1c29      	adds	r1, r5, #0
10004722:	f001 f8cb 	bl	100058bc <__aeabi_dcmpeq>
10004726:	4243      	negs	r3, r0
10004728:	4143      	adcs	r3, r0
1000472a:	9a03      	ldr	r2, [sp, #12]
1000472c:	1ad3      	subs	r3, r2, r3
1000472e:	9303      	str	r3, [sp, #12]
10004730:	2301      	movs	r3, #1
10004732:	9313      	str	r3, [sp, #76]	; 0x4c
10004734:	9b03      	ldr	r3, [sp, #12]
10004736:	2b16      	cmp	r3, #22
10004738:	d811      	bhi.n	1000475e <_dtoa_r+0x1da>
1000473a:	4a85      	ldr	r2, [pc, #532]	; (10004950 <_dtoa_r+0x3cc>)
1000473c:	00db      	lsls	r3, r3, #3
1000473e:	18d3      	adds	r3, r2, r3
10004740:	6818      	ldr	r0, [r3, #0]
10004742:	6859      	ldr	r1, [r3, #4]
10004744:	9a06      	ldr	r2, [sp, #24]
10004746:	9b07      	ldr	r3, [sp, #28]
10004748:	f001 f8d2 	bl	100058f0 <__aeabi_dcmpgt>
1000474c:	2800      	cmp	r0, #0
1000474e:	d005      	beq.n	1000475c <_dtoa_r+0x1d8>
10004750:	9b03      	ldr	r3, [sp, #12]
10004752:	3b01      	subs	r3, #1
10004754:	9303      	str	r3, [sp, #12]
10004756:	2300      	movs	r3, #0
10004758:	9313      	str	r3, [sp, #76]	; 0x4c
1000475a:	e000      	b.n	1000475e <_dtoa_r+0x1da>
1000475c:	9013      	str	r0, [sp, #76]	; 0x4c
1000475e:	9b18      	ldr	r3, [sp, #96]	; 0x60
10004760:	1b9e      	subs	r6, r3, r6
10004762:	2300      	movs	r3, #0
10004764:	930d      	str	r3, [sp, #52]	; 0x34
10004766:	3e01      	subs	r6, #1
10004768:	960e      	str	r6, [sp, #56]	; 0x38
1000476a:	d504      	bpl.n	10004776 <_dtoa_r+0x1f2>
1000476c:	9b0e      	ldr	r3, [sp, #56]	; 0x38
1000476e:	425b      	negs	r3, r3
10004770:	930d      	str	r3, [sp, #52]	; 0x34
10004772:	2300      	movs	r3, #0
10004774:	930e      	str	r3, [sp, #56]	; 0x38
10004776:	9b03      	ldr	r3, [sp, #12]
10004778:	2b00      	cmp	r3, #0
1000477a:	db08      	blt.n	1000478e <_dtoa_r+0x20a>
1000477c:	9a03      	ldr	r2, [sp, #12]
1000477e:	9b0e      	ldr	r3, [sp, #56]	; 0x38
10004780:	4694      	mov	ip, r2
10004782:	4463      	add	r3, ip
10004784:	930e      	str	r3, [sp, #56]	; 0x38
10004786:	2300      	movs	r3, #0
10004788:	9212      	str	r2, [sp, #72]	; 0x48
1000478a:	930f      	str	r3, [sp, #60]	; 0x3c
1000478c:	e007      	b.n	1000479e <_dtoa_r+0x21a>
1000478e:	9b0d      	ldr	r3, [sp, #52]	; 0x34
10004790:	9a03      	ldr	r2, [sp, #12]
10004792:	1a9b      	subs	r3, r3, r2
10004794:	930d      	str	r3, [sp, #52]	; 0x34
10004796:	4253      	negs	r3, r2
10004798:	930f      	str	r3, [sp, #60]	; 0x3c
1000479a:	2300      	movs	r3, #0
1000479c:	9312      	str	r3, [sp, #72]	; 0x48
1000479e:	9b20      	ldr	r3, [sp, #128]	; 0x80
100047a0:	2501      	movs	r5, #1
100047a2:	2b09      	cmp	r3, #9
100047a4:	d827      	bhi.n	100047f6 <_dtoa_r+0x272>
100047a6:	2b05      	cmp	r3, #5
100047a8:	dd02      	ble.n	100047b0 <_dtoa_r+0x22c>
100047aa:	2500      	movs	r5, #0
100047ac:	3b04      	subs	r3, #4
100047ae:	9320      	str	r3, [sp, #128]	; 0x80
100047b0:	9b20      	ldr	r3, [sp, #128]	; 0x80
100047b2:	1e98      	subs	r0, r3, #2
100047b4:	2803      	cmp	r0, #3
100047b6:	d823      	bhi.n	10004800 <_dtoa_r+0x27c>
100047b8:	f001 f866 	bl	10005888 <__gnu_thumb1_case_uqi>
100047bc:	10040e02 	.word	0x10040e02
100047c0:	2300      	movs	r3, #0
100047c2:	e000      	b.n	100047c6 <_dtoa_r+0x242>
100047c4:	2301      	movs	r3, #1
100047c6:	9310      	str	r3, [sp, #64]	; 0x40
100047c8:	9b21      	ldr	r3, [sp, #132]	; 0x84
100047ca:	2b00      	cmp	r3, #0
100047cc:	dc21      	bgt.n	10004812 <_dtoa_r+0x28e>
100047ce:	2301      	movs	r3, #1
100047d0:	930b      	str	r3, [sp, #44]	; 0x2c
100047d2:	9309      	str	r3, [sp, #36]	; 0x24
100047d4:	1c1a      	adds	r2, r3, #0
100047d6:	e01a      	b.n	1000480e <_dtoa_r+0x28a>
100047d8:	2300      	movs	r3, #0
100047da:	e000      	b.n	100047de <_dtoa_r+0x25a>
100047dc:	2301      	movs	r3, #1
100047de:	9a03      	ldr	r2, [sp, #12]
100047e0:	9310      	str	r3, [sp, #64]	; 0x40
100047e2:	4694      	mov	ip, r2
100047e4:	9b21      	ldr	r3, [sp, #132]	; 0x84
100047e6:	4463      	add	r3, ip
100047e8:	930b      	str	r3, [sp, #44]	; 0x2c
100047ea:	3301      	adds	r3, #1
100047ec:	9309      	str	r3, [sp, #36]	; 0x24
100047ee:	2b00      	cmp	r3, #0
100047f0:	dc12      	bgt.n	10004818 <_dtoa_r+0x294>
100047f2:	2301      	movs	r3, #1
100047f4:	e010      	b.n	10004818 <_dtoa_r+0x294>
100047f6:	2300      	movs	r3, #0
100047f8:	9510      	str	r5, [sp, #64]	; 0x40
100047fa:	9320      	str	r3, [sp, #128]	; 0x80
100047fc:	3b01      	subs	r3, #1
100047fe:	e002      	b.n	10004806 <_dtoa_r+0x282>
10004800:	2301      	movs	r3, #1
10004802:	9310      	str	r3, [sp, #64]	; 0x40
10004804:	3b02      	subs	r3, #2
10004806:	2200      	movs	r2, #0
10004808:	930b      	str	r3, [sp, #44]	; 0x2c
1000480a:	9309      	str	r3, [sp, #36]	; 0x24
1000480c:	3313      	adds	r3, #19
1000480e:	9221      	str	r2, [sp, #132]	; 0x84
10004810:	e002      	b.n	10004818 <_dtoa_r+0x294>
10004812:	9b21      	ldr	r3, [sp, #132]	; 0x84
10004814:	930b      	str	r3, [sp, #44]	; 0x2c
10004816:	9309      	str	r3, [sp, #36]	; 0x24
10004818:	9a08      	ldr	r2, [sp, #32]
1000481a:	6a54      	ldr	r4, [r2, #36]	; 0x24
1000481c:	2200      	movs	r2, #0
1000481e:	6062      	str	r2, [r4, #4]
10004820:	3204      	adds	r2, #4
10004822:	1c11      	adds	r1, r2, #0
10004824:	3114      	adds	r1, #20
10004826:	4299      	cmp	r1, r3
10004828:	d804      	bhi.n	10004834 <_dtoa_r+0x2b0>
1000482a:	6861      	ldr	r1, [r4, #4]
1000482c:	0052      	lsls	r2, r2, #1
1000482e:	3101      	adds	r1, #1
10004830:	6061      	str	r1, [r4, #4]
10004832:	e7f6      	b.n	10004822 <_dtoa_r+0x29e>
10004834:	9808      	ldr	r0, [sp, #32]
10004836:	6861      	ldr	r1, [r4, #4]
10004838:	f000 fcbb 	bl	100051b2 <_Balloc>
1000483c:	9b08      	ldr	r3, [sp, #32]
1000483e:	6020      	str	r0, [r4, #0]
10004840:	6a5b      	ldr	r3, [r3, #36]	; 0x24
10004842:	681b      	ldr	r3, [r3, #0]
10004844:	930c      	str	r3, [sp, #48]	; 0x30
10004846:	9b09      	ldr	r3, [sp, #36]	; 0x24
10004848:	2b0e      	cmp	r3, #14
1000484a:	d900      	bls.n	1000484e <_dtoa_r+0x2ca>
1000484c:	e188      	b.n	10004b60 <_dtoa_r+0x5dc>
1000484e:	2d00      	cmp	r5, #0
10004850:	d100      	bne.n	10004854 <_dtoa_r+0x2d0>
10004852:	e185      	b.n	10004b60 <_dtoa_r+0x5dc>
10004854:	9b06      	ldr	r3, [sp, #24]
10004856:	9c07      	ldr	r4, [sp, #28]
10004858:	9314      	str	r3, [sp, #80]	; 0x50
1000485a:	9415      	str	r4, [sp, #84]	; 0x54
1000485c:	9b03      	ldr	r3, [sp, #12]
1000485e:	2b00      	cmp	r3, #0
10004860:	dd30      	ble.n	100048c4 <_dtoa_r+0x340>
10004862:	220f      	movs	r2, #15
10004864:	493a      	ldr	r1, [pc, #232]	; (10004950 <_dtoa_r+0x3cc>)
10004866:	4013      	ands	r3, r2
10004868:	00db      	lsls	r3, r3, #3
1000486a:	18cb      	adds	r3, r1, r3
1000486c:	685c      	ldr	r4, [r3, #4]
1000486e:	681b      	ldr	r3, [r3, #0]
10004870:	9304      	str	r3, [sp, #16]
10004872:	9405      	str	r4, [sp, #20]
10004874:	9b03      	ldr	r3, [sp, #12]
10004876:	2702      	movs	r7, #2
10004878:	111d      	asrs	r5, r3, #4
1000487a:	06eb      	lsls	r3, r5, #27
1000487c:	d50a      	bpl.n	10004894 <_dtoa_r+0x310>
1000487e:	9814      	ldr	r0, [sp, #80]	; 0x50
10004880:	9915      	ldr	r1, [sp, #84]	; 0x54
10004882:	4b34      	ldr	r3, [pc, #208]	; (10004954 <_dtoa_r+0x3d0>)
10004884:	4015      	ands	r5, r2
10004886:	6a1a      	ldr	r2, [r3, #32]
10004888:	6a5b      	ldr	r3, [r3, #36]	; 0x24
1000488a:	f001 fb6d 	bl	10005f68 <__aeabi_ddiv>
1000488e:	9006      	str	r0, [sp, #24]
10004890:	9107      	str	r1, [sp, #28]
10004892:	3701      	adds	r7, #1
10004894:	4c2f      	ldr	r4, [pc, #188]	; (10004954 <_dtoa_r+0x3d0>)
10004896:	2d00      	cmp	r5, #0
10004898:	d00d      	beq.n	100048b6 <_dtoa_r+0x332>
1000489a:	07eb      	lsls	r3, r5, #31
1000489c:	d508      	bpl.n	100048b0 <_dtoa_r+0x32c>
1000489e:	9804      	ldr	r0, [sp, #16]
100048a0:	9905      	ldr	r1, [sp, #20]
100048a2:	6822      	ldr	r2, [r4, #0]
100048a4:	6863      	ldr	r3, [r4, #4]
100048a6:	f001 ff9d 	bl	100067e4 <__aeabi_dmul>
100048aa:	9004      	str	r0, [sp, #16]
100048ac:	9105      	str	r1, [sp, #20]
100048ae:	3701      	adds	r7, #1
100048b0:	106d      	asrs	r5, r5, #1
100048b2:	3408      	adds	r4, #8
100048b4:	e7ef      	b.n	10004896 <_dtoa_r+0x312>
100048b6:	9806      	ldr	r0, [sp, #24]
100048b8:	9907      	ldr	r1, [sp, #28]
100048ba:	9a04      	ldr	r2, [sp, #16]
100048bc:	9b05      	ldr	r3, [sp, #20]
100048be:	f001 fb53 	bl	10005f68 <__aeabi_ddiv>
100048c2:	e049      	b.n	10004958 <_dtoa_r+0x3d4>
100048c4:	9b03      	ldr	r3, [sp, #12]
100048c6:	2702      	movs	r7, #2
100048c8:	425d      	negs	r5, r3
100048ca:	2d00      	cmp	r5, #0
100048cc:	d046      	beq.n	1000495c <_dtoa_r+0x3d8>
100048ce:	9814      	ldr	r0, [sp, #80]	; 0x50
100048d0:	9915      	ldr	r1, [sp, #84]	; 0x54
100048d2:	230f      	movs	r3, #15
100048d4:	4a1e      	ldr	r2, [pc, #120]	; (10004950 <_dtoa_r+0x3cc>)
100048d6:	402b      	ands	r3, r5
100048d8:	00db      	lsls	r3, r3, #3
100048da:	18d3      	adds	r3, r2, r3
100048dc:	681a      	ldr	r2, [r3, #0]
100048de:	685b      	ldr	r3, [r3, #4]
100048e0:	f001 ff80 	bl	100067e4 <__aeabi_dmul>
100048e4:	4c1b      	ldr	r4, [pc, #108]	; (10004954 <_dtoa_r+0x3d0>)
100048e6:	112d      	asrs	r5, r5, #4
100048e8:	2d00      	cmp	r5, #0
100048ea:	d035      	beq.n	10004958 <_dtoa_r+0x3d4>
100048ec:	07eb      	lsls	r3, r5, #31
100048ee:	d504      	bpl.n	100048fa <_dtoa_r+0x376>
100048f0:	6822      	ldr	r2, [r4, #0]
100048f2:	6863      	ldr	r3, [r4, #4]
100048f4:	3701      	adds	r7, #1
100048f6:	f001 ff75 	bl	100067e4 <__aeabi_dmul>
100048fa:	106d      	asrs	r5, r5, #1
100048fc:	3408      	adds	r4, #8
100048fe:	e7f3      	b.n	100048e8 <_dtoa_r+0x364>
10004900:	7ff00000 	.word	0x7ff00000
10004904:	0000270f 	.word	0x0000270f
10004908:	10007701 	.word	0x10007701
1000490c:	100076f8 	.word	0x100076f8
10004910:	100076f6 	.word	0x100076f6
10004914:	100076f7 	.word	0x100076f7
10004918:	3ff00000 	.word	0x3ff00000
1000491c:	fffffc01 	.word	0xfffffc01
10004920:	fffffbef 	.word	0xfffffbef
10004924:	00000412 	.word	0x00000412
10004928:	fffffc0e 	.word	0xfffffc0e
1000492c:	fffffbee 	.word	0xfffffbee
10004930:	fe100000 	.word	0xfe100000
10004934:	3ff80000 	.word	0x3ff80000
10004938:	636f4361 	.word	0x636f4361
1000493c:	3fd287a7 	.word	0x3fd287a7
10004940:	8b60c8b3 	.word	0x8b60c8b3
10004944:	3fc68a28 	.word	0x3fc68a28
10004948:	509f79fb 	.word	0x509f79fb
1000494c:	3fd34413 	.word	0x3fd34413
10004950:	10007710 	.word	0x10007710
10004954:	100077d8 	.word	0x100077d8
10004958:	9006      	str	r0, [sp, #24]
1000495a:	9107      	str	r1, [sp, #28]
1000495c:	9b13      	ldr	r3, [sp, #76]	; 0x4c
1000495e:	2b00      	cmp	r3, #0
10004960:	d01e      	beq.n	100049a0 <_dtoa_r+0x41c>
10004962:	9c06      	ldr	r4, [sp, #24]
10004964:	9d07      	ldr	r5, [sp, #28]
10004966:	2200      	movs	r2, #0
10004968:	1c20      	adds	r0, r4, #0
1000496a:	1c29      	adds	r1, r5, #0
1000496c:	4bce      	ldr	r3, [pc, #824]	; (10004ca8 <_dtoa_r+0x724>)
1000496e:	f000 ffab 	bl	100058c8 <__aeabi_dcmplt>
10004972:	2800      	cmp	r0, #0
10004974:	d014      	beq.n	100049a0 <_dtoa_r+0x41c>
10004976:	9b09      	ldr	r3, [sp, #36]	; 0x24
10004978:	2b00      	cmp	r3, #0
1000497a:	d011      	beq.n	100049a0 <_dtoa_r+0x41c>
1000497c:	9b0b      	ldr	r3, [sp, #44]	; 0x2c
1000497e:	2b00      	cmp	r3, #0
10004980:	dc00      	bgt.n	10004984 <_dtoa_r+0x400>
10004982:	e0e9      	b.n	10004b58 <_dtoa_r+0x5d4>
10004984:	9b03      	ldr	r3, [sp, #12]
10004986:	1c29      	adds	r1, r5, #0
10004988:	3b01      	subs	r3, #1
1000498a:	9311      	str	r3, [sp, #68]	; 0x44
1000498c:	1c20      	adds	r0, r4, #0
1000498e:	2200      	movs	r2, #0
10004990:	4bc6      	ldr	r3, [pc, #792]	; (10004cac <_dtoa_r+0x728>)
10004992:	f001 ff27 	bl	100067e4 <__aeabi_dmul>
10004996:	3701      	adds	r7, #1
10004998:	9006      	str	r0, [sp, #24]
1000499a:	9107      	str	r1, [sp, #28]
1000499c:	9d0b      	ldr	r5, [sp, #44]	; 0x2c
1000499e:	e002      	b.n	100049a6 <_dtoa_r+0x422>
100049a0:	9b03      	ldr	r3, [sp, #12]
100049a2:	9d09      	ldr	r5, [sp, #36]	; 0x24
100049a4:	9311      	str	r3, [sp, #68]	; 0x44
100049a6:	1c38      	adds	r0, r7, #0
100049a8:	9b06      	ldr	r3, [sp, #24]
100049aa:	9c07      	ldr	r4, [sp, #28]
100049ac:	9304      	str	r3, [sp, #16]
100049ae:	9405      	str	r4, [sp, #20]
100049b0:	f002 fd62 	bl	10007478 <__aeabi_i2d>
100049b4:	9a04      	ldr	r2, [sp, #16]
100049b6:	9b05      	ldr	r3, [sp, #20]
100049b8:	f001 ff14 	bl	100067e4 <__aeabi_dmul>
100049bc:	2200      	movs	r2, #0
100049be:	4bbc      	ldr	r3, [pc, #752]	; (10004cb0 <_dtoa_r+0x72c>)
100049c0:	f000 ffaa 	bl	10005918 <__aeabi_dadd>
100049c4:	9006      	str	r0, [sp, #24]
100049c6:	9107      	str	r1, [sp, #28]
100049c8:	9e06      	ldr	r6, [sp, #24]
100049ca:	9f07      	ldr	r7, [sp, #28]
100049cc:	9b07      	ldr	r3, [sp, #28]
100049ce:	4ab9      	ldr	r2, [pc, #740]	; (10004cb4 <_dtoa_r+0x730>)
100049d0:	189c      	adds	r4, r3, r2
100049d2:	2d00      	cmp	r5, #0
100049d4:	d11c      	bne.n	10004a10 <_dtoa_r+0x48c>
100049d6:	9804      	ldr	r0, [sp, #16]
100049d8:	9905      	ldr	r1, [sp, #20]
100049da:	2200      	movs	r2, #0
100049dc:	4bb6      	ldr	r3, [pc, #728]	; (10004cb8 <_dtoa_r+0x734>)
100049de:	f002 f99b 	bl	10006d18 <__aeabi_dsub>
100049e2:	1c32      	adds	r2, r6, #0
100049e4:	1c23      	adds	r3, r4, #0
100049e6:	9004      	str	r0, [sp, #16]
100049e8:	9105      	str	r1, [sp, #20]
100049ea:	f000 ff81 	bl	100058f0 <__aeabi_dcmpgt>
100049ee:	2800      	cmp	r0, #0
100049f0:	d000      	beq.n	100049f4 <_dtoa_r+0x470>
100049f2:	e263      	b.n	10004ebc <_dtoa_r+0x938>
100049f4:	9804      	ldr	r0, [sp, #16]
100049f6:	9905      	ldr	r1, [sp, #20]
100049f8:	1c32      	adds	r2, r6, #0
100049fa:	4eb0      	ldr	r6, [pc, #704]	; (10004cbc <_dtoa_r+0x738>)
100049fc:	9c07      	ldr	r4, [sp, #28]
100049fe:	46b4      	mov	ip, r6
10004a00:	4464      	add	r4, ip
10004a02:	1c23      	adds	r3, r4, #0
10004a04:	f000 ff60 	bl	100058c8 <__aeabi_dcmplt>
10004a08:	2800      	cmp	r0, #0
10004a0a:	d000      	beq.n	10004a0e <_dtoa_r+0x48a>
10004a0c:	e24c      	b.n	10004ea8 <_dtoa_r+0x924>
10004a0e:	e0a3      	b.n	10004b58 <_dtoa_r+0x5d4>
10004a10:	4aab      	ldr	r2, [pc, #684]	; (10004cc0 <_dtoa_r+0x73c>)
10004a12:	1e6b      	subs	r3, r5, #1
10004a14:	9910      	ldr	r1, [sp, #64]	; 0x40
10004a16:	00db      	lsls	r3, r3, #3
10004a18:	18d3      	adds	r3, r2, r3
10004a1a:	2900      	cmp	r1, #0
10004a1c:	d04e      	beq.n	10004abc <_dtoa_r+0x538>
10004a1e:	681a      	ldr	r2, [r3, #0]
10004a20:	685b      	ldr	r3, [r3, #4]
10004a22:	2000      	movs	r0, #0
10004a24:	49a7      	ldr	r1, [pc, #668]	; (10004cc4 <_dtoa_r+0x740>)
10004a26:	f001 fa9f 	bl	10005f68 <__aeabi_ddiv>
10004a2a:	1c32      	adds	r2, r6, #0
10004a2c:	1c23      	adds	r3, r4, #0
10004a2e:	f002 f973 	bl	10006d18 <__aeabi_dsub>
10004a32:	9e04      	ldr	r6, [sp, #16]
10004a34:	9f05      	ldr	r7, [sp, #20]
10004a36:	9b0c      	ldr	r3, [sp, #48]	; 0x30
10004a38:	9006      	str	r0, [sp, #24]
10004a3a:	9107      	str	r1, [sp, #28]
10004a3c:	9304      	str	r3, [sp, #16]
10004a3e:	1c39      	adds	r1, r7, #0
10004a40:	1c30      	adds	r0, r6, #0
10004a42:	f002 fce3 	bl	1000740c <__aeabi_d2iz>
10004a46:	1c04      	adds	r4, r0, #0
10004a48:	f002 fd16 	bl	10007478 <__aeabi_i2d>
10004a4c:	1c02      	adds	r2, r0, #0
10004a4e:	1c0b      	adds	r3, r1, #0
10004a50:	1c30      	adds	r0, r6, #0
10004a52:	1c39      	adds	r1, r7, #0
10004a54:	f002 f960 	bl	10006d18 <__aeabi_dsub>
10004a58:	9b04      	ldr	r3, [sp, #16]
10004a5a:	3430      	adds	r4, #48	; 0x30
10004a5c:	3301      	adds	r3, #1
10004a5e:	9304      	str	r3, [sp, #16]
10004a60:	3b01      	subs	r3, #1
10004a62:	701c      	strb	r4, [r3, #0]
10004a64:	9a06      	ldr	r2, [sp, #24]
10004a66:	9b07      	ldr	r3, [sp, #28]
10004a68:	1c06      	adds	r6, r0, #0
10004a6a:	1c0f      	adds	r7, r1, #0
10004a6c:	f000 ff2c 	bl	100058c8 <__aeabi_dcmplt>
10004a70:	2800      	cmp	r0, #0
10004a72:	d000      	beq.n	10004a76 <_dtoa_r+0x4f2>
10004a74:	e361      	b.n	1000513a <_dtoa_r+0xbb6>
10004a76:	1c32      	adds	r2, r6, #0
10004a78:	1c3b      	adds	r3, r7, #0
10004a7a:	2000      	movs	r0, #0
10004a7c:	498a      	ldr	r1, [pc, #552]	; (10004ca8 <_dtoa_r+0x724>)
10004a7e:	f002 f94b 	bl	10006d18 <__aeabi_dsub>
10004a82:	9a06      	ldr	r2, [sp, #24]
10004a84:	9b07      	ldr	r3, [sp, #28]
10004a86:	f000 ff1f 	bl	100058c8 <__aeabi_dcmplt>
10004a8a:	2800      	cmp	r0, #0
10004a8c:	d000      	beq.n	10004a90 <_dtoa_r+0x50c>
10004a8e:	e0cd      	b.n	10004c2c <_dtoa_r+0x6a8>
10004a90:	9b04      	ldr	r3, [sp, #16]
10004a92:	9a0c      	ldr	r2, [sp, #48]	; 0x30
10004a94:	1a9b      	subs	r3, r3, r2
10004a96:	42ab      	cmp	r3, r5
10004a98:	da5e      	bge.n	10004b58 <_dtoa_r+0x5d4>
10004a9a:	9806      	ldr	r0, [sp, #24]
10004a9c:	9907      	ldr	r1, [sp, #28]
10004a9e:	2200      	movs	r2, #0
10004aa0:	4b82      	ldr	r3, [pc, #520]	; (10004cac <_dtoa_r+0x728>)
10004aa2:	f001 fe9f 	bl	100067e4 <__aeabi_dmul>
10004aa6:	2200      	movs	r2, #0
10004aa8:	9006      	str	r0, [sp, #24]
10004aaa:	9107      	str	r1, [sp, #28]
10004aac:	4b7f      	ldr	r3, [pc, #508]	; (10004cac <_dtoa_r+0x728>)
10004aae:	1c30      	adds	r0, r6, #0
10004ab0:	1c39      	adds	r1, r7, #0
10004ab2:	f001 fe97 	bl	100067e4 <__aeabi_dmul>
10004ab6:	1c06      	adds	r6, r0, #0
10004ab8:	1c0f      	adds	r7, r1, #0
10004aba:	e7c0      	b.n	10004a3e <_dtoa_r+0x4ba>
10004abc:	6818      	ldr	r0, [r3, #0]
10004abe:	6859      	ldr	r1, [r3, #4]
10004ac0:	1c32      	adds	r2, r6, #0
10004ac2:	1c23      	adds	r3, r4, #0
10004ac4:	f001 fe8e 	bl	100067e4 <__aeabi_dmul>
10004ac8:	9e04      	ldr	r6, [sp, #16]
10004aca:	9f05      	ldr	r7, [sp, #20]
10004acc:	9c0c      	ldr	r4, [sp, #48]	; 0x30
10004ace:	9006      	str	r0, [sp, #24]
10004ad0:	9107      	str	r1, [sp, #28]
10004ad2:	1963      	adds	r3, r4, r5
10004ad4:	9304      	str	r3, [sp, #16]
10004ad6:	1c39      	adds	r1, r7, #0
10004ad8:	1c30      	adds	r0, r6, #0
10004ada:	f002 fc97 	bl	1000740c <__aeabi_d2iz>
10004ade:	1c05      	adds	r5, r0, #0
10004ae0:	f002 fcca 	bl	10007478 <__aeabi_i2d>
10004ae4:	1c0b      	adds	r3, r1, #0
10004ae6:	1c02      	adds	r2, r0, #0
10004ae8:	1c39      	adds	r1, r7, #0
10004aea:	1c30      	adds	r0, r6, #0
10004aec:	f002 f914 	bl	10006d18 <__aeabi_dsub>
10004af0:	3530      	adds	r5, #48	; 0x30
10004af2:	9b04      	ldr	r3, [sp, #16]
10004af4:	7025      	strb	r5, [r4, #0]
10004af6:	3401      	adds	r4, #1
10004af8:	1c06      	adds	r6, r0, #0
10004afa:	1c0f      	adds	r7, r1, #0
10004afc:	42a3      	cmp	r3, r4
10004afe:	d124      	bne.n	10004b4a <_dtoa_r+0x5c6>
10004b00:	2200      	movs	r2, #0
10004b02:	9806      	ldr	r0, [sp, #24]
10004b04:	9907      	ldr	r1, [sp, #28]
10004b06:	4b6f      	ldr	r3, [pc, #444]	; (10004cc4 <_dtoa_r+0x740>)
10004b08:	f000 ff06 	bl	10005918 <__aeabi_dadd>
10004b0c:	1c02      	adds	r2, r0, #0
10004b0e:	1c0b      	adds	r3, r1, #0
10004b10:	1c30      	adds	r0, r6, #0
10004b12:	1c39      	adds	r1, r7, #0
10004b14:	f000 feec 	bl	100058f0 <__aeabi_dcmpgt>
10004b18:	2800      	cmp	r0, #0
10004b1a:	d000      	beq.n	10004b1e <_dtoa_r+0x59a>
10004b1c:	e086      	b.n	10004c2c <_dtoa_r+0x6a8>
10004b1e:	9a06      	ldr	r2, [sp, #24]
10004b20:	9b07      	ldr	r3, [sp, #28]
10004b22:	2000      	movs	r0, #0
10004b24:	4967      	ldr	r1, [pc, #412]	; (10004cc4 <_dtoa_r+0x740>)
10004b26:	f002 f8f7 	bl	10006d18 <__aeabi_dsub>
10004b2a:	1c02      	adds	r2, r0, #0
10004b2c:	1c0b      	adds	r3, r1, #0
10004b2e:	1c30      	adds	r0, r6, #0
10004b30:	1c39      	adds	r1, r7, #0
10004b32:	f000 fec9 	bl	100058c8 <__aeabi_dcmplt>
10004b36:	2800      	cmp	r0, #0
10004b38:	d00e      	beq.n	10004b58 <_dtoa_r+0x5d4>
10004b3a:	9b04      	ldr	r3, [sp, #16]
10004b3c:	3b01      	subs	r3, #1
10004b3e:	781a      	ldrb	r2, [r3, #0]
10004b40:	2a30      	cmp	r2, #48	; 0x30
10004b42:	d000      	beq.n	10004b46 <_dtoa_r+0x5c2>
10004b44:	e2f9      	b.n	1000513a <_dtoa_r+0xbb6>
10004b46:	9304      	str	r3, [sp, #16]
10004b48:	e7f7      	b.n	10004b3a <_dtoa_r+0x5b6>
10004b4a:	2200      	movs	r2, #0
10004b4c:	4b57      	ldr	r3, [pc, #348]	; (10004cac <_dtoa_r+0x728>)
10004b4e:	f001 fe49 	bl	100067e4 <__aeabi_dmul>
10004b52:	1c06      	adds	r6, r0, #0
10004b54:	1c0f      	adds	r7, r1, #0
10004b56:	e7be      	b.n	10004ad6 <_dtoa_r+0x552>
10004b58:	9b14      	ldr	r3, [sp, #80]	; 0x50
10004b5a:	9c15      	ldr	r4, [sp, #84]	; 0x54
10004b5c:	9306      	str	r3, [sp, #24]
10004b5e:	9407      	str	r4, [sp, #28]
10004b60:	9b19      	ldr	r3, [sp, #100]	; 0x64
10004b62:	2b00      	cmp	r3, #0
10004b64:	da00      	bge.n	10004b68 <_dtoa_r+0x5e4>
10004b66:	e086      	b.n	10004c76 <_dtoa_r+0x6f2>
10004b68:	9a03      	ldr	r2, [sp, #12]
10004b6a:	2a0e      	cmp	r2, #14
10004b6c:	dd00      	ble.n	10004b70 <_dtoa_r+0x5ec>
10004b6e:	e082      	b.n	10004c76 <_dtoa_r+0x6f2>
10004b70:	00d3      	lsls	r3, r2, #3
10004b72:	4a53      	ldr	r2, [pc, #332]	; (10004cc0 <_dtoa_r+0x73c>)
10004b74:	18d3      	adds	r3, r2, r3
10004b76:	681e      	ldr	r6, [r3, #0]
10004b78:	685f      	ldr	r7, [r3, #4]
10004b7a:	9b21      	ldr	r3, [sp, #132]	; 0x84
10004b7c:	2b00      	cmp	r3, #0
10004b7e:	da14      	bge.n	10004baa <_dtoa_r+0x626>
10004b80:	9b09      	ldr	r3, [sp, #36]	; 0x24
10004b82:	2b00      	cmp	r3, #0
10004b84:	dc11      	bgt.n	10004baa <_dtoa_r+0x626>
10004b86:	d000      	beq.n	10004b8a <_dtoa_r+0x606>
10004b88:	e190      	b.n	10004eac <_dtoa_r+0x928>
10004b8a:	1c30      	adds	r0, r6, #0
10004b8c:	1c39      	adds	r1, r7, #0
10004b8e:	2200      	movs	r2, #0
10004b90:	4b49      	ldr	r3, [pc, #292]	; (10004cb8 <_dtoa_r+0x734>)
10004b92:	f001 fe27 	bl	100067e4 <__aeabi_dmul>
10004b96:	9a06      	ldr	r2, [sp, #24]
10004b98:	9b07      	ldr	r3, [sp, #28]
10004b9a:	f000 feb3 	bl	10005904 <__aeabi_dcmpge>
10004b9e:	9f09      	ldr	r7, [sp, #36]	; 0x24
10004ba0:	1c3e      	adds	r6, r7, #0
10004ba2:	2800      	cmp	r0, #0
10004ba4:	d000      	beq.n	10004ba8 <_dtoa_r+0x624>
10004ba6:	e183      	b.n	10004eb0 <_dtoa_r+0x92c>
10004ba8:	e18c      	b.n	10004ec4 <_dtoa_r+0x940>
10004baa:	9b0c      	ldr	r3, [sp, #48]	; 0x30
10004bac:	9c06      	ldr	r4, [sp, #24]
10004bae:	9d07      	ldr	r5, [sp, #28]
10004bb0:	9304      	str	r3, [sp, #16]
10004bb2:	1c32      	adds	r2, r6, #0
10004bb4:	1c3b      	adds	r3, r7, #0
10004bb6:	1c20      	adds	r0, r4, #0
10004bb8:	1c29      	adds	r1, r5, #0
10004bba:	f001 f9d5 	bl	10005f68 <__aeabi_ddiv>
10004bbe:	f002 fc25 	bl	1000740c <__aeabi_d2iz>
10004bc2:	9006      	str	r0, [sp, #24]
10004bc4:	f002 fc58 	bl	10007478 <__aeabi_i2d>
10004bc8:	1c32      	adds	r2, r6, #0
10004bca:	1c3b      	adds	r3, r7, #0
10004bcc:	f001 fe0a 	bl	100067e4 <__aeabi_dmul>
10004bd0:	1c02      	adds	r2, r0, #0
10004bd2:	1c0b      	adds	r3, r1, #0
10004bd4:	1c20      	adds	r0, r4, #0
10004bd6:	1c29      	adds	r1, r5, #0
10004bd8:	f002 f89e 	bl	10006d18 <__aeabi_dsub>
10004bdc:	1c0b      	adds	r3, r1, #0
10004bde:	9904      	ldr	r1, [sp, #16]
10004be0:	1c02      	adds	r2, r0, #0
10004be2:	9806      	ldr	r0, [sp, #24]
10004be4:	3101      	adds	r1, #1
10004be6:	9104      	str	r1, [sp, #16]
10004be8:	3030      	adds	r0, #48	; 0x30
10004bea:	3901      	subs	r1, #1
10004bec:	7008      	strb	r0, [r1, #0]
10004bee:	980c      	ldr	r0, [sp, #48]	; 0x30
10004bf0:	9904      	ldr	r1, [sp, #16]
10004bf2:	1a09      	subs	r1, r1, r0
10004bf4:	9809      	ldr	r0, [sp, #36]	; 0x24
10004bf6:	4281      	cmp	r1, r0
10004bf8:	d12e      	bne.n	10004c58 <_dtoa_r+0x6d4>
10004bfa:	1c10      	adds	r0, r2, #0
10004bfc:	1c19      	adds	r1, r3, #0
10004bfe:	f000 fe8b 	bl	10005918 <__aeabi_dadd>
10004c02:	1c32      	adds	r2, r6, #0
10004c04:	1c3b      	adds	r3, r7, #0
10004c06:	1c04      	adds	r4, r0, #0
10004c08:	1c0d      	adds	r5, r1, #0
10004c0a:	f000 fe71 	bl	100058f0 <__aeabi_dcmpgt>
10004c0e:	2800      	cmp	r0, #0
10004c10:	d110      	bne.n	10004c34 <_dtoa_r+0x6b0>
10004c12:	1c20      	adds	r0, r4, #0
10004c14:	1c29      	adds	r1, r5, #0
10004c16:	1c32      	adds	r2, r6, #0
10004c18:	1c3b      	adds	r3, r7, #0
10004c1a:	f000 fe4f 	bl	100058bc <__aeabi_dcmpeq>
10004c1e:	2800      	cmp	r0, #0
10004c20:	d100      	bne.n	10004c24 <_dtoa_r+0x6a0>
10004c22:	e28c      	b.n	1000513e <_dtoa_r+0xbba>
10004c24:	9b06      	ldr	r3, [sp, #24]
10004c26:	07db      	lsls	r3, r3, #31
10004c28:	d404      	bmi.n	10004c34 <_dtoa_r+0x6b0>
10004c2a:	e288      	b.n	1000513e <_dtoa_r+0xbba>
10004c2c:	9b11      	ldr	r3, [sp, #68]	; 0x44
10004c2e:	9303      	str	r3, [sp, #12]
10004c30:	e000      	b.n	10004c34 <_dtoa_r+0x6b0>
10004c32:	9304      	str	r3, [sp, #16]
10004c34:	9b04      	ldr	r3, [sp, #16]
10004c36:	3b01      	subs	r3, #1
10004c38:	781a      	ldrb	r2, [r3, #0]
10004c3a:	2a39      	cmp	r2, #57	; 0x39
10004c3c:	d108      	bne.n	10004c50 <_dtoa_r+0x6cc>
10004c3e:	9a0c      	ldr	r2, [sp, #48]	; 0x30
10004c40:	4293      	cmp	r3, r2
10004c42:	d1f6      	bne.n	10004c32 <_dtoa_r+0x6ae>
10004c44:	9b03      	ldr	r3, [sp, #12]
10004c46:	3301      	adds	r3, #1
10004c48:	9303      	str	r3, [sp, #12]
10004c4a:	2330      	movs	r3, #48	; 0x30
10004c4c:	7013      	strb	r3, [r2, #0]
10004c4e:	1c13      	adds	r3, r2, #0
10004c50:	781a      	ldrb	r2, [r3, #0]
10004c52:	3201      	adds	r2, #1
10004c54:	701a      	strb	r2, [r3, #0]
10004c56:	e272      	b.n	1000513e <_dtoa_r+0xbba>
10004c58:	1c10      	adds	r0, r2, #0
10004c5a:	1c19      	adds	r1, r3, #0
10004c5c:	2200      	movs	r2, #0
10004c5e:	4b13      	ldr	r3, [pc, #76]	; (10004cac <_dtoa_r+0x728>)
10004c60:	f001 fdc0 	bl	100067e4 <__aeabi_dmul>
10004c64:	2200      	movs	r2, #0
10004c66:	2300      	movs	r3, #0
10004c68:	1c04      	adds	r4, r0, #0
10004c6a:	1c0d      	adds	r5, r1, #0
10004c6c:	f000 fe26 	bl	100058bc <__aeabi_dcmpeq>
10004c70:	2800      	cmp	r0, #0
10004c72:	d09e      	beq.n	10004bb2 <_dtoa_r+0x62e>
10004c74:	e263      	b.n	1000513e <_dtoa_r+0xbba>
10004c76:	9a10      	ldr	r2, [sp, #64]	; 0x40
10004c78:	2a00      	cmp	r2, #0
10004c7a:	d044      	beq.n	10004d06 <_dtoa_r+0x782>
10004c7c:	9a20      	ldr	r2, [sp, #128]	; 0x80
10004c7e:	2a01      	cmp	r2, #1
10004c80:	dc0b      	bgt.n	10004c9a <_dtoa_r+0x716>
10004c82:	9a16      	ldr	r2, [sp, #88]	; 0x58
10004c84:	2a00      	cmp	r2, #0
10004c86:	d002      	beq.n	10004c8e <_dtoa_r+0x70a>
10004c88:	4a0f      	ldr	r2, [pc, #60]	; (10004cc8 <_dtoa_r+0x744>)
10004c8a:	189b      	adds	r3, r3, r2
10004c8c:	e002      	b.n	10004c94 <_dtoa_r+0x710>
10004c8e:	2336      	movs	r3, #54	; 0x36
10004c90:	9a18      	ldr	r2, [sp, #96]	; 0x60
10004c92:	1a9b      	subs	r3, r3, r2
10004c94:	9d0f      	ldr	r5, [sp, #60]	; 0x3c
10004c96:	9c0d      	ldr	r4, [sp, #52]	; 0x34
10004c98:	e029      	b.n	10004cee <_dtoa_r+0x76a>
10004c9a:	9b09      	ldr	r3, [sp, #36]	; 0x24
10004c9c:	1e5d      	subs	r5, r3, #1
10004c9e:	9b0f      	ldr	r3, [sp, #60]	; 0x3c
10004ca0:	42ab      	cmp	r3, r5
10004ca2:	db13      	blt.n	10004ccc <_dtoa_r+0x748>
10004ca4:	1b5d      	subs	r5, r3, r5
10004ca6:	e018      	b.n	10004cda <_dtoa_r+0x756>
10004ca8:	3ff00000 	.word	0x3ff00000
10004cac:	40240000 	.word	0x40240000
10004cb0:	401c0000 	.word	0x401c0000
10004cb4:	fcc00000 	.word	0xfcc00000
10004cb8:	40140000 	.word	0x40140000
10004cbc:	7cc00000 	.word	0x7cc00000
10004cc0:	10007710 	.word	0x10007710
10004cc4:	3fe00000 	.word	0x3fe00000
10004cc8:	00000433 	.word	0x00000433
10004ccc:	9b0f      	ldr	r3, [sp, #60]	; 0x3c
10004cce:	950f      	str	r5, [sp, #60]	; 0x3c
10004cd0:	1aea      	subs	r2, r5, r3
10004cd2:	2500      	movs	r5, #0
10004cd4:	9b12      	ldr	r3, [sp, #72]	; 0x48
10004cd6:	189b      	adds	r3, r3, r2
10004cd8:	9312      	str	r3, [sp, #72]	; 0x48
10004cda:	9b09      	ldr	r3, [sp, #36]	; 0x24
10004cdc:	2b00      	cmp	r3, #0
10004cde:	da04      	bge.n	10004cea <_dtoa_r+0x766>
10004ce0:	9b0d      	ldr	r3, [sp, #52]	; 0x34
10004ce2:	9a09      	ldr	r2, [sp, #36]	; 0x24
10004ce4:	1a9c      	subs	r4, r3, r2
10004ce6:	2300      	movs	r3, #0
10004ce8:	e001      	b.n	10004cee <_dtoa_r+0x76a>
10004cea:	9c0d      	ldr	r4, [sp, #52]	; 0x34
10004cec:	9b09      	ldr	r3, [sp, #36]	; 0x24
10004cee:	9a0d      	ldr	r2, [sp, #52]	; 0x34
10004cf0:	9808      	ldr	r0, [sp, #32]
10004cf2:	18d2      	adds	r2, r2, r3
10004cf4:	920d      	str	r2, [sp, #52]	; 0x34
10004cf6:	9a0e      	ldr	r2, [sp, #56]	; 0x38
10004cf8:	2101      	movs	r1, #1
10004cfa:	18d3      	adds	r3, r2, r3
10004cfc:	930e      	str	r3, [sp, #56]	; 0x38
10004cfe:	f000 fb2f 	bl	10005360 <__i2b>
10004d02:	1c06      	adds	r6, r0, #0
10004d04:	e002      	b.n	10004d0c <_dtoa_r+0x788>
10004d06:	9d0f      	ldr	r5, [sp, #60]	; 0x3c
10004d08:	9c0d      	ldr	r4, [sp, #52]	; 0x34
10004d0a:	9e10      	ldr	r6, [sp, #64]	; 0x40
10004d0c:	2c00      	cmp	r4, #0
10004d0e:	d00c      	beq.n	10004d2a <_dtoa_r+0x7a6>
10004d10:	9b0e      	ldr	r3, [sp, #56]	; 0x38
10004d12:	2b00      	cmp	r3, #0
10004d14:	dd09      	ble.n	10004d2a <_dtoa_r+0x7a6>
10004d16:	42a3      	cmp	r3, r4
10004d18:	dd00      	ble.n	10004d1c <_dtoa_r+0x798>
10004d1a:	1c23      	adds	r3, r4, #0
10004d1c:	9a0d      	ldr	r2, [sp, #52]	; 0x34
10004d1e:	1ae4      	subs	r4, r4, r3
10004d20:	1ad2      	subs	r2, r2, r3
10004d22:	920d      	str	r2, [sp, #52]	; 0x34
10004d24:	9a0e      	ldr	r2, [sp, #56]	; 0x38
10004d26:	1ad3      	subs	r3, r2, r3
10004d28:	930e      	str	r3, [sp, #56]	; 0x38
10004d2a:	9b0f      	ldr	r3, [sp, #60]	; 0x3c
10004d2c:	2b00      	cmp	r3, #0
10004d2e:	dd21      	ble.n	10004d74 <_dtoa_r+0x7f0>
10004d30:	9b10      	ldr	r3, [sp, #64]	; 0x40
10004d32:	2b00      	cmp	r3, #0
10004d34:	d018      	beq.n	10004d68 <_dtoa_r+0x7e4>
10004d36:	2d00      	cmp	r5, #0
10004d38:	dd10      	ble.n	10004d5c <_dtoa_r+0x7d8>
10004d3a:	1c31      	adds	r1, r6, #0
10004d3c:	1c2a      	adds	r2, r5, #0
10004d3e:	9808      	ldr	r0, [sp, #32]
10004d40:	f000 fba4 	bl	1000548c <__pow5mult>
10004d44:	1c06      	adds	r6, r0, #0
10004d46:	9a0a      	ldr	r2, [sp, #40]	; 0x28
10004d48:	1c31      	adds	r1, r6, #0
10004d4a:	9808      	ldr	r0, [sp, #32]
10004d4c:	f000 fb11 	bl	10005372 <__multiply>
10004d50:	1c07      	adds	r7, r0, #0
10004d52:	990a      	ldr	r1, [sp, #40]	; 0x28
10004d54:	9808      	ldr	r0, [sp, #32]
10004d56:	f000 fa64 	bl	10005222 <_Bfree>
10004d5a:	970a      	str	r7, [sp, #40]	; 0x28
10004d5c:	9b0f      	ldr	r3, [sp, #60]	; 0x3c
10004d5e:	1b5a      	subs	r2, r3, r5
10004d60:	d008      	beq.n	10004d74 <_dtoa_r+0x7f0>
10004d62:	9808      	ldr	r0, [sp, #32]
10004d64:	990a      	ldr	r1, [sp, #40]	; 0x28
10004d66:	e002      	b.n	10004d6e <_dtoa_r+0x7ea>
10004d68:	9808      	ldr	r0, [sp, #32]
10004d6a:	990a      	ldr	r1, [sp, #40]	; 0x28
10004d6c:	9a0f      	ldr	r2, [sp, #60]	; 0x3c
10004d6e:	f000 fb8d 	bl	1000548c <__pow5mult>
10004d72:	900a      	str	r0, [sp, #40]	; 0x28
10004d74:	9808      	ldr	r0, [sp, #32]
10004d76:	2101      	movs	r1, #1
10004d78:	f000 faf2 	bl	10005360 <__i2b>
10004d7c:	9b12      	ldr	r3, [sp, #72]	; 0x48
10004d7e:	1c07      	adds	r7, r0, #0
10004d80:	2b00      	cmp	r3, #0
10004d82:	dd0a      	ble.n	10004d9a <_dtoa_r+0x816>
10004d84:	1c39      	adds	r1, r7, #0
10004d86:	1c1a      	adds	r2, r3, #0
10004d88:	9808      	ldr	r0, [sp, #32]
10004d8a:	f000 fb7f 	bl	1000548c <__pow5mult>
10004d8e:	9b20      	ldr	r3, [sp, #128]	; 0x80
10004d90:	1c07      	adds	r7, r0, #0
10004d92:	2500      	movs	r5, #0
10004d94:	2b01      	cmp	r3, #1
10004d96:	dc1b      	bgt.n	10004dd0 <_dtoa_r+0x84c>
10004d98:	e003      	b.n	10004da2 <_dtoa_r+0x81e>
10004d9a:	9b20      	ldr	r3, [sp, #128]	; 0x80
10004d9c:	2500      	movs	r5, #0
10004d9e:	2b01      	cmp	r3, #1
10004da0:	dc12      	bgt.n	10004dc8 <_dtoa_r+0x844>
10004da2:	2500      	movs	r5, #0
10004da4:	9b06      	ldr	r3, [sp, #24]
10004da6:	42ab      	cmp	r3, r5
10004da8:	d10e      	bne.n	10004dc8 <_dtoa_r+0x844>
10004daa:	9b07      	ldr	r3, [sp, #28]
10004dac:	031b      	lsls	r3, r3, #12
10004dae:	42ab      	cmp	r3, r5
10004db0:	d10a      	bne.n	10004dc8 <_dtoa_r+0x844>
10004db2:	9b17      	ldr	r3, [sp, #92]	; 0x5c
10004db4:	9a07      	ldr	r2, [sp, #28]
10004db6:	4213      	tst	r3, r2
10004db8:	d006      	beq.n	10004dc8 <_dtoa_r+0x844>
10004dba:	9b0d      	ldr	r3, [sp, #52]	; 0x34
10004dbc:	3501      	adds	r5, #1
10004dbe:	3301      	adds	r3, #1
10004dc0:	930d      	str	r3, [sp, #52]	; 0x34
10004dc2:	9b0e      	ldr	r3, [sp, #56]	; 0x38
10004dc4:	3301      	adds	r3, #1
10004dc6:	930e      	str	r3, [sp, #56]	; 0x38
10004dc8:	9b12      	ldr	r3, [sp, #72]	; 0x48
10004dca:	2001      	movs	r0, #1
10004dcc:	2b00      	cmp	r3, #0
10004dce:	d008      	beq.n	10004de2 <_dtoa_r+0x85e>
10004dd0:	693b      	ldr	r3, [r7, #16]
10004dd2:	3303      	adds	r3, #3
10004dd4:	009b      	lsls	r3, r3, #2
10004dd6:	18fb      	adds	r3, r7, r3
10004dd8:	6858      	ldr	r0, [r3, #4]
10004dda:	f000 fa77 	bl	100052cc <__hi0bits>
10004dde:	2320      	movs	r3, #32
10004de0:	1a18      	subs	r0, r3, r0
10004de2:	9b0e      	ldr	r3, [sp, #56]	; 0x38
10004de4:	18c0      	adds	r0, r0, r3
10004de6:	231f      	movs	r3, #31
10004de8:	4018      	ands	r0, r3
10004dea:	d009      	beq.n	10004e00 <_dtoa_r+0x87c>
10004dec:	3301      	adds	r3, #1
10004dee:	1a1b      	subs	r3, r3, r0
10004df0:	2b04      	cmp	r3, #4
10004df2:	dd02      	ble.n	10004dfa <_dtoa_r+0x876>
10004df4:	231c      	movs	r3, #28
10004df6:	1a18      	subs	r0, r3, r0
10004df8:	e003      	b.n	10004e02 <_dtoa_r+0x87e>
10004dfa:	2b04      	cmp	r3, #4
10004dfc:	d008      	beq.n	10004e10 <_dtoa_r+0x88c>
10004dfe:	1c18      	adds	r0, r3, #0
10004e00:	301c      	adds	r0, #28
10004e02:	9b0d      	ldr	r3, [sp, #52]	; 0x34
10004e04:	1824      	adds	r4, r4, r0
10004e06:	181b      	adds	r3, r3, r0
10004e08:	930d      	str	r3, [sp, #52]	; 0x34
10004e0a:	9b0e      	ldr	r3, [sp, #56]	; 0x38
10004e0c:	181b      	adds	r3, r3, r0
10004e0e:	930e      	str	r3, [sp, #56]	; 0x38
10004e10:	9b0d      	ldr	r3, [sp, #52]	; 0x34
10004e12:	2b00      	cmp	r3, #0
10004e14:	dd05      	ble.n	10004e22 <_dtoa_r+0x89e>
10004e16:	9808      	ldr	r0, [sp, #32]
10004e18:	990a      	ldr	r1, [sp, #40]	; 0x28
10004e1a:	1c1a      	adds	r2, r3, #0
10004e1c:	f000 fb88 	bl	10005530 <__lshift>
10004e20:	900a      	str	r0, [sp, #40]	; 0x28
10004e22:	9b0e      	ldr	r3, [sp, #56]	; 0x38
10004e24:	2b00      	cmp	r3, #0
10004e26:	dd05      	ble.n	10004e34 <_dtoa_r+0x8b0>
10004e28:	1c39      	adds	r1, r7, #0
10004e2a:	9808      	ldr	r0, [sp, #32]
10004e2c:	1c1a      	adds	r2, r3, #0
10004e2e:	f000 fb7f 	bl	10005530 <__lshift>
10004e32:	1c07      	adds	r7, r0, #0
10004e34:	9b13      	ldr	r3, [sp, #76]	; 0x4c
10004e36:	2b00      	cmp	r3, #0
10004e38:	d01e      	beq.n	10004e78 <_dtoa_r+0x8f4>
10004e3a:	980a      	ldr	r0, [sp, #40]	; 0x28
10004e3c:	1c39      	adds	r1, r7, #0
10004e3e:	f000 fbc9 	bl	100055d4 <__mcmp>
10004e42:	2800      	cmp	r0, #0
10004e44:	da18      	bge.n	10004e78 <_dtoa_r+0x8f4>
10004e46:	9b03      	ldr	r3, [sp, #12]
10004e48:	9808      	ldr	r0, [sp, #32]
10004e4a:	3b01      	subs	r3, #1
10004e4c:	9303      	str	r3, [sp, #12]
10004e4e:	990a      	ldr	r1, [sp, #40]	; 0x28
10004e50:	2300      	movs	r3, #0
10004e52:	220a      	movs	r2, #10
10004e54:	f000 f9fe 	bl	10005254 <__multadd>
10004e58:	9b10      	ldr	r3, [sp, #64]	; 0x40
10004e5a:	900a      	str	r0, [sp, #40]	; 0x28
10004e5c:	2b00      	cmp	r3, #0
10004e5e:	d100      	bne.n	10004e62 <_dtoa_r+0x8de>
10004e60:	e17f      	b.n	10005162 <_dtoa_r+0xbde>
10004e62:	1c31      	adds	r1, r6, #0
10004e64:	2300      	movs	r3, #0
10004e66:	9808      	ldr	r0, [sp, #32]
10004e68:	220a      	movs	r2, #10
10004e6a:	f000 f9f3 	bl	10005254 <__multadd>
10004e6e:	9b0b      	ldr	r3, [sp, #44]	; 0x2c
10004e70:	1c06      	adds	r6, r0, #0
10004e72:	2b00      	cmp	r3, #0
10004e74:	dc3c      	bgt.n	10004ef0 <_dtoa_r+0x96c>
10004e76:	e17d      	b.n	10005174 <_dtoa_r+0xbf0>
10004e78:	9b09      	ldr	r3, [sp, #36]	; 0x24
10004e7a:	2b00      	cmp	r3, #0
10004e7c:	dc2e      	bgt.n	10004edc <_dtoa_r+0x958>
10004e7e:	9b20      	ldr	r3, [sp, #128]	; 0x80
10004e80:	2b02      	cmp	r3, #2
10004e82:	dd2b      	ble.n	10004edc <_dtoa_r+0x958>
10004e84:	9b09      	ldr	r3, [sp, #36]	; 0x24
10004e86:	930b      	str	r3, [sp, #44]	; 0x2c
10004e88:	9b0b      	ldr	r3, [sp, #44]	; 0x2c
10004e8a:	2b00      	cmp	r3, #0
10004e8c:	d110      	bne.n	10004eb0 <_dtoa_r+0x92c>
10004e8e:	1c39      	adds	r1, r7, #0
10004e90:	9808      	ldr	r0, [sp, #32]
10004e92:	2205      	movs	r2, #5
10004e94:	f000 f9de 	bl	10005254 <__multadd>
10004e98:	1c07      	adds	r7, r0, #0
10004e9a:	980a      	ldr	r0, [sp, #40]	; 0x28
10004e9c:	1c39      	adds	r1, r7, #0
10004e9e:	f000 fb99 	bl	100055d4 <__mcmp>
10004ea2:	2800      	cmp	r0, #0
10004ea4:	dc0e      	bgt.n	10004ec4 <_dtoa_r+0x940>
10004ea6:	e003      	b.n	10004eb0 <_dtoa_r+0x92c>
10004ea8:	1c2f      	adds	r7, r5, #0
10004eaa:	e000      	b.n	10004eae <_dtoa_r+0x92a>
10004eac:	2700      	movs	r7, #0
10004eae:	1c3e      	adds	r6, r7, #0
10004eb0:	9b21      	ldr	r3, [sp, #132]	; 0x84
10004eb2:	43db      	mvns	r3, r3
10004eb4:	9303      	str	r3, [sp, #12]
10004eb6:	9b0c      	ldr	r3, [sp, #48]	; 0x30
10004eb8:	9304      	str	r3, [sp, #16]
10004eba:	e00c      	b.n	10004ed6 <_dtoa_r+0x952>
10004ebc:	1c2f      	adds	r7, r5, #0
10004ebe:	1c2e      	adds	r6, r5, #0
10004ec0:	9b11      	ldr	r3, [sp, #68]	; 0x44
10004ec2:	9303      	str	r3, [sp, #12]
10004ec4:	9b0c      	ldr	r3, [sp, #48]	; 0x30
10004ec6:	9a0c      	ldr	r2, [sp, #48]	; 0x30
10004ec8:	3301      	adds	r3, #1
10004eca:	9304      	str	r3, [sp, #16]
10004ecc:	2331      	movs	r3, #49	; 0x31
10004ece:	7013      	strb	r3, [r2, #0]
10004ed0:	9b03      	ldr	r3, [sp, #12]
10004ed2:	3301      	adds	r3, #1
10004ed4:	9303      	str	r3, [sp, #12]
10004ed6:	9609      	str	r6, [sp, #36]	; 0x24
10004ed8:	2600      	movs	r6, #0
10004eda:	e11a      	b.n	10005112 <_dtoa_r+0xb8e>
10004edc:	9b10      	ldr	r3, [sp, #64]	; 0x40
10004ede:	2b00      	cmp	r3, #0
10004ee0:	d104      	bne.n	10004eec <_dtoa_r+0x968>
10004ee2:	9b09      	ldr	r3, [sp, #36]	; 0x24
10004ee4:	930b      	str	r3, [sp, #44]	; 0x2c
10004ee6:	9d0c      	ldr	r5, [sp, #48]	; 0x30
10004ee8:	9c0a      	ldr	r4, [sp, #40]	; 0x28
10004eea:	e0d0      	b.n	1000508e <_dtoa_r+0xb0a>
10004eec:	9b09      	ldr	r3, [sp, #36]	; 0x24
10004eee:	930b      	str	r3, [sp, #44]	; 0x2c
10004ef0:	2c00      	cmp	r4, #0
10004ef2:	dd05      	ble.n	10004f00 <_dtoa_r+0x97c>
10004ef4:	1c31      	adds	r1, r6, #0
10004ef6:	9808      	ldr	r0, [sp, #32]
10004ef8:	1c22      	adds	r2, r4, #0
10004efa:	f000 fb19 	bl	10005530 <__lshift>
10004efe:	1c06      	adds	r6, r0, #0
10004f00:	9609      	str	r6, [sp, #36]	; 0x24
10004f02:	2d00      	cmp	r5, #0
10004f04:	d012      	beq.n	10004f2c <_dtoa_r+0x9a8>
10004f06:	6871      	ldr	r1, [r6, #4]
10004f08:	9808      	ldr	r0, [sp, #32]
10004f0a:	f000 f952 	bl	100051b2 <_Balloc>
10004f0e:	1c31      	adds	r1, r6, #0
10004f10:	1c04      	adds	r4, r0, #0
10004f12:	6933      	ldr	r3, [r6, #16]
10004f14:	310c      	adds	r1, #12
10004f16:	1c9a      	adds	r2, r3, #2
10004f18:	0092      	lsls	r2, r2, #2
10004f1a:	300c      	adds	r0, #12
10004f1c:	f000 f940 	bl	100051a0 <memcpy>
10004f20:	9808      	ldr	r0, [sp, #32]
10004f22:	1c21      	adds	r1, r4, #0
10004f24:	2201      	movs	r2, #1
10004f26:	f000 fb03 	bl	10005530 <__lshift>
10004f2a:	9009      	str	r0, [sp, #36]	; 0x24
10004f2c:	9b0c      	ldr	r3, [sp, #48]	; 0x30
10004f2e:	9a0c      	ldr	r2, [sp, #48]	; 0x30
10004f30:	930e      	str	r3, [sp, #56]	; 0x38
10004f32:	9b0b      	ldr	r3, [sp, #44]	; 0x2c
10004f34:	9c0a      	ldr	r4, [sp, #40]	; 0x28
10004f36:	3b01      	subs	r3, #1
10004f38:	18d3      	adds	r3, r2, r3
10004f3a:	9310      	str	r3, [sp, #64]	; 0x40
10004f3c:	1c39      	adds	r1, r7, #0
10004f3e:	1c20      	adds	r0, r4, #0
10004f40:	f7ff fa99 	bl	10004476 <quorem>
10004f44:	1c03      	adds	r3, r0, #0
10004f46:	900f      	str	r0, [sp, #60]	; 0x3c
10004f48:	3330      	adds	r3, #48	; 0x30
10004f4a:	1c31      	adds	r1, r6, #0
10004f4c:	1c20      	adds	r0, r4, #0
10004f4e:	930d      	str	r3, [sp, #52]	; 0x34
10004f50:	f000 fb40 	bl	100055d4 <__mcmp>
10004f54:	1c39      	adds	r1, r7, #0
10004f56:	900b      	str	r0, [sp, #44]	; 0x2c
10004f58:	9a09      	ldr	r2, [sp, #36]	; 0x24
10004f5a:	9808      	ldr	r0, [sp, #32]
10004f5c:	f000 fb55 	bl	1000560a <__mdiff>
10004f60:	2301      	movs	r3, #1
10004f62:	9304      	str	r3, [sp, #16]
10004f64:	68c3      	ldr	r3, [r0, #12]
10004f66:	1c05      	adds	r5, r0, #0
10004f68:	2b00      	cmp	r3, #0
10004f6a:	d104      	bne.n	10004f76 <_dtoa_r+0x9f2>
10004f6c:	1c20      	adds	r0, r4, #0
10004f6e:	1c29      	adds	r1, r5, #0
10004f70:	f000 fb30 	bl	100055d4 <__mcmp>
10004f74:	9004      	str	r0, [sp, #16]
10004f76:	9808      	ldr	r0, [sp, #32]
10004f78:	1c29      	adds	r1, r5, #0
10004f7a:	f000 f952 	bl	10005222 <_Bfree>
10004f7e:	9b04      	ldr	r3, [sp, #16]
10004f80:	9a20      	ldr	r2, [sp, #128]	; 0x80
10004f82:	4313      	orrs	r3, r2
10004f84:	d110      	bne.n	10004fa8 <_dtoa_r+0xa24>
10004f86:	9a06      	ldr	r2, [sp, #24]
10004f88:	3301      	adds	r3, #1
10004f8a:	4213      	tst	r3, r2
10004f8c:	d10c      	bne.n	10004fa8 <_dtoa_r+0xa24>
10004f8e:	980d      	ldr	r0, [sp, #52]	; 0x34
10004f90:	940a      	str	r4, [sp, #40]	; 0x28
10004f92:	2839      	cmp	r0, #57	; 0x39
10004f94:	d03d      	beq.n	10005012 <_dtoa_r+0xa8e>
10004f96:	9b0b      	ldr	r3, [sp, #44]	; 0x2c
10004f98:	2b00      	cmp	r3, #0
10004f9a:	dd01      	ble.n	10004fa0 <_dtoa_r+0xa1c>
10004f9c:	980f      	ldr	r0, [sp, #60]	; 0x3c
10004f9e:	3031      	adds	r0, #49	; 0x31
10004fa0:	9b0e      	ldr	r3, [sp, #56]	; 0x38
10004fa2:	3301      	adds	r3, #1
10004fa4:	9304      	str	r3, [sp, #16]
10004fa6:	e03e      	b.n	10005026 <_dtoa_r+0xaa2>
10004fa8:	9b0b      	ldr	r3, [sp, #44]	; 0x2c
10004faa:	2b00      	cmp	r3, #0
10004fac:	da05      	bge.n	10004fba <_dtoa_r+0xa36>
10004fae:	9b04      	ldr	r3, [sp, #16]
10004fb0:	9d0d      	ldr	r5, [sp, #52]	; 0x34
10004fb2:	940a      	str	r4, [sp, #40]	; 0x28
10004fb4:	2b00      	cmp	r3, #0
10004fb6:	dc09      	bgt.n	10004fcc <_dtoa_r+0xa48>
10004fb8:	e01c      	b.n	10004ff4 <_dtoa_r+0xa70>
10004fba:	9d0b      	ldr	r5, [sp, #44]	; 0x2c
10004fbc:	9b20      	ldr	r3, [sp, #128]	; 0x80
10004fbe:	431d      	orrs	r5, r3
10004fc0:	d11e      	bne.n	10005000 <_dtoa_r+0xa7c>
10004fc2:	2301      	movs	r3, #1
10004fc4:	9a06      	ldr	r2, [sp, #24]
10004fc6:	4213      	tst	r3, r2
10004fc8:	d11a      	bne.n	10005000 <_dtoa_r+0xa7c>
10004fca:	e7f0      	b.n	10004fae <_dtoa_r+0xa2a>
10004fcc:	1c21      	adds	r1, r4, #0
10004fce:	9808      	ldr	r0, [sp, #32]
10004fd0:	2201      	movs	r2, #1
10004fd2:	f000 faad 	bl	10005530 <__lshift>
10004fd6:	1c39      	adds	r1, r7, #0
10004fd8:	900a      	str	r0, [sp, #40]	; 0x28
10004fda:	f000 fafb 	bl	100055d4 <__mcmp>
10004fde:	2800      	cmp	r0, #0
10004fe0:	dc03      	bgt.n	10004fea <_dtoa_r+0xa66>
10004fe2:	d107      	bne.n	10004ff4 <_dtoa_r+0xa70>
10004fe4:	9b0d      	ldr	r3, [sp, #52]	; 0x34
10004fe6:	07db      	lsls	r3, r3, #31
10004fe8:	d504      	bpl.n	10004ff4 <_dtoa_r+0xa70>
10004fea:	9b0d      	ldr	r3, [sp, #52]	; 0x34
10004fec:	2b39      	cmp	r3, #57	; 0x39
10004fee:	d010      	beq.n	10005012 <_dtoa_r+0xa8e>
10004ff0:	1c1d      	adds	r5, r3, #0
10004ff2:	3501      	adds	r5, #1
10004ff4:	9b0e      	ldr	r3, [sp, #56]	; 0x38
10004ff6:	3301      	adds	r3, #1
10004ff8:	9304      	str	r3, [sp, #16]
10004ffa:	9b0e      	ldr	r3, [sp, #56]	; 0x38
10004ffc:	701d      	strb	r5, [r3, #0]
10004ffe:	e088      	b.n	10005112 <_dtoa_r+0xb8e>
10005000:	9b0e      	ldr	r3, [sp, #56]	; 0x38
10005002:	1c5d      	adds	r5, r3, #1
10005004:	9b04      	ldr	r3, [sp, #16]
10005006:	2b00      	cmp	r3, #0
10005008:	dd10      	ble.n	1000502c <_dtoa_r+0xaa8>
1000500a:	9b0d      	ldr	r3, [sp, #52]	; 0x34
1000500c:	940a      	str	r4, [sp, #40]	; 0x28
1000500e:	2b39      	cmp	r3, #57	; 0x39
10005010:	d106      	bne.n	10005020 <_dtoa_r+0xa9c>
10005012:	9b0e      	ldr	r3, [sp, #56]	; 0x38
10005014:	9a0e      	ldr	r2, [sp, #56]	; 0x38
10005016:	3301      	adds	r3, #1
10005018:	9304      	str	r3, [sp, #16]
1000501a:	2339      	movs	r3, #57	; 0x39
1000501c:	7013      	strb	r3, [r2, #0]
1000501e:	e060      	b.n	100050e2 <_dtoa_r+0xb5e>
10005020:	980d      	ldr	r0, [sp, #52]	; 0x34
10005022:	9504      	str	r5, [sp, #16]
10005024:	3001      	adds	r0, #1
10005026:	9b0e      	ldr	r3, [sp, #56]	; 0x38
10005028:	7018      	strb	r0, [r3, #0]
1000502a:	e072      	b.n	10005112 <_dtoa_r+0xb8e>
1000502c:	466a      	mov	r2, sp
1000502e:	2134      	movs	r1, #52	; 0x34
10005030:	1852      	adds	r2, r2, r1
10005032:	7812      	ldrb	r2, [r2, #0]
10005034:	9b0e      	ldr	r3, [sp, #56]	; 0x38
10005036:	9504      	str	r5, [sp, #16]
10005038:	701a      	strb	r2, [r3, #0]
1000503a:	9a10      	ldr	r2, [sp, #64]	; 0x40
1000503c:	4293      	cmp	r3, r2
1000503e:	d03f      	beq.n	100050c0 <_dtoa_r+0xb3c>
10005040:	1c21      	adds	r1, r4, #0
10005042:	220a      	movs	r2, #10
10005044:	2300      	movs	r3, #0
10005046:	9808      	ldr	r0, [sp, #32]
10005048:	f000 f904 	bl	10005254 <__multadd>
1000504c:	9b09      	ldr	r3, [sp, #36]	; 0x24
1000504e:	1c04      	adds	r4, r0, #0
10005050:	1c31      	adds	r1, r6, #0
10005052:	9808      	ldr	r0, [sp, #32]
10005054:	220a      	movs	r2, #10
10005056:	429e      	cmp	r6, r3
10005058:	d105      	bne.n	10005066 <_dtoa_r+0xae2>
1000505a:	2300      	movs	r3, #0
1000505c:	f000 f8fa 	bl	10005254 <__multadd>
10005060:	1c06      	adds	r6, r0, #0
10005062:	9009      	str	r0, [sp, #36]	; 0x24
10005064:	e00a      	b.n	1000507c <_dtoa_r+0xaf8>
10005066:	2300      	movs	r3, #0
10005068:	f000 f8f4 	bl	10005254 <__multadd>
1000506c:	9909      	ldr	r1, [sp, #36]	; 0x24
1000506e:	1c06      	adds	r6, r0, #0
10005070:	220a      	movs	r2, #10
10005072:	9808      	ldr	r0, [sp, #32]
10005074:	2300      	movs	r3, #0
10005076:	f000 f8ed 	bl	10005254 <__multadd>
1000507a:	9009      	str	r0, [sp, #36]	; 0x24
1000507c:	950e      	str	r5, [sp, #56]	; 0x38
1000507e:	e75d      	b.n	10004f3c <_dtoa_r+0x9b8>
10005080:	1c21      	adds	r1, r4, #0
10005082:	9808      	ldr	r0, [sp, #32]
10005084:	220a      	movs	r2, #10
10005086:	2300      	movs	r3, #0
10005088:	f000 f8e4 	bl	10005254 <__multadd>
1000508c:	1c04      	adds	r4, r0, #0
1000508e:	1c20      	adds	r0, r4, #0
10005090:	1c39      	adds	r1, r7, #0
10005092:	f7ff f9f0 	bl	10004476 <quorem>
10005096:	2234      	movs	r2, #52	; 0x34
10005098:	466b      	mov	r3, sp
1000509a:	3030      	adds	r0, #48	; 0x30
1000509c:	189b      	adds	r3, r3, r2
1000509e:	900d      	str	r0, [sp, #52]	; 0x34
100050a0:	781b      	ldrb	r3, [r3, #0]
100050a2:	9a0b      	ldr	r2, [sp, #44]	; 0x2c
100050a4:	702b      	strb	r3, [r5, #0]
100050a6:	9b0c      	ldr	r3, [sp, #48]	; 0x30
100050a8:	3501      	adds	r5, #1
100050aa:	1aeb      	subs	r3, r5, r3
100050ac:	4293      	cmp	r3, r2
100050ae:	dbe7      	blt.n	10005080 <_dtoa_r+0xafc>
100050b0:	1e13      	subs	r3, r2, #0
100050b2:	dc00      	bgt.n	100050b6 <_dtoa_r+0xb32>
100050b4:	2301      	movs	r3, #1
100050b6:	9609      	str	r6, [sp, #36]	; 0x24
100050b8:	2600      	movs	r6, #0
100050ba:	9a0c      	ldr	r2, [sp, #48]	; 0x30
100050bc:	18d3      	adds	r3, r2, r3
100050be:	9304      	str	r3, [sp, #16]
100050c0:	1c21      	adds	r1, r4, #0
100050c2:	9808      	ldr	r0, [sp, #32]
100050c4:	2201      	movs	r2, #1
100050c6:	f000 fa33 	bl	10005530 <__lshift>
100050ca:	1c39      	adds	r1, r7, #0
100050cc:	900a      	str	r0, [sp, #40]	; 0x28
100050ce:	f000 fa81 	bl	100055d4 <__mcmp>
100050d2:	2800      	cmp	r0, #0
100050d4:	dc05      	bgt.n	100050e2 <_dtoa_r+0xb5e>
100050d6:	d115      	bne.n	10005104 <_dtoa_r+0xb80>
100050d8:	9b0d      	ldr	r3, [sp, #52]	; 0x34
100050da:	07db      	lsls	r3, r3, #31
100050dc:	d401      	bmi.n	100050e2 <_dtoa_r+0xb5e>
100050de:	e011      	b.n	10005104 <_dtoa_r+0xb80>
100050e0:	9304      	str	r3, [sp, #16]
100050e2:	9b04      	ldr	r3, [sp, #16]
100050e4:	3b01      	subs	r3, #1
100050e6:	781a      	ldrb	r2, [r3, #0]
100050e8:	2a39      	cmp	r2, #57	; 0x39
100050ea:	d108      	bne.n	100050fe <_dtoa_r+0xb7a>
100050ec:	9a0c      	ldr	r2, [sp, #48]	; 0x30
100050ee:	4293      	cmp	r3, r2
100050f0:	d1f6      	bne.n	100050e0 <_dtoa_r+0xb5c>
100050f2:	9b03      	ldr	r3, [sp, #12]
100050f4:	3301      	adds	r3, #1
100050f6:	9303      	str	r3, [sp, #12]
100050f8:	2331      	movs	r3, #49	; 0x31
100050fa:	7013      	strb	r3, [r2, #0]
100050fc:	e009      	b.n	10005112 <_dtoa_r+0xb8e>
100050fe:	3201      	adds	r2, #1
10005100:	701a      	strb	r2, [r3, #0]
10005102:	e006      	b.n	10005112 <_dtoa_r+0xb8e>
10005104:	9b04      	ldr	r3, [sp, #16]
10005106:	3b01      	subs	r3, #1
10005108:	781a      	ldrb	r2, [r3, #0]
1000510a:	2a30      	cmp	r2, #48	; 0x30
1000510c:	d101      	bne.n	10005112 <_dtoa_r+0xb8e>
1000510e:	9304      	str	r3, [sp, #16]
10005110:	e7f8      	b.n	10005104 <_dtoa_r+0xb80>
10005112:	9808      	ldr	r0, [sp, #32]
10005114:	1c39      	adds	r1, r7, #0
10005116:	f000 f884 	bl	10005222 <_Bfree>
1000511a:	9b09      	ldr	r3, [sp, #36]	; 0x24
1000511c:	2b00      	cmp	r3, #0
1000511e:	d00e      	beq.n	1000513e <_dtoa_r+0xbba>
10005120:	2e00      	cmp	r6, #0
10005122:	d005      	beq.n	10005130 <_dtoa_r+0xbac>
10005124:	429e      	cmp	r6, r3
10005126:	d003      	beq.n	10005130 <_dtoa_r+0xbac>
10005128:	9808      	ldr	r0, [sp, #32]
1000512a:	1c31      	adds	r1, r6, #0
1000512c:	f000 f879 	bl	10005222 <_Bfree>
10005130:	9808      	ldr	r0, [sp, #32]
10005132:	9909      	ldr	r1, [sp, #36]	; 0x24
10005134:	f000 f875 	bl	10005222 <_Bfree>
10005138:	e001      	b.n	1000513e <_dtoa_r+0xbba>
1000513a:	9b11      	ldr	r3, [sp, #68]	; 0x44
1000513c:	9303      	str	r3, [sp, #12]
1000513e:	9808      	ldr	r0, [sp, #32]
10005140:	990a      	ldr	r1, [sp, #40]	; 0x28
10005142:	f000 f86e 	bl	10005222 <_Bfree>
10005146:	2300      	movs	r3, #0
10005148:	9a04      	ldr	r2, [sp, #16]
1000514a:	980c      	ldr	r0, [sp, #48]	; 0x30
1000514c:	7013      	strb	r3, [r2, #0]
1000514e:	9b03      	ldr	r3, [sp, #12]
10005150:	9a22      	ldr	r2, [sp, #136]	; 0x88
10005152:	3301      	adds	r3, #1
10005154:	6013      	str	r3, [r2, #0]
10005156:	9b24      	ldr	r3, [sp, #144]	; 0x90
10005158:	2b00      	cmp	r3, #0
1000515a:	d010      	beq.n	1000517e <_dtoa_r+0xbfa>
1000515c:	9a04      	ldr	r2, [sp, #16]
1000515e:	601a      	str	r2, [r3, #0]
10005160:	e00d      	b.n	1000517e <_dtoa_r+0xbfa>
10005162:	9b0b      	ldr	r3, [sp, #44]	; 0x2c
10005164:	2b00      	cmp	r3, #0
10005166:	dd00      	ble.n	1000516a <_dtoa_r+0xbe6>
10005168:	e6bd      	b.n	10004ee6 <_dtoa_r+0x962>
1000516a:	9b20      	ldr	r3, [sp, #128]	; 0x80
1000516c:	2b02      	cmp	r3, #2
1000516e:	dd00      	ble.n	10005172 <_dtoa_r+0xbee>
10005170:	e68a      	b.n	10004e88 <_dtoa_r+0x904>
10005172:	e6b8      	b.n	10004ee6 <_dtoa_r+0x962>
10005174:	9b20      	ldr	r3, [sp, #128]	; 0x80
10005176:	2b02      	cmp	r3, #2
10005178:	dd00      	ble.n	1000517c <_dtoa_r+0xbf8>
1000517a:	e685      	b.n	10004e88 <_dtoa_r+0x904>
1000517c:	e6b8      	b.n	10004ef0 <_dtoa_r+0x96c>
1000517e:	b01b      	add	sp, #108	; 0x6c
10005180:	bdf0      	pop	{r4, r5, r6, r7, pc}
10005182:	46c0      	nop			; (mov r8, r8)

10005184 <_localeconv_r>:
10005184:	4800      	ldr	r0, [pc, #0]	; (10005188 <_localeconv_r+0x4>)
10005186:	4770      	bx	lr
10005188:	20000608 	.word	0x20000608

1000518c <malloc>:
1000518c:	b508      	push	{r3, lr}
1000518e:	4b03      	ldr	r3, [pc, #12]	; (1000519c <malloc+0x10>)
10005190:	1c01      	adds	r1, r0, #0
10005192:	6818      	ldr	r0, [r3, #0]
10005194:	f000 fb06 	bl	100057a4 <_malloc_r>
10005198:	bd08      	pop	{r3, pc}
1000519a:	46c0      	nop			; (mov r8, r8)
1000519c:	20000604 	.word	0x20000604

100051a0 <memcpy>:
100051a0:	2300      	movs	r3, #0
100051a2:	b510      	push	{r4, lr}
100051a4:	4293      	cmp	r3, r2
100051a6:	d003      	beq.n	100051b0 <memcpy+0x10>
100051a8:	5ccc      	ldrb	r4, [r1, r3]
100051aa:	54c4      	strb	r4, [r0, r3]
100051ac:	3301      	adds	r3, #1
100051ae:	e7f9      	b.n	100051a4 <memcpy+0x4>
100051b0:	bd10      	pop	{r4, pc}

100051b2 <_Balloc>:
100051b2:	b570      	push	{r4, r5, r6, lr}
100051b4:	6a46      	ldr	r6, [r0, #36]	; 0x24
100051b6:	1c04      	adds	r4, r0, #0
100051b8:	1c0d      	adds	r5, r1, #0
100051ba:	2e00      	cmp	r6, #0
100051bc:	d107      	bne.n	100051ce <_Balloc+0x1c>
100051be:	2010      	movs	r0, #16
100051c0:	f7ff ffe4 	bl	1000518c <malloc>
100051c4:	6260      	str	r0, [r4, #36]	; 0x24
100051c6:	6046      	str	r6, [r0, #4]
100051c8:	6086      	str	r6, [r0, #8]
100051ca:	6006      	str	r6, [r0, #0]
100051cc:	60c6      	str	r6, [r0, #12]
100051ce:	6a66      	ldr	r6, [r4, #36]	; 0x24
100051d0:	68f3      	ldr	r3, [r6, #12]
100051d2:	2b00      	cmp	r3, #0
100051d4:	d009      	beq.n	100051ea <_Balloc+0x38>
100051d6:	6a62      	ldr	r2, [r4, #36]	; 0x24
100051d8:	00ab      	lsls	r3, r5, #2
100051da:	68d2      	ldr	r2, [r2, #12]
100051dc:	18d3      	adds	r3, r2, r3
100051de:	6818      	ldr	r0, [r3, #0]
100051e0:	2800      	cmp	r0, #0
100051e2:	d00e      	beq.n	10005202 <_Balloc+0x50>
100051e4:	6802      	ldr	r2, [r0, #0]
100051e6:	601a      	str	r2, [r3, #0]
100051e8:	e017      	b.n	1000521a <_Balloc+0x68>
100051ea:	1c20      	adds	r0, r4, #0
100051ec:	2104      	movs	r1, #4
100051ee:	2221      	movs	r2, #33	; 0x21
100051f0:	f000 faca 	bl	10005788 <_calloc_r>
100051f4:	6a63      	ldr	r3, [r4, #36]	; 0x24
100051f6:	60f0      	str	r0, [r6, #12]
100051f8:	68db      	ldr	r3, [r3, #12]
100051fa:	2b00      	cmp	r3, #0
100051fc:	d1eb      	bne.n	100051d6 <_Balloc+0x24>
100051fe:	2000      	movs	r0, #0
10005200:	e00e      	b.n	10005220 <_Balloc+0x6e>
10005202:	2101      	movs	r1, #1
10005204:	1c0e      	adds	r6, r1, #0
10005206:	40ae      	lsls	r6, r5
10005208:	1d72      	adds	r2, r6, #5
1000520a:	0092      	lsls	r2, r2, #2
1000520c:	1c20      	adds	r0, r4, #0
1000520e:	f000 fabb 	bl	10005788 <_calloc_r>
10005212:	2800      	cmp	r0, #0
10005214:	d0f3      	beq.n	100051fe <_Balloc+0x4c>
10005216:	6045      	str	r5, [r0, #4]
10005218:	6086      	str	r6, [r0, #8]
1000521a:	2300      	movs	r3, #0
1000521c:	6103      	str	r3, [r0, #16]
1000521e:	60c3      	str	r3, [r0, #12]
10005220:	bd70      	pop	{r4, r5, r6, pc}

10005222 <_Bfree>:
10005222:	b570      	push	{r4, r5, r6, lr}
10005224:	6a45      	ldr	r5, [r0, #36]	; 0x24
10005226:	1c06      	adds	r6, r0, #0
10005228:	1c0c      	adds	r4, r1, #0
1000522a:	2d00      	cmp	r5, #0
1000522c:	d107      	bne.n	1000523e <_Bfree+0x1c>
1000522e:	2010      	movs	r0, #16
10005230:	f7ff ffac 	bl	1000518c <malloc>
10005234:	6270      	str	r0, [r6, #36]	; 0x24
10005236:	6045      	str	r5, [r0, #4]
10005238:	6085      	str	r5, [r0, #8]
1000523a:	6005      	str	r5, [r0, #0]
1000523c:	60c5      	str	r5, [r0, #12]
1000523e:	2c00      	cmp	r4, #0
10005240:	d007      	beq.n	10005252 <_Bfree+0x30>
10005242:	6a72      	ldr	r2, [r6, #36]	; 0x24
10005244:	6863      	ldr	r3, [r4, #4]
10005246:	68d2      	ldr	r2, [r2, #12]
10005248:	009b      	lsls	r3, r3, #2
1000524a:	18d3      	adds	r3, r2, r3
1000524c:	681a      	ldr	r2, [r3, #0]
1000524e:	6022      	str	r2, [r4, #0]
10005250:	601c      	str	r4, [r3, #0]
10005252:	bd70      	pop	{r4, r5, r6, pc}

10005254 <__multadd>:
10005254:	b5f7      	push	{r0, r1, r2, r4, r5, r6, r7, lr}
10005256:	1c1e      	adds	r6, r3, #0
10005258:	2314      	movs	r3, #20
1000525a:	469c      	mov	ip, r3
1000525c:	1c07      	adds	r7, r0, #0
1000525e:	1c0c      	adds	r4, r1, #0
10005260:	2000      	movs	r0, #0
10005262:	690d      	ldr	r5, [r1, #16]
10005264:	448c      	add	ip, r1
10005266:	4663      	mov	r3, ip
10005268:	8819      	ldrh	r1, [r3, #0]
1000526a:	681b      	ldr	r3, [r3, #0]
1000526c:	4351      	muls	r1, r2
1000526e:	0c1b      	lsrs	r3, r3, #16
10005270:	4353      	muls	r3, r2
10005272:	1989      	adds	r1, r1, r6
10005274:	0c0e      	lsrs	r6, r1, #16
10005276:	18f3      	adds	r3, r6, r3
10005278:	b289      	uxth	r1, r1
1000527a:	0c1e      	lsrs	r6, r3, #16
1000527c:	041b      	lsls	r3, r3, #16
1000527e:	185b      	adds	r3, r3, r1
10005280:	4661      	mov	r1, ip
10005282:	3001      	adds	r0, #1
10005284:	c108      	stmia	r1!, {r3}
10005286:	468c      	mov	ip, r1
10005288:	42a8      	cmp	r0, r5
1000528a:	dbec      	blt.n	10005266 <__multadd+0x12>
1000528c:	2e00      	cmp	r6, #0
1000528e:	d01b      	beq.n	100052c8 <__multadd+0x74>
10005290:	68a3      	ldr	r3, [r4, #8]
10005292:	429d      	cmp	r5, r3
10005294:	db12      	blt.n	100052bc <__multadd+0x68>
10005296:	6863      	ldr	r3, [r4, #4]
10005298:	1c38      	adds	r0, r7, #0
1000529a:	1c59      	adds	r1, r3, #1
1000529c:	f7ff ff89 	bl	100051b2 <_Balloc>
100052a0:	1c21      	adds	r1, r4, #0
100052a2:	6923      	ldr	r3, [r4, #16]
100052a4:	9001      	str	r0, [sp, #4]
100052a6:	1c9a      	adds	r2, r3, #2
100052a8:	310c      	adds	r1, #12
100052aa:	0092      	lsls	r2, r2, #2
100052ac:	300c      	adds	r0, #12
100052ae:	f7ff ff77 	bl	100051a0 <memcpy>
100052b2:	1c21      	adds	r1, r4, #0
100052b4:	1c38      	adds	r0, r7, #0
100052b6:	f7ff ffb4 	bl	10005222 <_Bfree>
100052ba:	9c01      	ldr	r4, [sp, #4]
100052bc:	1d2b      	adds	r3, r5, #4
100052be:	009b      	lsls	r3, r3, #2
100052c0:	18e3      	adds	r3, r4, r3
100052c2:	3501      	adds	r5, #1
100052c4:	605e      	str	r6, [r3, #4]
100052c6:	6125      	str	r5, [r4, #16]
100052c8:	1c20      	adds	r0, r4, #0
100052ca:	bdfe      	pop	{r1, r2, r3, r4, r5, r6, r7, pc}

100052cc <__hi0bits>:
100052cc:	2200      	movs	r2, #0
100052ce:	1c03      	adds	r3, r0, #0
100052d0:	0c01      	lsrs	r1, r0, #16
100052d2:	4291      	cmp	r1, r2
100052d4:	d101      	bne.n	100052da <__hi0bits+0xe>
100052d6:	0403      	lsls	r3, r0, #16
100052d8:	3210      	adds	r2, #16
100052da:	0e19      	lsrs	r1, r3, #24
100052dc:	d101      	bne.n	100052e2 <__hi0bits+0x16>
100052de:	3208      	adds	r2, #8
100052e0:	021b      	lsls	r3, r3, #8
100052e2:	0f19      	lsrs	r1, r3, #28
100052e4:	d101      	bne.n	100052ea <__hi0bits+0x1e>
100052e6:	3204      	adds	r2, #4
100052e8:	011b      	lsls	r3, r3, #4
100052ea:	0f99      	lsrs	r1, r3, #30
100052ec:	d101      	bne.n	100052f2 <__hi0bits+0x26>
100052ee:	3202      	adds	r2, #2
100052f0:	009b      	lsls	r3, r3, #2
100052f2:	1c10      	adds	r0, r2, #0
100052f4:	2b00      	cmp	r3, #0
100052f6:	db03      	blt.n	10005300 <__hi0bits+0x34>
100052f8:	2020      	movs	r0, #32
100052fa:	005b      	lsls	r3, r3, #1
100052fc:	d500      	bpl.n	10005300 <__hi0bits+0x34>
100052fe:	1c50      	adds	r0, r2, #1
10005300:	4770      	bx	lr

10005302 <__lo0bits>:
10005302:	2207      	movs	r2, #7
10005304:	6803      	ldr	r3, [r0, #0]
10005306:	b510      	push	{r4, lr}
10005308:	1c01      	adds	r1, r0, #0
1000530a:	401a      	ands	r2, r3
1000530c:	d00c      	beq.n	10005328 <__lo0bits+0x26>
1000530e:	2401      	movs	r4, #1
10005310:	2000      	movs	r0, #0
10005312:	4223      	tst	r3, r4
10005314:	d123      	bne.n	1000535e <__lo0bits+0x5c>
10005316:	2202      	movs	r2, #2
10005318:	4213      	tst	r3, r2
1000531a:	d003      	beq.n	10005324 <__lo0bits+0x22>
1000531c:	40e3      	lsrs	r3, r4
1000531e:	1c20      	adds	r0, r4, #0
10005320:	600b      	str	r3, [r1, #0]
10005322:	e01c      	b.n	1000535e <__lo0bits+0x5c>
10005324:	089b      	lsrs	r3, r3, #2
10005326:	e018      	b.n	1000535a <__lo0bits+0x58>
10005328:	b298      	uxth	r0, r3
1000532a:	2800      	cmp	r0, #0
1000532c:	d101      	bne.n	10005332 <__lo0bits+0x30>
1000532e:	2210      	movs	r2, #16
10005330:	0c1b      	lsrs	r3, r3, #16
10005332:	b2d8      	uxtb	r0, r3
10005334:	2800      	cmp	r0, #0
10005336:	d101      	bne.n	1000533c <__lo0bits+0x3a>
10005338:	3208      	adds	r2, #8
1000533a:	0a1b      	lsrs	r3, r3, #8
1000533c:	0718      	lsls	r0, r3, #28
1000533e:	d101      	bne.n	10005344 <__lo0bits+0x42>
10005340:	3204      	adds	r2, #4
10005342:	091b      	lsrs	r3, r3, #4
10005344:	0798      	lsls	r0, r3, #30
10005346:	d101      	bne.n	1000534c <__lo0bits+0x4a>
10005348:	3202      	adds	r2, #2
1000534a:	089b      	lsrs	r3, r3, #2
1000534c:	07d8      	lsls	r0, r3, #31
1000534e:	d404      	bmi.n	1000535a <__lo0bits+0x58>
10005350:	085b      	lsrs	r3, r3, #1
10005352:	2020      	movs	r0, #32
10005354:	2b00      	cmp	r3, #0
10005356:	d002      	beq.n	1000535e <__lo0bits+0x5c>
10005358:	3201      	adds	r2, #1
1000535a:	1c10      	adds	r0, r2, #0
1000535c:	600b      	str	r3, [r1, #0]
1000535e:	bd10      	pop	{r4, pc}

10005360 <__i2b>:
10005360:	b510      	push	{r4, lr}
10005362:	1c0c      	adds	r4, r1, #0
10005364:	2101      	movs	r1, #1
10005366:	f7ff ff24 	bl	100051b2 <_Balloc>
1000536a:	2301      	movs	r3, #1
1000536c:	6144      	str	r4, [r0, #20]
1000536e:	6103      	str	r3, [r0, #16]
10005370:	bd10      	pop	{r4, pc}

10005372 <__multiply>:
10005372:	b5f0      	push	{r4, r5, r6, r7, lr}
10005374:	690b      	ldr	r3, [r1, #16]
10005376:	1c14      	adds	r4, r2, #0
10005378:	6912      	ldr	r2, [r2, #16]
1000537a:	b089      	sub	sp, #36	; 0x24
1000537c:	1c0d      	adds	r5, r1, #0
1000537e:	4293      	cmp	r3, r2
10005380:	da01      	bge.n	10005386 <__multiply+0x14>
10005382:	1c25      	adds	r5, r4, #0
10005384:	1c0c      	adds	r4, r1, #0
10005386:	692f      	ldr	r7, [r5, #16]
10005388:	6926      	ldr	r6, [r4, #16]
1000538a:	68aa      	ldr	r2, [r5, #8]
1000538c:	19bb      	adds	r3, r7, r6
1000538e:	6869      	ldr	r1, [r5, #4]
10005390:	9300      	str	r3, [sp, #0]
10005392:	4293      	cmp	r3, r2
10005394:	dd00      	ble.n	10005398 <__multiply+0x26>
10005396:	3101      	adds	r1, #1
10005398:	f7ff ff0b 	bl	100051b2 <_Balloc>
1000539c:	1c01      	adds	r1, r0, #0
1000539e:	9b00      	ldr	r3, [sp, #0]
100053a0:	3114      	adds	r1, #20
100053a2:	4684      	mov	ip, r0
100053a4:	0098      	lsls	r0, r3, #2
100053a6:	1c0b      	adds	r3, r1, #0
100053a8:	1808      	adds	r0, r1, r0
100053aa:	4283      	cmp	r3, r0
100053ac:	d202      	bcs.n	100053b4 <__multiply+0x42>
100053ae:	2200      	movs	r2, #0
100053b0:	c304      	stmia	r3!, {r2}
100053b2:	e7fa      	b.n	100053aa <__multiply+0x38>
100053b4:	3514      	adds	r5, #20
100053b6:	00bf      	lsls	r7, r7, #2
100053b8:	19eb      	adds	r3, r5, r7
100053ba:	3414      	adds	r4, #20
100053bc:	00b6      	lsls	r6, r6, #2
100053be:	9304      	str	r3, [sp, #16]
100053c0:	19a3      	adds	r3, r4, r6
100053c2:	9502      	str	r5, [sp, #8]
100053c4:	9306      	str	r3, [sp, #24]
100053c6:	9b06      	ldr	r3, [sp, #24]
100053c8:	429c      	cmp	r4, r3
100053ca:	d256      	bcs.n	1000547a <__multiply+0x108>
100053cc:	8823      	ldrh	r3, [r4, #0]
100053ce:	9303      	str	r3, [sp, #12]
100053d0:	2b00      	cmp	r3, #0
100053d2:	d022      	beq.n	1000541a <__multiply+0xa8>
100053d4:	1c0e      	adds	r6, r1, #0
100053d6:	2700      	movs	r7, #0
100053d8:	9b02      	ldr	r3, [sp, #8]
100053da:	9301      	str	r3, [sp, #4]
100053dc:	9b01      	ldr	r3, [sp, #4]
100053de:	9d03      	ldr	r5, [sp, #12]
100053e0:	cb04      	ldmia	r3!, {r2}
100053e2:	9605      	str	r6, [sp, #20]
100053e4:	9301      	str	r3, [sp, #4]
100053e6:	8833      	ldrh	r3, [r6, #0]
100053e8:	9307      	str	r3, [sp, #28]
100053ea:	b293      	uxth	r3, r2
100053ec:	436b      	muls	r3, r5
100053ee:	9d07      	ldr	r5, [sp, #28]
100053f0:	0c12      	lsrs	r2, r2, #16
100053f2:	18eb      	adds	r3, r5, r3
100053f4:	6835      	ldr	r5, [r6, #0]
100053f6:	19db      	adds	r3, r3, r7
100053f8:	0c2f      	lsrs	r7, r5, #16
100053fa:	9d03      	ldr	r5, [sp, #12]
100053fc:	436a      	muls	r2, r5
100053fe:	18ba      	adds	r2, r7, r2
10005400:	0c1f      	lsrs	r7, r3, #16
10005402:	19d2      	adds	r2, r2, r7
10005404:	0c17      	lsrs	r7, r2, #16
10005406:	b29b      	uxth	r3, r3
10005408:	0412      	lsls	r2, r2, #16
1000540a:	4313      	orrs	r3, r2
1000540c:	c608      	stmia	r6!, {r3}
1000540e:	9a01      	ldr	r2, [sp, #4]
10005410:	9b04      	ldr	r3, [sp, #16]
10005412:	429a      	cmp	r2, r3
10005414:	d3e2      	bcc.n	100053dc <__multiply+0x6a>
10005416:	9b05      	ldr	r3, [sp, #20]
10005418:	605f      	str	r7, [r3, #4]
1000541a:	6823      	ldr	r3, [r4, #0]
1000541c:	0c1b      	lsrs	r3, r3, #16
1000541e:	9301      	str	r3, [sp, #4]
10005420:	d021      	beq.n	10005466 <__multiply+0xf4>
10005422:	2200      	movs	r2, #0
10005424:	1c0d      	adds	r5, r1, #0
10005426:	680b      	ldr	r3, [r1, #0]
10005428:	9f02      	ldr	r7, [sp, #8]
1000542a:	9203      	str	r2, [sp, #12]
1000542c:	883e      	ldrh	r6, [r7, #0]
1000542e:	9a01      	ldr	r2, [sp, #4]
10005430:	b29b      	uxth	r3, r3
10005432:	4356      	muls	r6, r2
10005434:	682a      	ldr	r2, [r5, #0]
10005436:	9505      	str	r5, [sp, #20]
10005438:	0c12      	lsrs	r2, r2, #16
1000543a:	18b2      	adds	r2, r6, r2
1000543c:	9e03      	ldr	r6, [sp, #12]
1000543e:	1992      	adds	r2, r2, r6
10005440:	0416      	lsls	r6, r2, #16
10005442:	4333      	orrs	r3, r6
10005444:	602b      	str	r3, [r5, #0]
10005446:	cf08      	ldmia	r7!, {r3}
10005448:	9e01      	ldr	r6, [sp, #4]
1000544a:	0c1b      	lsrs	r3, r3, #16
1000544c:	4373      	muls	r3, r6
1000544e:	88ae      	ldrh	r6, [r5, #4]
10005450:	0c12      	lsrs	r2, r2, #16
10005452:	199b      	adds	r3, r3, r6
10005454:	189b      	adds	r3, r3, r2
10005456:	0c1a      	lsrs	r2, r3, #16
10005458:	9203      	str	r2, [sp, #12]
1000545a:	9a04      	ldr	r2, [sp, #16]
1000545c:	3504      	adds	r5, #4
1000545e:	42ba      	cmp	r2, r7
10005460:	d8e4      	bhi.n	1000542c <__multiply+0xba>
10005462:	9a05      	ldr	r2, [sp, #20]
10005464:	6053      	str	r3, [r2, #4]
10005466:	3404      	adds	r4, #4
10005468:	3104      	adds	r1, #4
1000546a:	e7ac      	b.n	100053c6 <__multiply+0x54>
1000546c:	3804      	subs	r0, #4
1000546e:	6803      	ldr	r3, [r0, #0]
10005470:	2b00      	cmp	r3, #0
10005472:	d105      	bne.n	10005480 <__multiply+0x10e>
10005474:	9b00      	ldr	r3, [sp, #0]
10005476:	3b01      	subs	r3, #1
10005478:	9300      	str	r3, [sp, #0]
1000547a:	9b00      	ldr	r3, [sp, #0]
1000547c:	2b00      	cmp	r3, #0
1000547e:	dcf5      	bgt.n	1000546c <__multiply+0xfa>
10005480:	4663      	mov	r3, ip
10005482:	4660      	mov	r0, ip
10005484:	9a00      	ldr	r2, [sp, #0]
10005486:	611a      	str	r2, [r3, #16]
10005488:	b009      	add	sp, #36	; 0x24
1000548a:	bdf0      	pop	{r4, r5, r6, r7, pc}

1000548c <__pow5mult>:
1000548c:	2303      	movs	r3, #3
1000548e:	b5f7      	push	{r0, r1, r2, r4, r5, r6, r7, lr}
10005490:	4013      	ands	r3, r2
10005492:	1c05      	adds	r5, r0, #0
10005494:	1c0e      	adds	r6, r1, #0
10005496:	1c14      	adds	r4, r2, #0
10005498:	2b00      	cmp	r3, #0
1000549a:	d007      	beq.n	100054ac <__pow5mult+0x20>
1000549c:	4a22      	ldr	r2, [pc, #136]	; (10005528 <__pow5mult+0x9c>)
1000549e:	3b01      	subs	r3, #1
100054a0:	009b      	lsls	r3, r3, #2
100054a2:	589a      	ldr	r2, [r3, r2]
100054a4:	2300      	movs	r3, #0
100054a6:	f7ff fed5 	bl	10005254 <__multadd>
100054aa:	1c06      	adds	r6, r0, #0
100054ac:	10a3      	asrs	r3, r4, #2
100054ae:	9301      	str	r3, [sp, #4]
100054b0:	d037      	beq.n	10005522 <__pow5mult+0x96>
100054b2:	6a6c      	ldr	r4, [r5, #36]	; 0x24
100054b4:	2c00      	cmp	r4, #0
100054b6:	d107      	bne.n	100054c8 <__pow5mult+0x3c>
100054b8:	2010      	movs	r0, #16
100054ba:	f7ff fe67 	bl	1000518c <malloc>
100054be:	6268      	str	r0, [r5, #36]	; 0x24
100054c0:	6044      	str	r4, [r0, #4]
100054c2:	6084      	str	r4, [r0, #8]
100054c4:	6004      	str	r4, [r0, #0]
100054c6:	60c4      	str	r4, [r0, #12]
100054c8:	6a6f      	ldr	r7, [r5, #36]	; 0x24
100054ca:	68bc      	ldr	r4, [r7, #8]
100054cc:	2c00      	cmp	r4, #0
100054ce:	d110      	bne.n	100054f2 <__pow5mult+0x66>
100054d0:	1c28      	adds	r0, r5, #0
100054d2:	4916      	ldr	r1, [pc, #88]	; (1000552c <__pow5mult+0xa0>)
100054d4:	f7ff ff44 	bl	10005360 <__i2b>
100054d8:	2300      	movs	r3, #0
100054da:	60b8      	str	r0, [r7, #8]
100054dc:	1c04      	adds	r4, r0, #0
100054de:	6003      	str	r3, [r0, #0]
100054e0:	e007      	b.n	100054f2 <__pow5mult+0x66>
100054e2:	9b01      	ldr	r3, [sp, #4]
100054e4:	105b      	asrs	r3, r3, #1
100054e6:	9301      	str	r3, [sp, #4]
100054e8:	d01b      	beq.n	10005522 <__pow5mult+0x96>
100054ea:	6820      	ldr	r0, [r4, #0]
100054ec:	2800      	cmp	r0, #0
100054ee:	d00f      	beq.n	10005510 <__pow5mult+0x84>
100054f0:	1c04      	adds	r4, r0, #0
100054f2:	9b01      	ldr	r3, [sp, #4]
100054f4:	07db      	lsls	r3, r3, #31
100054f6:	d5f4      	bpl.n	100054e2 <__pow5mult+0x56>
100054f8:	1c31      	adds	r1, r6, #0
100054fa:	1c22      	adds	r2, r4, #0
100054fc:	1c28      	adds	r0, r5, #0
100054fe:	f7ff ff38 	bl	10005372 <__multiply>
10005502:	1c07      	adds	r7, r0, #0
10005504:	1c31      	adds	r1, r6, #0
10005506:	1c28      	adds	r0, r5, #0
10005508:	f7ff fe8b 	bl	10005222 <_Bfree>
1000550c:	1c3e      	adds	r6, r7, #0
1000550e:	e7e8      	b.n	100054e2 <__pow5mult+0x56>
10005510:	1c28      	adds	r0, r5, #0
10005512:	1c21      	adds	r1, r4, #0
10005514:	1c22      	adds	r2, r4, #0
10005516:	f7ff ff2c 	bl	10005372 <__multiply>
1000551a:	2300      	movs	r3, #0
1000551c:	6020      	str	r0, [r4, #0]
1000551e:	6003      	str	r3, [r0, #0]
10005520:	e7e6      	b.n	100054f0 <__pow5mult+0x64>
10005522:	1c30      	adds	r0, r6, #0
10005524:	bdfe      	pop	{r1, r2, r3, r4, r5, r6, r7, pc}
10005526:	46c0      	nop			; (mov r8, r8)
10005528:	10007800 	.word	0x10007800
1000552c:	00000271 	.word	0x00000271

10005530 <__lshift>:
10005530:	b5f0      	push	{r4, r5, r6, r7, lr}
10005532:	1c0c      	adds	r4, r1, #0
10005534:	1c17      	adds	r7, r2, #0
10005536:	6923      	ldr	r3, [r4, #16]
10005538:	1155      	asrs	r5, r2, #5
1000553a:	b085      	sub	sp, #20
1000553c:	18eb      	adds	r3, r5, r3
1000553e:	9301      	str	r3, [sp, #4]
10005540:	3301      	adds	r3, #1
10005542:	9300      	str	r3, [sp, #0]
10005544:	6849      	ldr	r1, [r1, #4]
10005546:	68a3      	ldr	r3, [r4, #8]
10005548:	9002      	str	r0, [sp, #8]
1000554a:	9a00      	ldr	r2, [sp, #0]
1000554c:	429a      	cmp	r2, r3
1000554e:	dd02      	ble.n	10005556 <__lshift+0x26>
10005550:	3101      	adds	r1, #1
10005552:	005b      	lsls	r3, r3, #1
10005554:	e7f9      	b.n	1000554a <__lshift+0x1a>
10005556:	9802      	ldr	r0, [sp, #8]
10005558:	f7ff fe2b 	bl	100051b2 <_Balloc>
1000555c:	1c02      	adds	r2, r0, #0
1000555e:	1c06      	adds	r6, r0, #0
10005560:	2300      	movs	r3, #0
10005562:	3214      	adds	r2, #20
10005564:	42ab      	cmp	r3, r5
10005566:	da04      	bge.n	10005572 <__lshift+0x42>
10005568:	2000      	movs	r0, #0
1000556a:	0099      	lsls	r1, r3, #2
1000556c:	5050      	str	r0, [r2, r1]
1000556e:	3301      	adds	r3, #1
10005570:	e7f8      	b.n	10005564 <__lshift+0x34>
10005572:	43eb      	mvns	r3, r5
10005574:	17db      	asrs	r3, r3, #31
10005576:	401d      	ands	r5, r3
10005578:	1c23      	adds	r3, r4, #0
1000557a:	00ad      	lsls	r5, r5, #2
1000557c:	1955      	adds	r5, r2, r5
1000557e:	6922      	ldr	r2, [r4, #16]
10005580:	3314      	adds	r3, #20
10005582:	0092      	lsls	r2, r2, #2
10005584:	189a      	adds	r2, r3, r2
10005586:	4694      	mov	ip, r2
10005588:	221f      	movs	r2, #31
1000558a:	4017      	ands	r7, r2
1000558c:	d014      	beq.n	100055b8 <__lshift+0x88>
1000558e:	3201      	adds	r2, #1
10005590:	1bd2      	subs	r2, r2, r7
10005592:	9203      	str	r2, [sp, #12]
10005594:	2200      	movs	r2, #0
10005596:	6819      	ldr	r1, [r3, #0]
10005598:	1c28      	adds	r0, r5, #0
1000559a:	40b9      	lsls	r1, r7
1000559c:	430a      	orrs	r2, r1
1000559e:	c504      	stmia	r5!, {r2}
100055a0:	cb04      	ldmia	r3!, {r2}
100055a2:	9903      	ldr	r1, [sp, #12]
100055a4:	40ca      	lsrs	r2, r1
100055a6:	459c      	cmp	ip, r3
100055a8:	d8f5      	bhi.n	10005596 <__lshift+0x66>
100055aa:	6042      	str	r2, [r0, #4]
100055ac:	2a00      	cmp	r2, #0
100055ae:	d007      	beq.n	100055c0 <__lshift+0x90>
100055b0:	9b01      	ldr	r3, [sp, #4]
100055b2:	3302      	adds	r3, #2
100055b4:	9300      	str	r3, [sp, #0]
100055b6:	e003      	b.n	100055c0 <__lshift+0x90>
100055b8:	cb04      	ldmia	r3!, {r2}
100055ba:	c504      	stmia	r5!, {r2}
100055bc:	459c      	cmp	ip, r3
100055be:	d8fb      	bhi.n	100055b8 <__lshift+0x88>
100055c0:	9b00      	ldr	r3, [sp, #0]
100055c2:	9802      	ldr	r0, [sp, #8]
100055c4:	3b01      	subs	r3, #1
100055c6:	6133      	str	r3, [r6, #16]
100055c8:	1c21      	adds	r1, r4, #0
100055ca:	f7ff fe2a 	bl	10005222 <_Bfree>
100055ce:	1c30      	adds	r0, r6, #0
100055d0:	b005      	add	sp, #20
100055d2:	bdf0      	pop	{r4, r5, r6, r7, pc}

100055d4 <__mcmp>:
100055d4:	6903      	ldr	r3, [r0, #16]
100055d6:	690a      	ldr	r2, [r1, #16]
100055d8:	b510      	push	{r4, lr}
100055da:	1a9b      	subs	r3, r3, r2
100055dc:	1c04      	adds	r4, r0, #0
100055de:	1e18      	subs	r0, r3, #0
100055e0:	d112      	bne.n	10005608 <__mcmp+0x34>
100055e2:	0093      	lsls	r3, r2, #2
100055e4:	3414      	adds	r4, #20
100055e6:	3114      	adds	r1, #20
100055e8:	18e2      	adds	r2, r4, r3
100055ea:	18c9      	adds	r1, r1, r3
100055ec:	3a04      	subs	r2, #4
100055ee:	3904      	subs	r1, #4
100055f0:	6813      	ldr	r3, [r2, #0]
100055f2:	6808      	ldr	r0, [r1, #0]
100055f4:	4283      	cmp	r3, r0
100055f6:	d004      	beq.n	10005602 <__mcmp+0x2e>
100055f8:	4283      	cmp	r3, r0
100055fa:	419b      	sbcs	r3, r3
100055fc:	2001      	movs	r0, #1
100055fe:	4318      	orrs	r0, r3
10005600:	e002      	b.n	10005608 <__mcmp+0x34>
10005602:	42a2      	cmp	r2, r4
10005604:	d8f2      	bhi.n	100055ec <__mcmp+0x18>
10005606:	2000      	movs	r0, #0
10005608:	bd10      	pop	{r4, pc}

1000560a <__mdiff>:
1000560a:	b5f0      	push	{r4, r5, r6, r7, lr}
1000560c:	1c07      	adds	r7, r0, #0
1000560e:	b085      	sub	sp, #20
10005610:	1c08      	adds	r0, r1, #0
10005612:	1c0c      	adds	r4, r1, #0
10005614:	1c11      	adds	r1, r2, #0
10005616:	1c15      	adds	r5, r2, #0
10005618:	f7ff ffdc 	bl	100055d4 <__mcmp>
1000561c:	1e06      	subs	r6, r0, #0
1000561e:	d107      	bne.n	10005630 <__mdiff+0x26>
10005620:	1c38      	adds	r0, r7, #0
10005622:	1c31      	adds	r1, r6, #0
10005624:	f7ff fdc5 	bl	100051b2 <_Balloc>
10005628:	2301      	movs	r3, #1
1000562a:	6146      	str	r6, [r0, #20]
1000562c:	6103      	str	r3, [r0, #16]
1000562e:	e055      	b.n	100056dc <__mdiff+0xd2>
10005630:	2300      	movs	r3, #0
10005632:	9301      	str	r3, [sp, #4]
10005634:	4298      	cmp	r0, r3
10005636:	da04      	bge.n	10005642 <__mdiff+0x38>
10005638:	1c23      	adds	r3, r4, #0
1000563a:	1c2c      	adds	r4, r5, #0
1000563c:	1c1d      	adds	r5, r3, #0
1000563e:	2301      	movs	r3, #1
10005640:	9301      	str	r3, [sp, #4]
10005642:	1c38      	adds	r0, r7, #0
10005644:	6861      	ldr	r1, [r4, #4]
10005646:	f7ff fdb4 	bl	100051b2 <_Balloc>
1000564a:	9b01      	ldr	r3, [sp, #4]
1000564c:	6926      	ldr	r6, [r4, #16]
1000564e:	1c2f      	adds	r7, r5, #0
10005650:	60c3      	str	r3, [r0, #12]
10005652:	3414      	adds	r4, #20
10005654:	00b3      	lsls	r3, r6, #2
10005656:	18e3      	adds	r3, r4, r3
10005658:	1c02      	adds	r2, r0, #0
1000565a:	9302      	str	r3, [sp, #8]
1000565c:	692b      	ldr	r3, [r5, #16]
1000565e:	2500      	movs	r5, #0
10005660:	3714      	adds	r7, #20
10005662:	009b      	lsls	r3, r3, #2
10005664:	18fb      	adds	r3, r7, r3
10005666:	9303      	str	r3, [sp, #12]
10005668:	3214      	adds	r2, #20
1000566a:	cc08      	ldmia	r4!, {r3}
1000566c:	4669      	mov	r1, sp
1000566e:	469c      	mov	ip, r3
10005670:	cf08      	ldmia	r7!, {r3}
10005672:	3204      	adds	r2, #4
10005674:	9300      	str	r3, [sp, #0]
10005676:	4663      	mov	r3, ip
10005678:	808b      	strh	r3, [r1, #4]
1000567a:	888b      	ldrh	r3, [r1, #4]
1000567c:	195d      	adds	r5, r3, r5
1000567e:	9b00      	ldr	r3, [sp, #0]
10005680:	b29b      	uxth	r3, r3
10005682:	1aeb      	subs	r3, r5, r3
10005684:	4665      	mov	r5, ip
10005686:	9301      	str	r3, [sp, #4]
10005688:	9b00      	ldr	r3, [sp, #0]
1000568a:	0c2d      	lsrs	r5, r5, #16
1000568c:	0c19      	lsrs	r1, r3, #16
1000568e:	9b01      	ldr	r3, [sp, #4]
10005690:	1a69      	subs	r1, r5, r1
10005692:	141d      	asrs	r5, r3, #16
10005694:	1f13      	subs	r3, r2, #4
10005696:	469c      	mov	ip, r3
10005698:	466b      	mov	r3, sp
1000569a:	1949      	adds	r1, r1, r5
1000569c:	889b      	ldrh	r3, [r3, #4]
1000569e:	140d      	asrs	r5, r1, #16
100056a0:	0409      	lsls	r1, r1, #16
100056a2:	430b      	orrs	r3, r1
100056a4:	4661      	mov	r1, ip
100056a6:	600b      	str	r3, [r1, #0]
100056a8:	9b03      	ldr	r3, [sp, #12]
100056aa:	429f      	cmp	r7, r3
100056ac:	d3dd      	bcc.n	1000566a <__mdiff+0x60>
100056ae:	9902      	ldr	r1, [sp, #8]
100056b0:	1c13      	adds	r3, r2, #0
100056b2:	428c      	cmp	r4, r1
100056b4:	d20b      	bcs.n	100056ce <__mdiff+0xc4>
100056b6:	cc08      	ldmia	r4!, {r3}
100056b8:	b299      	uxth	r1, r3
100056ba:	1949      	adds	r1, r1, r5
100056bc:	140d      	asrs	r5, r1, #16
100056be:	0c1b      	lsrs	r3, r3, #16
100056c0:	18eb      	adds	r3, r5, r3
100056c2:	141d      	asrs	r5, r3, #16
100056c4:	b289      	uxth	r1, r1
100056c6:	041b      	lsls	r3, r3, #16
100056c8:	430b      	orrs	r3, r1
100056ca:	c208      	stmia	r2!, {r3}
100056cc:	e7ef      	b.n	100056ae <__mdiff+0xa4>
100056ce:	3b04      	subs	r3, #4
100056d0:	681a      	ldr	r2, [r3, #0]
100056d2:	2a00      	cmp	r2, #0
100056d4:	d101      	bne.n	100056da <__mdiff+0xd0>
100056d6:	3e01      	subs	r6, #1
100056d8:	e7f9      	b.n	100056ce <__mdiff+0xc4>
100056da:	6106      	str	r6, [r0, #16]
100056dc:	b005      	add	sp, #20
100056de:	bdf0      	pop	{r4, r5, r6, r7, pc}

100056e0 <__d2b>:
100056e0:	b5f7      	push	{r0, r1, r2, r4, r5, r6, r7, lr}
100056e2:	1c1d      	adds	r5, r3, #0
100056e4:	2101      	movs	r1, #1
100056e6:	9f08      	ldr	r7, [sp, #32]
100056e8:	1c14      	adds	r4, r2, #0
100056ea:	f7ff fd62 	bl	100051b2 <_Balloc>
100056ee:	032b      	lsls	r3, r5, #12
100056f0:	006d      	lsls	r5, r5, #1
100056f2:	1c06      	adds	r6, r0, #0
100056f4:	0b1b      	lsrs	r3, r3, #12
100056f6:	0d6d      	lsrs	r5, r5, #21
100056f8:	d002      	beq.n	10005700 <__d2b+0x20>
100056fa:	2280      	movs	r2, #128	; 0x80
100056fc:	0352      	lsls	r2, r2, #13
100056fe:	4313      	orrs	r3, r2
10005700:	9301      	str	r3, [sp, #4]
10005702:	2c00      	cmp	r4, #0
10005704:	d018      	beq.n	10005738 <__d2b+0x58>
10005706:	4668      	mov	r0, sp
10005708:	9400      	str	r4, [sp, #0]
1000570a:	f7ff fdfa 	bl	10005302 <__lo0bits>
1000570e:	9c00      	ldr	r4, [sp, #0]
10005710:	2800      	cmp	r0, #0
10005712:	d009      	beq.n	10005728 <__d2b+0x48>
10005714:	2320      	movs	r3, #32
10005716:	9a01      	ldr	r2, [sp, #4]
10005718:	1a19      	subs	r1, r3, r0
1000571a:	1c13      	adds	r3, r2, #0
1000571c:	408b      	lsls	r3, r1
1000571e:	40c2      	lsrs	r2, r0
10005720:	4323      	orrs	r3, r4
10005722:	6173      	str	r3, [r6, #20]
10005724:	9201      	str	r2, [sp, #4]
10005726:	e000      	b.n	1000572a <__d2b+0x4a>
10005728:	6174      	str	r4, [r6, #20]
1000572a:	9c01      	ldr	r4, [sp, #4]
1000572c:	61b4      	str	r4, [r6, #24]
1000572e:	1e63      	subs	r3, r4, #1
10005730:	419c      	sbcs	r4, r3
10005732:	3401      	adds	r4, #1
10005734:	6134      	str	r4, [r6, #16]
10005736:	e007      	b.n	10005748 <__d2b+0x68>
10005738:	a801      	add	r0, sp, #4
1000573a:	f7ff fde2 	bl	10005302 <__lo0bits>
1000573e:	2401      	movs	r4, #1
10005740:	9b01      	ldr	r3, [sp, #4]
10005742:	6134      	str	r4, [r6, #16]
10005744:	6173      	str	r3, [r6, #20]
10005746:	3020      	adds	r0, #32
10005748:	2d00      	cmp	r5, #0
1000574a:	d006      	beq.n	1000575a <__d2b+0x7a>
1000574c:	4b0b      	ldr	r3, [pc, #44]	; (1000577c <__d2b+0x9c>)
1000574e:	18ed      	adds	r5, r5, r3
10005750:	2335      	movs	r3, #53	; 0x35
10005752:	182d      	adds	r5, r5, r0
10005754:	603d      	str	r5, [r7, #0]
10005756:	1a18      	subs	r0, r3, r0
10005758:	e00b      	b.n	10005772 <__d2b+0x92>
1000575a:	4b09      	ldr	r3, [pc, #36]	; (10005780 <__d2b+0xa0>)
1000575c:	18c0      	adds	r0, r0, r3
1000575e:	4b09      	ldr	r3, [pc, #36]	; (10005784 <__d2b+0xa4>)
10005760:	6038      	str	r0, [r7, #0]
10005762:	18e3      	adds	r3, r4, r3
10005764:	009b      	lsls	r3, r3, #2
10005766:	18f3      	adds	r3, r6, r3
10005768:	6958      	ldr	r0, [r3, #20]
1000576a:	f7ff fdaf 	bl	100052cc <__hi0bits>
1000576e:	0164      	lsls	r4, r4, #5
10005770:	1a20      	subs	r0, r4, r0
10005772:	9b09      	ldr	r3, [sp, #36]	; 0x24
10005774:	6018      	str	r0, [r3, #0]
10005776:	1c30      	adds	r0, r6, #0
10005778:	bdfe      	pop	{r1, r2, r3, r4, r5, r6, r7, pc}
1000577a:	46c0      	nop			; (mov r8, r8)
1000577c:	fffffbcd 	.word	0xfffffbcd
10005780:	fffffbce 	.word	0xfffffbce
10005784:	3fffffff 	.word	0x3fffffff

10005788 <_calloc_r>:
10005788:	434a      	muls	r2, r1
1000578a:	b538      	push	{r3, r4, r5, lr}
1000578c:	1c11      	adds	r1, r2, #0
1000578e:	1c14      	adds	r4, r2, #0
10005790:	f000 f808 	bl	100057a4 <_malloc_r>
10005794:	1e05      	subs	r5, r0, #0
10005796:	d003      	beq.n	100057a0 <_calloc_r+0x18>
10005798:	2100      	movs	r1, #0
1000579a:	1c22      	adds	r2, r4, #0
1000579c:	f000 f86c 	bl	10005878 <memset>
100057a0:	1c28      	adds	r0, r5, #0
100057a2:	bd38      	pop	{r3, r4, r5, pc}

100057a4 <_malloc_r>:
100057a4:	2303      	movs	r3, #3
100057a6:	b570      	push	{r4, r5, r6, lr}
100057a8:	1ccc      	adds	r4, r1, #3
100057aa:	439c      	bics	r4, r3
100057ac:	3408      	adds	r4, #8
100057ae:	1c05      	adds	r5, r0, #0
100057b0:	2c0c      	cmp	r4, #12
100057b2:	d201      	bcs.n	100057b8 <_malloc_r+0x14>
100057b4:	240c      	movs	r4, #12
100057b6:	e005      	b.n	100057c4 <_malloc_r+0x20>
100057b8:	2c00      	cmp	r4, #0
100057ba:	da03      	bge.n	100057c4 <_malloc_r+0x20>
100057bc:	230c      	movs	r3, #12
100057be:	2000      	movs	r0, #0
100057c0:	602b      	str	r3, [r5, #0]
100057c2:	e042      	b.n	1000584a <_malloc_r+0xa6>
100057c4:	428c      	cmp	r4, r1
100057c6:	d3f9      	bcc.n	100057bc <_malloc_r+0x18>
100057c8:	4a20      	ldr	r2, [pc, #128]	; (1000584c <_malloc_r+0xa8>)
100057ca:	6813      	ldr	r3, [r2, #0]
100057cc:	1c10      	adds	r0, r2, #0
100057ce:	1c19      	adds	r1, r3, #0
100057d0:	2900      	cmp	r1, #0
100057d2:	d013      	beq.n	100057fc <_malloc_r+0x58>
100057d4:	680a      	ldr	r2, [r1, #0]
100057d6:	1b12      	subs	r2, r2, r4
100057d8:	d40d      	bmi.n	100057f6 <_malloc_r+0x52>
100057da:	2a0b      	cmp	r2, #11
100057dc:	d902      	bls.n	100057e4 <_malloc_r+0x40>
100057de:	600a      	str	r2, [r1, #0]
100057e0:	188b      	adds	r3, r1, r2
100057e2:	e01f      	b.n	10005824 <_malloc_r+0x80>
100057e4:	428b      	cmp	r3, r1
100057e6:	d102      	bne.n	100057ee <_malloc_r+0x4a>
100057e8:	685a      	ldr	r2, [r3, #4]
100057ea:	6002      	str	r2, [r0, #0]
100057ec:	e01b      	b.n	10005826 <_malloc_r+0x82>
100057ee:	684a      	ldr	r2, [r1, #4]
100057f0:	605a      	str	r2, [r3, #4]
100057f2:	1c0b      	adds	r3, r1, #0
100057f4:	e017      	b.n	10005826 <_malloc_r+0x82>
100057f6:	1c0b      	adds	r3, r1, #0
100057f8:	6849      	ldr	r1, [r1, #4]
100057fa:	e7e9      	b.n	100057d0 <_malloc_r+0x2c>
100057fc:	4e14      	ldr	r6, [pc, #80]	; (10005850 <_malloc_r+0xac>)
100057fe:	6833      	ldr	r3, [r6, #0]
10005800:	2b00      	cmp	r3, #0
10005802:	d103      	bne.n	1000580c <_malloc_r+0x68>
10005804:	1c28      	adds	r0, r5, #0
10005806:	f000 f825 	bl	10005854 <_sbrk_r>
1000580a:	6030      	str	r0, [r6, #0]
1000580c:	1c28      	adds	r0, r5, #0
1000580e:	1c21      	adds	r1, r4, #0
10005810:	f000 f820 	bl	10005854 <_sbrk_r>
10005814:	1c03      	adds	r3, r0, #0
10005816:	1c42      	adds	r2, r0, #1
10005818:	d0d0      	beq.n	100057bc <_malloc_r+0x18>
1000581a:	2203      	movs	r2, #3
1000581c:	1cc6      	adds	r6, r0, #3
1000581e:	4396      	bics	r6, r2
10005820:	4286      	cmp	r6, r0
10005822:	d10a      	bne.n	1000583a <_malloc_r+0x96>
10005824:	601c      	str	r4, [r3, #0]
10005826:	1c18      	adds	r0, r3, #0
10005828:	2107      	movs	r1, #7
1000582a:	300b      	adds	r0, #11
1000582c:	1d1a      	adds	r2, r3, #4
1000582e:	4388      	bics	r0, r1
10005830:	1a82      	subs	r2, r0, r2
10005832:	d00a      	beq.n	1000584a <_malloc_r+0xa6>
10005834:	4251      	negs	r1, r2
10005836:	5099      	str	r1, [r3, r2]
10005838:	e007      	b.n	1000584a <_malloc_r+0xa6>
1000583a:	1a31      	subs	r1, r6, r0
1000583c:	1c28      	adds	r0, r5, #0
1000583e:	f000 f809 	bl	10005854 <_sbrk_r>
10005842:	1c43      	adds	r3, r0, #1
10005844:	d0ba      	beq.n	100057bc <_malloc_r+0x18>
10005846:	1c33      	adds	r3, r6, #0
10005848:	e7ec      	b.n	10005824 <_malloc_r+0x80>
1000584a:	bd70      	pop	{r4, r5, r6, pc}
1000584c:	200006ac 	.word	0x200006ac
10005850:	200006a8 	.word	0x200006a8

10005854 <_sbrk_r>:
10005854:	b538      	push	{r3, r4, r5, lr}
10005856:	2300      	movs	r3, #0
10005858:	4c06      	ldr	r4, [pc, #24]	; (10005874 <_sbrk_r+0x20>)
1000585a:	1c05      	adds	r5, r0, #0
1000585c:	1c08      	adds	r0, r1, #0
1000585e:	6023      	str	r3, [r4, #0]
10005860:	f7fc fa6a 	bl	10001d38 <_sbrk>
10005864:	1c43      	adds	r3, r0, #1
10005866:	d103      	bne.n	10005870 <_sbrk_r+0x1c>
10005868:	6823      	ldr	r3, [r4, #0]
1000586a:	2b00      	cmp	r3, #0
1000586c:	d000      	beq.n	10005870 <_sbrk_r+0x1c>
1000586e:	602b      	str	r3, [r5, #0]
10005870:	bd38      	pop	{r3, r4, r5, pc}
10005872:	46c0      	nop			; (mov r8, r8)
10005874:	200007d4 	.word	0x200007d4

10005878 <memset>:
10005878:	1c03      	adds	r3, r0, #0
1000587a:	1882      	adds	r2, r0, r2
1000587c:	4293      	cmp	r3, r2
1000587e:	d002      	beq.n	10005886 <memset+0xe>
10005880:	7019      	strb	r1, [r3, #0]
10005882:	3301      	adds	r3, #1
10005884:	e7fa      	b.n	1000587c <memset+0x4>
10005886:	4770      	bx	lr

10005888 <__gnu_thumb1_case_uqi>:
10005888:	b402      	push	{r1}
1000588a:	4671      	mov	r1, lr
1000588c:	0849      	lsrs	r1, r1, #1
1000588e:	0049      	lsls	r1, r1, #1
10005890:	5c09      	ldrb	r1, [r1, r0]
10005892:	0049      	lsls	r1, r1, #1
10005894:	448e      	add	lr, r1
10005896:	bc02      	pop	{r1}
10005898:	4770      	bx	lr
1000589a:	46c0      	nop			; (mov r8, r8)

1000589c <__aeabi_cdrcmple>:
1000589c:	4684      	mov	ip, r0
1000589e:	1c10      	adds	r0, r2, #0
100058a0:	4662      	mov	r2, ip
100058a2:	468c      	mov	ip, r1
100058a4:	1c19      	adds	r1, r3, #0
100058a6:	4663      	mov	r3, ip
100058a8:	e000      	b.n	100058ac <__aeabi_cdcmpeq>
100058aa:	46c0      	nop			; (mov r8, r8)

100058ac <__aeabi_cdcmpeq>:
100058ac:	b51f      	push	{r0, r1, r2, r3, r4, lr}
100058ae:	f000 ff33 	bl	10006718 <__ledf2>
100058b2:	2800      	cmp	r0, #0
100058b4:	d401      	bmi.n	100058ba <__aeabi_cdcmpeq+0xe>
100058b6:	2100      	movs	r1, #0
100058b8:	42c8      	cmn	r0, r1
100058ba:	bd1f      	pop	{r0, r1, r2, r3, r4, pc}

100058bc <__aeabi_dcmpeq>:
100058bc:	b510      	push	{r4, lr}
100058be:	f000 fe77 	bl	100065b0 <__eqdf2>
100058c2:	4240      	negs	r0, r0
100058c4:	3001      	adds	r0, #1
100058c6:	bd10      	pop	{r4, pc}

100058c8 <__aeabi_dcmplt>:
100058c8:	b510      	push	{r4, lr}
100058ca:	f000 ff25 	bl	10006718 <__ledf2>
100058ce:	2800      	cmp	r0, #0
100058d0:	db01      	blt.n	100058d6 <__aeabi_dcmplt+0xe>
100058d2:	2000      	movs	r0, #0
100058d4:	bd10      	pop	{r4, pc}
100058d6:	2001      	movs	r0, #1
100058d8:	bd10      	pop	{r4, pc}
100058da:	46c0      	nop			; (mov r8, r8)

100058dc <__aeabi_dcmple>:
100058dc:	b510      	push	{r4, lr}
100058de:	f000 ff1b 	bl	10006718 <__ledf2>
100058e2:	2800      	cmp	r0, #0
100058e4:	dd01      	ble.n	100058ea <__aeabi_dcmple+0xe>
100058e6:	2000      	movs	r0, #0
100058e8:	bd10      	pop	{r4, pc}
100058ea:	2001      	movs	r0, #1
100058ec:	bd10      	pop	{r4, pc}
100058ee:	46c0      	nop			; (mov r8, r8)

100058f0 <__aeabi_dcmpgt>:
100058f0:	b510      	push	{r4, lr}
100058f2:	f000 fea1 	bl	10006638 <__gedf2>
100058f6:	2800      	cmp	r0, #0
100058f8:	dc01      	bgt.n	100058fe <__aeabi_dcmpgt+0xe>
100058fa:	2000      	movs	r0, #0
100058fc:	bd10      	pop	{r4, pc}
100058fe:	2001      	movs	r0, #1
10005900:	bd10      	pop	{r4, pc}
10005902:	46c0      	nop			; (mov r8, r8)

10005904 <__aeabi_dcmpge>:
10005904:	b510      	push	{r4, lr}
10005906:	f000 fe97 	bl	10006638 <__gedf2>
1000590a:	2800      	cmp	r0, #0
1000590c:	da01      	bge.n	10005912 <__aeabi_dcmpge+0xe>
1000590e:	2000      	movs	r0, #0
10005910:	bd10      	pop	{r4, pc}
10005912:	2001      	movs	r0, #1
10005914:	bd10      	pop	{r4, pc}
10005916:	46c0      	nop			; (mov r8, r8)

10005918 <__aeabi_dadd>:
10005918:	b5f0      	push	{r4, r5, r6, r7, lr}
1000591a:	4645      	mov	r5, r8
1000591c:	4657      	mov	r7, sl
1000591e:	464e      	mov	r6, r9
10005920:	4694      	mov	ip, r2
10005922:	004c      	lsls	r4, r1, #1
10005924:	030a      	lsls	r2, r1, #12
10005926:	0fc9      	lsrs	r1, r1, #31
10005928:	b4e0      	push	{r5, r6, r7}
1000592a:	4688      	mov	r8, r1
1000592c:	1c0e      	adds	r6, r1, #0
1000592e:	0319      	lsls	r1, r3, #12
10005930:	0f47      	lsrs	r7, r0, #29
10005932:	00c5      	lsls	r5, r0, #3
10005934:	0a48      	lsrs	r0, r1, #9
10005936:	4661      	mov	r1, ip
10005938:	0f49      	lsrs	r1, r1, #29
1000593a:	4301      	orrs	r1, r0
1000593c:	4660      	mov	r0, ip
1000593e:	0a52      	lsrs	r2, r2, #9
10005940:	4317      	orrs	r7, r2
10005942:	00c0      	lsls	r0, r0, #3
10005944:	005a      	lsls	r2, r3, #1
10005946:	0d64      	lsrs	r4, r4, #21
10005948:	0d52      	lsrs	r2, r2, #21
1000594a:	0fdb      	lsrs	r3, r3, #31
1000594c:	4684      	mov	ip, r0
1000594e:	4598      	cmp	r8, r3
10005950:	d100      	bne.n	10005954 <__aeabi_dadd+0x3c>
10005952:	e0a7      	b.n	10005aa4 <__aeabi_dadd+0x18c>
10005954:	1aa0      	subs	r0, r4, r2
10005956:	2800      	cmp	r0, #0
10005958:	dc00      	bgt.n	1000595c <__aeabi_dadd+0x44>
1000595a:	e101      	b.n	10005b60 <__aeabi_dadd+0x248>
1000595c:	2a00      	cmp	r2, #0
1000595e:	d13d      	bne.n	100059dc <__aeabi_dadd+0xc4>
10005960:	4663      	mov	r3, ip
10005962:	430b      	orrs	r3, r1
10005964:	d000      	beq.n	10005968 <__aeabi_dadd+0x50>
10005966:	e0d4      	b.n	10005b12 <__aeabi_dadd+0x1fa>
10005968:	076b      	lsls	r3, r5, #29
1000596a:	d100      	bne.n	1000596e <__aeabi_dadd+0x56>
1000596c:	e088      	b.n	10005a80 <__aeabi_dadd+0x168>
1000596e:	230f      	movs	r3, #15
10005970:	402b      	ands	r3, r5
10005972:	2b04      	cmp	r3, #4
10005974:	d100      	bne.n	10005978 <__aeabi_dadd+0x60>
10005976:	e083      	b.n	10005a80 <__aeabi_dadd+0x168>
10005978:	1d2a      	adds	r2, r5, #4
1000597a:	42aa      	cmp	r2, r5
1000597c:	41ad      	sbcs	r5, r5
1000597e:	2380      	movs	r3, #128	; 0x80
10005980:	426d      	negs	r5, r5
10005982:	197f      	adds	r7, r7, r5
10005984:	041b      	lsls	r3, r3, #16
10005986:	403b      	ands	r3, r7
10005988:	4646      	mov	r6, r8
1000598a:	1c15      	adds	r5, r2, #0
1000598c:	2b00      	cmp	r3, #0
1000598e:	d100      	bne.n	10005992 <__aeabi_dadd+0x7a>
10005990:	e07c      	b.n	10005a8c <__aeabi_dadd+0x174>
10005992:	4bcc      	ldr	r3, [pc, #816]	; (10005cc4 <__aeabi_dadd+0x3ac>)
10005994:	3401      	adds	r4, #1
10005996:	429c      	cmp	r4, r3
10005998:	d100      	bne.n	1000599c <__aeabi_dadd+0x84>
1000599a:	e0fd      	b.n	10005b98 <__aeabi_dadd+0x280>
1000599c:	1c3a      	adds	r2, r7, #0
1000599e:	4bca      	ldr	r3, [pc, #808]	; (10005cc8 <__aeabi_dadd+0x3b0>)
100059a0:	08ed      	lsrs	r5, r5, #3
100059a2:	401a      	ands	r2, r3
100059a4:	0750      	lsls	r0, r2, #29
100059a6:	0564      	lsls	r4, r4, #21
100059a8:	0252      	lsls	r2, r2, #9
100059aa:	4305      	orrs	r5, r0
100059ac:	0b12      	lsrs	r2, r2, #12
100059ae:	0d64      	lsrs	r4, r4, #21
100059b0:	2100      	movs	r1, #0
100059b2:	0312      	lsls	r2, r2, #12
100059b4:	0d0b      	lsrs	r3, r1, #20
100059b6:	051b      	lsls	r3, r3, #20
100059b8:	0564      	lsls	r4, r4, #21
100059ba:	0b12      	lsrs	r2, r2, #12
100059bc:	431a      	orrs	r2, r3
100059be:	0863      	lsrs	r3, r4, #1
100059c0:	4cc2      	ldr	r4, [pc, #776]	; (10005ccc <__aeabi_dadd+0x3b4>)
100059c2:	07f6      	lsls	r6, r6, #31
100059c4:	4014      	ands	r4, r2
100059c6:	431c      	orrs	r4, r3
100059c8:	0064      	lsls	r4, r4, #1
100059ca:	0864      	lsrs	r4, r4, #1
100059cc:	4334      	orrs	r4, r6
100059ce:	1c28      	adds	r0, r5, #0
100059d0:	1c21      	adds	r1, r4, #0
100059d2:	bc1c      	pop	{r2, r3, r4}
100059d4:	4690      	mov	r8, r2
100059d6:	4699      	mov	r9, r3
100059d8:	46a2      	mov	sl, r4
100059da:	bdf0      	pop	{r4, r5, r6, r7, pc}
100059dc:	4bb9      	ldr	r3, [pc, #740]	; (10005cc4 <__aeabi_dadd+0x3ac>)
100059de:	429c      	cmp	r4, r3
100059e0:	d0c2      	beq.n	10005968 <__aeabi_dadd+0x50>
100059e2:	2380      	movs	r3, #128	; 0x80
100059e4:	041b      	lsls	r3, r3, #16
100059e6:	4319      	orrs	r1, r3
100059e8:	2838      	cmp	r0, #56	; 0x38
100059ea:	dd00      	ble.n	100059ee <__aeabi_dadd+0xd6>
100059ec:	e0ec      	b.n	10005bc8 <__aeabi_dadd+0x2b0>
100059ee:	281f      	cmp	r0, #31
100059f0:	dd00      	ble.n	100059f4 <__aeabi_dadd+0xdc>
100059f2:	e121      	b.n	10005c38 <__aeabi_dadd+0x320>
100059f4:	2220      	movs	r2, #32
100059f6:	1c0e      	adds	r6, r1, #0
100059f8:	4663      	mov	r3, ip
100059fa:	1a12      	subs	r2, r2, r0
100059fc:	4096      	lsls	r6, r2
100059fe:	40c3      	lsrs	r3, r0
10005a00:	4333      	orrs	r3, r6
10005a02:	4666      	mov	r6, ip
10005a04:	4096      	lsls	r6, r2
10005a06:	1c32      	adds	r2, r6, #0
10005a08:	1e56      	subs	r6, r2, #1
10005a0a:	41b2      	sbcs	r2, r6
10005a0c:	4313      	orrs	r3, r2
10005a0e:	1c0a      	adds	r2, r1, #0
10005a10:	40c2      	lsrs	r2, r0
10005a12:	1aeb      	subs	r3, r5, r3
10005a14:	429d      	cmp	r5, r3
10005a16:	41b6      	sbcs	r6, r6
10005a18:	1c1d      	adds	r5, r3, #0
10005a1a:	1aba      	subs	r2, r7, r2
10005a1c:	4276      	negs	r6, r6
10005a1e:	1b97      	subs	r7, r2, r6
10005a20:	023b      	lsls	r3, r7, #8
10005a22:	d400      	bmi.n	10005a26 <__aeabi_dadd+0x10e>
10005a24:	e097      	b.n	10005b56 <__aeabi_dadd+0x23e>
10005a26:	027a      	lsls	r2, r7, #9
10005a28:	0a56      	lsrs	r6, r2, #9
10005a2a:	2e00      	cmp	r6, #0
10005a2c:	d100      	bne.n	10005a30 <__aeabi_dadd+0x118>
10005a2e:	e0b6      	b.n	10005b9e <__aeabi_dadd+0x286>
10005a30:	1c30      	adds	r0, r6, #0
10005a32:	f7fe f96b 	bl	10003d0c <__clzsi2>
10005a36:	1c03      	adds	r3, r0, #0
10005a38:	3b08      	subs	r3, #8
10005a3a:	2b1f      	cmp	r3, #31
10005a3c:	dd00      	ble.n	10005a40 <__aeabi_dadd+0x128>
10005a3e:	e0b7      	b.n	10005bb0 <__aeabi_dadd+0x298>
10005a40:	409e      	lsls	r6, r3
10005a42:	1c37      	adds	r7, r6, #0
10005a44:	2628      	movs	r6, #40	; 0x28
10005a46:	1c2a      	adds	r2, r5, #0
10005a48:	1a36      	subs	r6, r6, r0
10005a4a:	40f2      	lsrs	r2, r6
10005a4c:	1c16      	adds	r6, r2, #0
10005a4e:	409d      	lsls	r5, r3
10005a50:	433e      	orrs	r6, r7
10005a52:	429c      	cmp	r4, r3
10005a54:	dd00      	ble.n	10005a58 <__aeabi_dadd+0x140>
10005a56:	e0b2      	b.n	10005bbe <__aeabi_dadd+0x2a6>
10005a58:	1b1c      	subs	r4, r3, r4
10005a5a:	1c62      	adds	r2, r4, #1
10005a5c:	2a1f      	cmp	r2, #31
10005a5e:	dd00      	ble.n	10005a62 <__aeabi_dadd+0x14a>
10005a60:	e0d8      	b.n	10005c14 <__aeabi_dadd+0x2fc>
10005a62:	231f      	movs	r3, #31
10005a64:	1c29      	adds	r1, r5, #0
10005a66:	1b1c      	subs	r4, r3, r4
10005a68:	1c33      	adds	r3, r6, #0
10005a6a:	40a5      	lsls	r5, r4
10005a6c:	40a3      	lsls	r3, r4
10005a6e:	40d1      	lsrs	r1, r2
10005a70:	1e6c      	subs	r4, r5, #1
10005a72:	41a5      	sbcs	r5, r4
10005a74:	40d6      	lsrs	r6, r2
10005a76:	4319      	orrs	r1, r3
10005a78:	430d      	orrs	r5, r1
10005a7a:	1c37      	adds	r7, r6, #0
10005a7c:	2400      	movs	r4, #0
10005a7e:	e773      	b.n	10005968 <__aeabi_dadd+0x50>
10005a80:	2380      	movs	r3, #128	; 0x80
10005a82:	041b      	lsls	r3, r3, #16
10005a84:	403b      	ands	r3, r7
10005a86:	4646      	mov	r6, r8
10005a88:	d000      	beq.n	10005a8c <__aeabi_dadd+0x174>
10005a8a:	e782      	b.n	10005992 <__aeabi_dadd+0x7a>
10005a8c:	4b8d      	ldr	r3, [pc, #564]	; (10005cc4 <__aeabi_dadd+0x3ac>)
10005a8e:	08ed      	lsrs	r5, r5, #3
10005a90:	0778      	lsls	r0, r7, #29
10005a92:	4305      	orrs	r5, r0
10005a94:	08fa      	lsrs	r2, r7, #3
10005a96:	429c      	cmp	r4, r3
10005a98:	d032      	beq.n	10005b00 <__aeabi_dadd+0x1e8>
10005a9a:	0312      	lsls	r2, r2, #12
10005a9c:	0564      	lsls	r4, r4, #21
10005a9e:	0b12      	lsrs	r2, r2, #12
10005aa0:	0d64      	lsrs	r4, r4, #21
10005aa2:	e785      	b.n	100059b0 <__aeabi_dadd+0x98>
10005aa4:	1aa3      	subs	r3, r4, r2
10005aa6:	2b00      	cmp	r3, #0
10005aa8:	dc00      	bgt.n	10005aac <__aeabi_dadd+0x194>
10005aaa:	e094      	b.n	10005bd6 <__aeabi_dadd+0x2be>
10005aac:	2a00      	cmp	r2, #0
10005aae:	d03c      	beq.n	10005b2a <__aeabi_dadd+0x212>
10005ab0:	4a84      	ldr	r2, [pc, #528]	; (10005cc4 <__aeabi_dadd+0x3ac>)
10005ab2:	4294      	cmp	r4, r2
10005ab4:	d100      	bne.n	10005ab8 <__aeabi_dadd+0x1a0>
10005ab6:	e757      	b.n	10005968 <__aeabi_dadd+0x50>
10005ab8:	2280      	movs	r2, #128	; 0x80
10005aba:	0412      	lsls	r2, r2, #16
10005abc:	4311      	orrs	r1, r2
10005abe:	2b38      	cmp	r3, #56	; 0x38
10005ac0:	dc00      	bgt.n	10005ac4 <__aeabi_dadd+0x1ac>
10005ac2:	e105      	b.n	10005cd0 <__aeabi_dadd+0x3b8>
10005ac4:	4663      	mov	r3, ip
10005ac6:	4319      	orrs	r1, r3
10005ac8:	1e48      	subs	r0, r1, #1
10005aca:	4181      	sbcs	r1, r0
10005acc:	2200      	movs	r2, #0
10005ace:	b2c8      	uxtb	r0, r1
10005ad0:	1940      	adds	r0, r0, r5
10005ad2:	42a8      	cmp	r0, r5
10005ad4:	419b      	sbcs	r3, r3
10005ad6:	1c05      	adds	r5, r0, #0
10005ad8:	19d2      	adds	r2, r2, r7
10005ada:	425b      	negs	r3, r3
10005adc:	18d7      	adds	r7, r2, r3
10005ade:	023b      	lsls	r3, r7, #8
10005ae0:	d539      	bpl.n	10005b56 <__aeabi_dadd+0x23e>
10005ae2:	4b78      	ldr	r3, [pc, #480]	; (10005cc4 <__aeabi_dadd+0x3ac>)
10005ae4:	3401      	adds	r4, #1
10005ae6:	429c      	cmp	r4, r3
10005ae8:	d100      	bne.n	10005aec <__aeabi_dadd+0x1d4>
10005aea:	e14c      	b.n	10005d86 <__aeabi_dadd+0x46e>
10005aec:	2001      	movs	r0, #1
10005aee:	4a76      	ldr	r2, [pc, #472]	; (10005cc8 <__aeabi_dadd+0x3b0>)
10005af0:	086b      	lsrs	r3, r5, #1
10005af2:	403a      	ands	r2, r7
10005af4:	4028      	ands	r0, r5
10005af6:	4318      	orrs	r0, r3
10005af8:	07d5      	lsls	r5, r2, #31
10005afa:	4305      	orrs	r5, r0
10005afc:	0857      	lsrs	r7, r2, #1
10005afe:	e733      	b.n	10005968 <__aeabi_dadd+0x50>
10005b00:	1c2b      	adds	r3, r5, #0
10005b02:	4313      	orrs	r3, r2
10005b04:	d048      	beq.n	10005b98 <__aeabi_dadd+0x280>
10005b06:	2380      	movs	r3, #128	; 0x80
10005b08:	031b      	lsls	r3, r3, #12
10005b0a:	431a      	orrs	r2, r3
10005b0c:	0312      	lsls	r2, r2, #12
10005b0e:	0b12      	lsrs	r2, r2, #12
10005b10:	e74e      	b.n	100059b0 <__aeabi_dadd+0x98>
10005b12:	3801      	subs	r0, #1
10005b14:	2800      	cmp	r0, #0
10005b16:	d178      	bne.n	10005c0a <__aeabi_dadd+0x2f2>
10005b18:	4663      	mov	r3, ip
10005b1a:	1aee      	subs	r6, r5, r3
10005b1c:	42b5      	cmp	r5, r6
10005b1e:	419b      	sbcs	r3, r3
10005b20:	1a7a      	subs	r2, r7, r1
10005b22:	425b      	negs	r3, r3
10005b24:	1ad7      	subs	r7, r2, r3
10005b26:	1c35      	adds	r5, r6, #0
10005b28:	e77a      	b.n	10005a20 <__aeabi_dadd+0x108>
10005b2a:	1c02      	adds	r2, r0, #0
10005b2c:	430a      	orrs	r2, r1
10005b2e:	d100      	bne.n	10005b32 <__aeabi_dadd+0x21a>
10005b30:	e71a      	b.n	10005968 <__aeabi_dadd+0x50>
10005b32:	3b01      	subs	r3, #1
10005b34:	2b00      	cmp	r3, #0
10005b36:	d000      	beq.n	10005b3a <__aeabi_dadd+0x222>
10005b38:	e0f2      	b.n	10005d20 <__aeabi_dadd+0x408>
10005b3a:	1940      	adds	r0, r0, r5
10005b3c:	42a8      	cmp	r0, r5
10005b3e:	419b      	sbcs	r3, r3
10005b40:	19ca      	adds	r2, r1, r7
10005b42:	425b      	negs	r3, r3
10005b44:	18d7      	adds	r7, r2, r3
10005b46:	1c05      	adds	r5, r0, #0
10005b48:	e7c9      	b.n	10005ade <__aeabi_dadd+0x1c6>
10005b4a:	1c13      	adds	r3, r2, #0
10005b4c:	4333      	orrs	r3, r6
10005b4e:	d100      	bne.n	10005b52 <__aeabi_dadd+0x23a>
10005b50:	e118      	b.n	10005d84 <__aeabi_dadd+0x46c>
10005b52:	1c17      	adds	r7, r2, #0
10005b54:	1c35      	adds	r5, r6, #0
10005b56:	4646      	mov	r6, r8
10005b58:	076b      	lsls	r3, r5, #29
10005b5a:	d000      	beq.n	10005b5e <__aeabi_dadd+0x246>
10005b5c:	e707      	b.n	1000596e <__aeabi_dadd+0x56>
10005b5e:	e795      	b.n	10005a8c <__aeabi_dadd+0x174>
10005b60:	2800      	cmp	r0, #0
10005b62:	d17a      	bne.n	10005c5a <__aeabi_dadd+0x342>
10005b64:	1c62      	adds	r2, r4, #1
10005b66:	0552      	lsls	r2, r2, #21
10005b68:	0d52      	lsrs	r2, r2, #21
10005b6a:	2a01      	cmp	r2, #1
10005b6c:	dc00      	bgt.n	10005b70 <__aeabi_dadd+0x258>
10005b6e:	e0fb      	b.n	10005d68 <__aeabi_dadd+0x450>
10005b70:	4662      	mov	r2, ip
10005b72:	1aaa      	subs	r2, r5, r2
10005b74:	4295      	cmp	r5, r2
10005b76:	41b6      	sbcs	r6, r6
10005b78:	4691      	mov	r9, r2
10005b7a:	1a78      	subs	r0, r7, r1
10005b7c:	4272      	negs	r2, r6
10005b7e:	1a86      	subs	r6, r0, r2
10005b80:	0232      	lsls	r2, r6, #8
10005b82:	d400      	bmi.n	10005b86 <__aeabi_dadd+0x26e>
10005b84:	e093      	b.n	10005cae <__aeabi_dadd+0x396>
10005b86:	4662      	mov	r2, ip
10005b88:	1b55      	subs	r5, r2, r5
10005b8a:	45ac      	cmp	ip, r5
10005b8c:	4180      	sbcs	r0, r0
10005b8e:	1bcf      	subs	r7, r1, r7
10005b90:	4240      	negs	r0, r0
10005b92:	1a3e      	subs	r6, r7, r0
10005b94:	4698      	mov	r8, r3
10005b96:	e748      	b.n	10005a2a <__aeabi_dadd+0x112>
10005b98:	2200      	movs	r2, #0
10005b9a:	2500      	movs	r5, #0
10005b9c:	e708      	b.n	100059b0 <__aeabi_dadd+0x98>
10005b9e:	1c28      	adds	r0, r5, #0
10005ba0:	f7fe f8b4 	bl	10003d0c <__clzsi2>
10005ba4:	3020      	adds	r0, #32
10005ba6:	1c03      	adds	r3, r0, #0
10005ba8:	3b08      	subs	r3, #8
10005baa:	2b1f      	cmp	r3, #31
10005bac:	dc00      	bgt.n	10005bb0 <__aeabi_dadd+0x298>
10005bae:	e747      	b.n	10005a40 <__aeabi_dadd+0x128>
10005bb0:	3828      	subs	r0, #40	; 0x28
10005bb2:	4085      	lsls	r5, r0
10005bb4:	1c2e      	adds	r6, r5, #0
10005bb6:	2500      	movs	r5, #0
10005bb8:	429c      	cmp	r4, r3
10005bba:	dc00      	bgt.n	10005bbe <__aeabi_dadd+0x2a6>
10005bbc:	e74c      	b.n	10005a58 <__aeabi_dadd+0x140>
10005bbe:	4a42      	ldr	r2, [pc, #264]	; (10005cc8 <__aeabi_dadd+0x3b0>)
10005bc0:	1ae4      	subs	r4, r4, r3
10005bc2:	4016      	ands	r6, r2
10005bc4:	1c37      	adds	r7, r6, #0
10005bc6:	e6cf      	b.n	10005968 <__aeabi_dadd+0x50>
10005bc8:	4663      	mov	r3, ip
10005bca:	4319      	orrs	r1, r3
10005bcc:	1e4b      	subs	r3, r1, #1
10005bce:	4199      	sbcs	r1, r3
10005bd0:	2200      	movs	r2, #0
10005bd2:	b2cb      	uxtb	r3, r1
10005bd4:	e71d      	b.n	10005a12 <__aeabi_dadd+0xfa>
10005bd6:	2b00      	cmp	r3, #0
10005bd8:	d000      	beq.n	10005bdc <__aeabi_dadd+0x2c4>
10005bda:	e0f2      	b.n	10005dc2 <__aeabi_dadd+0x4aa>
10005bdc:	1c60      	adds	r0, r4, #1
10005bde:	0543      	lsls	r3, r0, #21
10005be0:	0d5b      	lsrs	r3, r3, #21
10005be2:	2b01      	cmp	r3, #1
10005be4:	dc00      	bgt.n	10005be8 <__aeabi_dadd+0x2d0>
10005be6:	e0a4      	b.n	10005d32 <__aeabi_dadd+0x41a>
10005be8:	4b36      	ldr	r3, [pc, #216]	; (10005cc4 <__aeabi_dadd+0x3ac>)
10005bea:	4298      	cmp	r0, r3
10005bec:	d100      	bne.n	10005bf0 <__aeabi_dadd+0x2d8>
10005bee:	e121      	b.n	10005e34 <__aeabi_dadd+0x51c>
10005bf0:	4663      	mov	r3, ip
10005bf2:	195c      	adds	r4, r3, r5
10005bf4:	42ac      	cmp	r4, r5
10005bf6:	419b      	sbcs	r3, r3
10005bf8:	19cf      	adds	r7, r1, r7
10005bfa:	425b      	negs	r3, r3
10005bfc:	18fa      	adds	r2, r7, r3
10005bfe:	0864      	lsrs	r4, r4, #1
10005c00:	07d5      	lsls	r5, r2, #31
10005c02:	4325      	orrs	r5, r4
10005c04:	0857      	lsrs	r7, r2, #1
10005c06:	1c04      	adds	r4, r0, #0
10005c08:	e6ae      	b.n	10005968 <__aeabi_dadd+0x50>
10005c0a:	4b2e      	ldr	r3, [pc, #184]	; (10005cc4 <__aeabi_dadd+0x3ac>)
10005c0c:	429c      	cmp	r4, r3
10005c0e:	d000      	beq.n	10005c12 <__aeabi_dadd+0x2fa>
10005c10:	e6ea      	b.n	100059e8 <__aeabi_dadd+0xd0>
10005c12:	e6a9      	b.n	10005968 <__aeabi_dadd+0x50>
10005c14:	1c21      	adds	r1, r4, #0
10005c16:	1c33      	adds	r3, r6, #0
10005c18:	391f      	subs	r1, #31
10005c1a:	40cb      	lsrs	r3, r1
10005c1c:	1c19      	adds	r1, r3, #0
10005c1e:	2a20      	cmp	r2, #32
10005c20:	d100      	bne.n	10005c24 <__aeabi_dadd+0x30c>
10005c22:	e082      	b.n	10005d2a <__aeabi_dadd+0x412>
10005c24:	233f      	movs	r3, #63	; 0x3f
10005c26:	1b1c      	subs	r4, r3, r4
10005c28:	40a6      	lsls	r6, r4
10005c2a:	4335      	orrs	r5, r6
10005c2c:	1e6e      	subs	r6, r5, #1
10005c2e:	41b5      	sbcs	r5, r6
10005c30:	2700      	movs	r7, #0
10005c32:	430d      	orrs	r5, r1
10005c34:	2400      	movs	r4, #0
10005c36:	e78e      	b.n	10005b56 <__aeabi_dadd+0x23e>
10005c38:	1c03      	adds	r3, r0, #0
10005c3a:	1c0e      	adds	r6, r1, #0
10005c3c:	3b20      	subs	r3, #32
10005c3e:	40de      	lsrs	r6, r3
10005c40:	2820      	cmp	r0, #32
10005c42:	d074      	beq.n	10005d2e <__aeabi_dadd+0x416>
10005c44:	2340      	movs	r3, #64	; 0x40
10005c46:	1a1b      	subs	r3, r3, r0
10005c48:	4099      	lsls	r1, r3
10005c4a:	1c0b      	adds	r3, r1, #0
10005c4c:	4662      	mov	r2, ip
10005c4e:	4313      	orrs	r3, r2
10005c50:	1e59      	subs	r1, r3, #1
10005c52:	418b      	sbcs	r3, r1
10005c54:	2200      	movs	r2, #0
10005c56:	4333      	orrs	r3, r6
10005c58:	e6db      	b.n	10005a12 <__aeabi_dadd+0xfa>
10005c5a:	2c00      	cmp	r4, #0
10005c5c:	d050      	beq.n	10005d00 <__aeabi_dadd+0x3e8>
10005c5e:	4c19      	ldr	r4, [pc, #100]	; (10005cc4 <__aeabi_dadd+0x3ac>)
10005c60:	42a2      	cmp	r2, r4
10005c62:	d100      	bne.n	10005c66 <__aeabi_dadd+0x34e>
10005c64:	e0a8      	b.n	10005db8 <__aeabi_dadd+0x4a0>
10005c66:	2480      	movs	r4, #128	; 0x80
10005c68:	0424      	lsls	r4, r4, #16
10005c6a:	4240      	negs	r0, r0
10005c6c:	4327      	orrs	r7, r4
10005c6e:	2838      	cmp	r0, #56	; 0x38
10005c70:	dd00      	ble.n	10005c74 <__aeabi_dadd+0x35c>
10005c72:	e0d9      	b.n	10005e28 <__aeabi_dadd+0x510>
10005c74:	281f      	cmp	r0, #31
10005c76:	dd00      	ble.n	10005c7a <__aeabi_dadd+0x362>
10005c78:	e139      	b.n	10005eee <__aeabi_dadd+0x5d6>
10005c7a:	2420      	movs	r4, #32
10005c7c:	1c3e      	adds	r6, r7, #0
10005c7e:	1a24      	subs	r4, r4, r0
10005c80:	40a6      	lsls	r6, r4
10005c82:	46b0      	mov	r8, r6
10005c84:	1c2e      	adds	r6, r5, #0
10005c86:	46a1      	mov	r9, r4
10005c88:	40c6      	lsrs	r6, r0
10005c8a:	4644      	mov	r4, r8
10005c8c:	4326      	orrs	r6, r4
10005c8e:	464c      	mov	r4, r9
10005c90:	40a5      	lsls	r5, r4
10005c92:	1e6c      	subs	r4, r5, #1
10005c94:	41a5      	sbcs	r5, r4
10005c96:	40c7      	lsrs	r7, r0
10005c98:	4335      	orrs	r5, r6
10005c9a:	4660      	mov	r0, ip
10005c9c:	1b45      	subs	r5, r0, r5
10005c9e:	1bcf      	subs	r7, r1, r7
10005ca0:	45ac      	cmp	ip, r5
10005ca2:	4189      	sbcs	r1, r1
10005ca4:	4249      	negs	r1, r1
10005ca6:	1a7f      	subs	r7, r7, r1
10005ca8:	1c14      	adds	r4, r2, #0
10005caa:	4698      	mov	r8, r3
10005cac:	e6b8      	b.n	10005a20 <__aeabi_dadd+0x108>
10005cae:	464b      	mov	r3, r9
10005cb0:	464d      	mov	r5, r9
10005cb2:	4333      	orrs	r3, r6
10005cb4:	d000      	beq.n	10005cb8 <__aeabi_dadd+0x3a0>
10005cb6:	e6b8      	b.n	10005a2a <__aeabi_dadd+0x112>
10005cb8:	2600      	movs	r6, #0
10005cba:	2700      	movs	r7, #0
10005cbc:	2400      	movs	r4, #0
10005cbe:	2500      	movs	r5, #0
10005cc0:	e6e4      	b.n	10005a8c <__aeabi_dadd+0x174>
10005cc2:	46c0      	nop			; (mov r8, r8)
10005cc4:	000007ff 	.word	0x000007ff
10005cc8:	ff7fffff 	.word	0xff7fffff
10005ccc:	800fffff 	.word	0x800fffff
10005cd0:	2b1f      	cmp	r3, #31
10005cd2:	dc5b      	bgt.n	10005d8c <__aeabi_dadd+0x474>
10005cd4:	2220      	movs	r2, #32
10005cd6:	1c08      	adds	r0, r1, #0
10005cd8:	1ad2      	subs	r2, r2, r3
10005cda:	4090      	lsls	r0, r2
10005cdc:	4681      	mov	r9, r0
10005cde:	4660      	mov	r0, ip
10005ce0:	4692      	mov	sl, r2
10005ce2:	40d8      	lsrs	r0, r3
10005ce4:	464a      	mov	r2, r9
10005ce6:	4310      	orrs	r0, r2
10005ce8:	4681      	mov	r9, r0
10005cea:	4652      	mov	r2, sl
10005cec:	4660      	mov	r0, ip
10005cee:	4090      	lsls	r0, r2
10005cf0:	1c02      	adds	r2, r0, #0
10005cf2:	1e50      	subs	r0, r2, #1
10005cf4:	4182      	sbcs	r2, r0
10005cf6:	4648      	mov	r0, r9
10005cf8:	4310      	orrs	r0, r2
10005cfa:	1c0a      	adds	r2, r1, #0
10005cfc:	40da      	lsrs	r2, r3
10005cfe:	e6e7      	b.n	10005ad0 <__aeabi_dadd+0x1b8>
10005d00:	1c3c      	adds	r4, r7, #0
10005d02:	432c      	orrs	r4, r5
10005d04:	d058      	beq.n	10005db8 <__aeabi_dadd+0x4a0>
10005d06:	43c0      	mvns	r0, r0
10005d08:	2800      	cmp	r0, #0
10005d0a:	d151      	bne.n	10005db0 <__aeabi_dadd+0x498>
10005d0c:	4660      	mov	r0, ip
10005d0e:	1b45      	subs	r5, r0, r5
10005d10:	45ac      	cmp	ip, r5
10005d12:	4180      	sbcs	r0, r0
10005d14:	1bcf      	subs	r7, r1, r7
10005d16:	4240      	negs	r0, r0
10005d18:	1a3f      	subs	r7, r7, r0
10005d1a:	1c14      	adds	r4, r2, #0
10005d1c:	4698      	mov	r8, r3
10005d1e:	e67f      	b.n	10005a20 <__aeabi_dadd+0x108>
10005d20:	4a8f      	ldr	r2, [pc, #572]	; (10005f60 <__aeabi_dadd+0x648>)
10005d22:	4294      	cmp	r4, r2
10005d24:	d000      	beq.n	10005d28 <__aeabi_dadd+0x410>
10005d26:	e6ca      	b.n	10005abe <__aeabi_dadd+0x1a6>
10005d28:	e61e      	b.n	10005968 <__aeabi_dadd+0x50>
10005d2a:	2600      	movs	r6, #0
10005d2c:	e77d      	b.n	10005c2a <__aeabi_dadd+0x312>
10005d2e:	2300      	movs	r3, #0
10005d30:	e78c      	b.n	10005c4c <__aeabi_dadd+0x334>
10005d32:	1c3b      	adds	r3, r7, #0
10005d34:	432b      	orrs	r3, r5
10005d36:	2c00      	cmp	r4, #0
10005d38:	d000      	beq.n	10005d3c <__aeabi_dadd+0x424>
10005d3a:	e0bd      	b.n	10005eb8 <__aeabi_dadd+0x5a0>
10005d3c:	2b00      	cmp	r3, #0
10005d3e:	d100      	bne.n	10005d42 <__aeabi_dadd+0x42a>
10005d40:	e0f5      	b.n	10005f2e <__aeabi_dadd+0x616>
10005d42:	4663      	mov	r3, ip
10005d44:	430b      	orrs	r3, r1
10005d46:	d100      	bne.n	10005d4a <__aeabi_dadd+0x432>
10005d48:	e60e      	b.n	10005968 <__aeabi_dadd+0x50>
10005d4a:	4663      	mov	r3, ip
10005d4c:	195b      	adds	r3, r3, r5
10005d4e:	42ab      	cmp	r3, r5
10005d50:	4180      	sbcs	r0, r0
10005d52:	19ca      	adds	r2, r1, r7
10005d54:	4240      	negs	r0, r0
10005d56:	1817      	adds	r7, r2, r0
10005d58:	023a      	lsls	r2, r7, #8
10005d5a:	d400      	bmi.n	10005d5e <__aeabi_dadd+0x446>
10005d5c:	e0fc      	b.n	10005f58 <__aeabi_dadd+0x640>
10005d5e:	4a81      	ldr	r2, [pc, #516]	; (10005f64 <__aeabi_dadd+0x64c>)
10005d60:	1c1d      	adds	r5, r3, #0
10005d62:	4017      	ands	r7, r2
10005d64:	3401      	adds	r4, #1
10005d66:	e5ff      	b.n	10005968 <__aeabi_dadd+0x50>
10005d68:	1c3a      	adds	r2, r7, #0
10005d6a:	432a      	orrs	r2, r5
10005d6c:	2c00      	cmp	r4, #0
10005d6e:	d151      	bne.n	10005e14 <__aeabi_dadd+0x4fc>
10005d70:	2a00      	cmp	r2, #0
10005d72:	d000      	beq.n	10005d76 <__aeabi_dadd+0x45e>
10005d74:	e085      	b.n	10005e82 <__aeabi_dadd+0x56a>
10005d76:	4662      	mov	r2, ip
10005d78:	430a      	orrs	r2, r1
10005d7a:	d003      	beq.n	10005d84 <__aeabi_dadd+0x46c>
10005d7c:	1c0f      	adds	r7, r1, #0
10005d7e:	4665      	mov	r5, ip
10005d80:	4698      	mov	r8, r3
10005d82:	e5f1      	b.n	10005968 <__aeabi_dadd+0x50>
10005d84:	2600      	movs	r6, #0
10005d86:	2700      	movs	r7, #0
10005d88:	2500      	movs	r5, #0
10005d8a:	e67f      	b.n	10005a8c <__aeabi_dadd+0x174>
10005d8c:	1c18      	adds	r0, r3, #0
10005d8e:	1c0a      	adds	r2, r1, #0
10005d90:	3820      	subs	r0, #32
10005d92:	40c2      	lsrs	r2, r0
10005d94:	2b20      	cmp	r3, #32
10005d96:	d100      	bne.n	10005d9a <__aeabi_dadd+0x482>
10005d98:	e0a7      	b.n	10005eea <__aeabi_dadd+0x5d2>
10005d9a:	2040      	movs	r0, #64	; 0x40
10005d9c:	1ac0      	subs	r0, r0, r3
10005d9e:	4081      	lsls	r1, r0
10005da0:	1c08      	adds	r0, r1, #0
10005da2:	4663      	mov	r3, ip
10005da4:	4318      	orrs	r0, r3
10005da6:	1e41      	subs	r1, r0, #1
10005da8:	4188      	sbcs	r0, r1
10005daa:	4310      	orrs	r0, r2
10005dac:	2200      	movs	r2, #0
10005dae:	e68f      	b.n	10005ad0 <__aeabi_dadd+0x1b8>
10005db0:	4c6b      	ldr	r4, [pc, #428]	; (10005f60 <__aeabi_dadd+0x648>)
10005db2:	42a2      	cmp	r2, r4
10005db4:	d000      	beq.n	10005db8 <__aeabi_dadd+0x4a0>
10005db6:	e75a      	b.n	10005c6e <__aeabi_dadd+0x356>
10005db8:	1c0f      	adds	r7, r1, #0
10005dba:	4665      	mov	r5, ip
10005dbc:	1c14      	adds	r4, r2, #0
10005dbe:	4698      	mov	r8, r3
10005dc0:	e5d2      	b.n	10005968 <__aeabi_dadd+0x50>
10005dc2:	2c00      	cmp	r4, #0
10005dc4:	d13a      	bne.n	10005e3c <__aeabi_dadd+0x524>
10005dc6:	1c38      	adds	r0, r7, #0
10005dc8:	4328      	orrs	r0, r5
10005dca:	d071      	beq.n	10005eb0 <__aeabi_dadd+0x598>
10005dcc:	43db      	mvns	r3, r3
10005dce:	2b00      	cmp	r3, #0
10005dd0:	d018      	beq.n	10005e04 <__aeabi_dadd+0x4ec>
10005dd2:	4863      	ldr	r0, [pc, #396]	; (10005f60 <__aeabi_dadd+0x648>)
10005dd4:	4282      	cmp	r2, r0
10005dd6:	d06b      	beq.n	10005eb0 <__aeabi_dadd+0x598>
10005dd8:	2b38      	cmp	r3, #56	; 0x38
10005dda:	dd00      	ble.n	10005dde <__aeabi_dadd+0x4c6>
10005ddc:	e09d      	b.n	10005f1a <__aeabi_dadd+0x602>
10005dde:	2b1f      	cmp	r3, #31
10005de0:	dd00      	ble.n	10005de4 <__aeabi_dadd+0x4cc>
10005de2:	e0a7      	b.n	10005f34 <__aeabi_dadd+0x61c>
10005de4:	2020      	movs	r0, #32
10005de6:	1c3c      	adds	r4, r7, #0
10005de8:	1ac0      	subs	r0, r0, r3
10005dea:	4084      	lsls	r4, r0
10005dec:	46a1      	mov	r9, r4
10005dee:	1c2c      	adds	r4, r5, #0
10005df0:	4682      	mov	sl, r0
10005df2:	40dc      	lsrs	r4, r3
10005df4:	4648      	mov	r0, r9
10005df6:	4304      	orrs	r4, r0
10005df8:	4650      	mov	r0, sl
10005dfa:	4085      	lsls	r5, r0
10005dfc:	1e68      	subs	r0, r5, #1
10005dfe:	4185      	sbcs	r5, r0
10005e00:	40df      	lsrs	r7, r3
10005e02:	4325      	orrs	r5, r4
10005e04:	4465      	add	r5, ip
10005e06:	4565      	cmp	r5, ip
10005e08:	419b      	sbcs	r3, r3
10005e0a:	187f      	adds	r7, r7, r1
10005e0c:	425b      	negs	r3, r3
10005e0e:	18ff      	adds	r7, r7, r3
10005e10:	1c14      	adds	r4, r2, #0
10005e12:	e664      	b.n	10005ade <__aeabi_dadd+0x1c6>
10005e14:	2a00      	cmp	r2, #0
10005e16:	d119      	bne.n	10005e4c <__aeabi_dadd+0x534>
10005e18:	4662      	mov	r2, ip
10005e1a:	430a      	orrs	r2, r1
10005e1c:	d077      	beq.n	10005f0e <__aeabi_dadd+0x5f6>
10005e1e:	1c0f      	adds	r7, r1, #0
10005e20:	4665      	mov	r5, ip
10005e22:	4698      	mov	r8, r3
10005e24:	4c4e      	ldr	r4, [pc, #312]	; (10005f60 <__aeabi_dadd+0x648>)
10005e26:	e59f      	b.n	10005968 <__aeabi_dadd+0x50>
10005e28:	433d      	orrs	r5, r7
10005e2a:	1e6f      	subs	r7, r5, #1
10005e2c:	41bd      	sbcs	r5, r7
10005e2e:	2700      	movs	r7, #0
10005e30:	b2ed      	uxtb	r5, r5
10005e32:	e732      	b.n	10005c9a <__aeabi_dadd+0x382>
10005e34:	1c04      	adds	r4, r0, #0
10005e36:	2700      	movs	r7, #0
10005e38:	2500      	movs	r5, #0
10005e3a:	e627      	b.n	10005a8c <__aeabi_dadd+0x174>
10005e3c:	4848      	ldr	r0, [pc, #288]	; (10005f60 <__aeabi_dadd+0x648>)
10005e3e:	4282      	cmp	r2, r0
10005e40:	d036      	beq.n	10005eb0 <__aeabi_dadd+0x598>
10005e42:	2080      	movs	r0, #128	; 0x80
10005e44:	0400      	lsls	r0, r0, #16
10005e46:	425b      	negs	r3, r3
10005e48:	4307      	orrs	r7, r0
10005e4a:	e7c5      	b.n	10005dd8 <__aeabi_dadd+0x4c0>
10005e4c:	4662      	mov	r2, ip
10005e4e:	430a      	orrs	r2, r1
10005e50:	d049      	beq.n	10005ee6 <__aeabi_dadd+0x5ce>
10005e52:	2480      	movs	r4, #128	; 0x80
10005e54:	08ed      	lsrs	r5, r5, #3
10005e56:	0778      	lsls	r0, r7, #29
10005e58:	08fa      	lsrs	r2, r7, #3
10005e5a:	0324      	lsls	r4, r4, #12
10005e5c:	4328      	orrs	r0, r5
10005e5e:	4222      	tst	r2, r4
10005e60:	d009      	beq.n	10005e76 <__aeabi_dadd+0x55e>
10005e62:	08ce      	lsrs	r6, r1, #3
10005e64:	4226      	tst	r6, r4
10005e66:	d106      	bne.n	10005e76 <__aeabi_dadd+0x55e>
10005e68:	4662      	mov	r2, ip
10005e6a:	074f      	lsls	r7, r1, #29
10005e6c:	1c38      	adds	r0, r7, #0
10005e6e:	08d2      	lsrs	r2, r2, #3
10005e70:	4310      	orrs	r0, r2
10005e72:	4698      	mov	r8, r3
10005e74:	1c32      	adds	r2, r6, #0
10005e76:	00d2      	lsls	r2, r2, #3
10005e78:	0f47      	lsrs	r7, r0, #29
10005e7a:	4317      	orrs	r7, r2
10005e7c:	00c5      	lsls	r5, r0, #3
10005e7e:	4c38      	ldr	r4, [pc, #224]	; (10005f60 <__aeabi_dadd+0x648>)
10005e80:	e572      	b.n	10005968 <__aeabi_dadd+0x50>
10005e82:	4662      	mov	r2, ip
10005e84:	430a      	orrs	r2, r1
10005e86:	d100      	bne.n	10005e8a <__aeabi_dadd+0x572>
10005e88:	e56e      	b.n	10005968 <__aeabi_dadd+0x50>
10005e8a:	4662      	mov	r2, ip
10005e8c:	1aae      	subs	r6, r5, r2
10005e8e:	42b5      	cmp	r5, r6
10005e90:	4192      	sbcs	r2, r2
10005e92:	1a78      	subs	r0, r7, r1
10005e94:	4252      	negs	r2, r2
10005e96:	1a82      	subs	r2, r0, r2
10005e98:	0210      	lsls	r0, r2, #8
10005e9a:	d400      	bmi.n	10005e9e <__aeabi_dadd+0x586>
10005e9c:	e655      	b.n	10005b4a <__aeabi_dadd+0x232>
10005e9e:	4662      	mov	r2, ip
10005ea0:	1b55      	subs	r5, r2, r5
10005ea2:	45ac      	cmp	ip, r5
10005ea4:	4180      	sbcs	r0, r0
10005ea6:	1bca      	subs	r2, r1, r7
10005ea8:	4240      	negs	r0, r0
10005eaa:	1a17      	subs	r7, r2, r0
10005eac:	4698      	mov	r8, r3
10005eae:	e55b      	b.n	10005968 <__aeabi_dadd+0x50>
10005eb0:	1c0f      	adds	r7, r1, #0
10005eb2:	4665      	mov	r5, ip
10005eb4:	1c14      	adds	r4, r2, #0
10005eb6:	e557      	b.n	10005968 <__aeabi_dadd+0x50>
10005eb8:	2b00      	cmp	r3, #0
10005eba:	d034      	beq.n	10005f26 <__aeabi_dadd+0x60e>
10005ebc:	4663      	mov	r3, ip
10005ebe:	430b      	orrs	r3, r1
10005ec0:	d011      	beq.n	10005ee6 <__aeabi_dadd+0x5ce>
10005ec2:	2480      	movs	r4, #128	; 0x80
10005ec4:	08ed      	lsrs	r5, r5, #3
10005ec6:	0778      	lsls	r0, r7, #29
10005ec8:	08fa      	lsrs	r2, r7, #3
10005eca:	0324      	lsls	r4, r4, #12
10005ecc:	4328      	orrs	r0, r5
10005ece:	4222      	tst	r2, r4
10005ed0:	d0d1      	beq.n	10005e76 <__aeabi_dadd+0x55e>
10005ed2:	08cb      	lsrs	r3, r1, #3
10005ed4:	4223      	tst	r3, r4
10005ed6:	d1ce      	bne.n	10005e76 <__aeabi_dadd+0x55e>
10005ed8:	4662      	mov	r2, ip
10005eda:	074f      	lsls	r7, r1, #29
10005edc:	1c38      	adds	r0, r7, #0
10005ede:	08d2      	lsrs	r2, r2, #3
10005ee0:	4310      	orrs	r0, r2
10005ee2:	1c1a      	adds	r2, r3, #0
10005ee4:	e7c7      	b.n	10005e76 <__aeabi_dadd+0x55e>
10005ee6:	4c1e      	ldr	r4, [pc, #120]	; (10005f60 <__aeabi_dadd+0x648>)
10005ee8:	e53e      	b.n	10005968 <__aeabi_dadd+0x50>
10005eea:	2000      	movs	r0, #0
10005eec:	e759      	b.n	10005da2 <__aeabi_dadd+0x48a>
10005eee:	1c04      	adds	r4, r0, #0
10005ef0:	1c3e      	adds	r6, r7, #0
10005ef2:	3c20      	subs	r4, #32
10005ef4:	40e6      	lsrs	r6, r4
10005ef6:	1c34      	adds	r4, r6, #0
10005ef8:	2820      	cmp	r0, #32
10005efa:	d02b      	beq.n	10005f54 <__aeabi_dadd+0x63c>
10005efc:	2640      	movs	r6, #64	; 0x40
10005efe:	1a30      	subs	r0, r6, r0
10005f00:	4087      	lsls	r7, r0
10005f02:	433d      	orrs	r5, r7
10005f04:	1e6f      	subs	r7, r5, #1
10005f06:	41bd      	sbcs	r5, r7
10005f08:	2700      	movs	r7, #0
10005f0a:	4325      	orrs	r5, r4
10005f0c:	e6c5      	b.n	10005c9a <__aeabi_dadd+0x382>
10005f0e:	2780      	movs	r7, #128	; 0x80
10005f10:	2600      	movs	r6, #0
10005f12:	03ff      	lsls	r7, r7, #15
10005f14:	4c12      	ldr	r4, [pc, #72]	; (10005f60 <__aeabi_dadd+0x648>)
10005f16:	2500      	movs	r5, #0
10005f18:	e5b8      	b.n	10005a8c <__aeabi_dadd+0x174>
10005f1a:	433d      	orrs	r5, r7
10005f1c:	1e6f      	subs	r7, r5, #1
10005f1e:	41bd      	sbcs	r5, r7
10005f20:	2700      	movs	r7, #0
10005f22:	b2ed      	uxtb	r5, r5
10005f24:	e76e      	b.n	10005e04 <__aeabi_dadd+0x4ec>
10005f26:	1c0f      	adds	r7, r1, #0
10005f28:	4665      	mov	r5, ip
10005f2a:	4c0d      	ldr	r4, [pc, #52]	; (10005f60 <__aeabi_dadd+0x648>)
10005f2c:	e51c      	b.n	10005968 <__aeabi_dadd+0x50>
10005f2e:	1c0f      	adds	r7, r1, #0
10005f30:	4665      	mov	r5, ip
10005f32:	e519      	b.n	10005968 <__aeabi_dadd+0x50>
10005f34:	1c1c      	adds	r4, r3, #0
10005f36:	1c38      	adds	r0, r7, #0
10005f38:	3c20      	subs	r4, #32
10005f3a:	40e0      	lsrs	r0, r4
10005f3c:	1c04      	adds	r4, r0, #0
10005f3e:	2b20      	cmp	r3, #32
10005f40:	d00c      	beq.n	10005f5c <__aeabi_dadd+0x644>
10005f42:	2040      	movs	r0, #64	; 0x40
10005f44:	1ac3      	subs	r3, r0, r3
10005f46:	409f      	lsls	r7, r3
10005f48:	433d      	orrs	r5, r7
10005f4a:	1e6f      	subs	r7, r5, #1
10005f4c:	41bd      	sbcs	r5, r7
10005f4e:	2700      	movs	r7, #0
10005f50:	4325      	orrs	r5, r4
10005f52:	e757      	b.n	10005e04 <__aeabi_dadd+0x4ec>
10005f54:	2700      	movs	r7, #0
10005f56:	e7d4      	b.n	10005f02 <__aeabi_dadd+0x5ea>
10005f58:	1c1d      	adds	r5, r3, #0
10005f5a:	e5fc      	b.n	10005b56 <__aeabi_dadd+0x23e>
10005f5c:	2700      	movs	r7, #0
10005f5e:	e7f3      	b.n	10005f48 <__aeabi_dadd+0x630>
10005f60:	000007ff 	.word	0x000007ff
10005f64:	ff7fffff 	.word	0xff7fffff

10005f68 <__aeabi_ddiv>:
10005f68:	b5f0      	push	{r4, r5, r6, r7, lr}
10005f6a:	465f      	mov	r7, fp
10005f6c:	4656      	mov	r6, sl
10005f6e:	464d      	mov	r5, r9
10005f70:	4644      	mov	r4, r8
10005f72:	b4f0      	push	{r4, r5, r6, r7}
10005f74:	030f      	lsls	r7, r1, #12
10005f76:	b087      	sub	sp, #28
10005f78:	4698      	mov	r8, r3
10005f7a:	004d      	lsls	r5, r1, #1
10005f7c:	0b3b      	lsrs	r3, r7, #12
10005f7e:	0fcc      	lsrs	r4, r1, #31
10005f80:	1c06      	adds	r6, r0, #0
10005f82:	4692      	mov	sl, r2
10005f84:	4681      	mov	r9, r0
10005f86:	469b      	mov	fp, r3
10005f88:	0d6d      	lsrs	r5, r5, #21
10005f8a:	9401      	str	r4, [sp, #4]
10005f8c:	d06b      	beq.n	10006066 <__aeabi_ddiv+0xfe>
10005f8e:	4b66      	ldr	r3, [pc, #408]	; (10006128 <__aeabi_ddiv+0x1c0>)
10005f90:	429d      	cmp	r5, r3
10005f92:	d035      	beq.n	10006000 <__aeabi_ddiv+0x98>
10005f94:	2780      	movs	r7, #128	; 0x80
10005f96:	465b      	mov	r3, fp
10005f98:	037f      	lsls	r7, r7, #13
10005f9a:	431f      	orrs	r7, r3
10005f9c:	00f3      	lsls	r3, r6, #3
10005f9e:	4699      	mov	r9, r3
10005fa0:	4b62      	ldr	r3, [pc, #392]	; (1000612c <__aeabi_ddiv+0x1c4>)
10005fa2:	00ff      	lsls	r7, r7, #3
10005fa4:	0f40      	lsrs	r0, r0, #29
10005fa6:	469c      	mov	ip, r3
10005fa8:	4307      	orrs	r7, r0
10005faa:	2300      	movs	r3, #0
10005fac:	46bb      	mov	fp, r7
10005fae:	2600      	movs	r6, #0
10005fb0:	4465      	add	r5, ip
10005fb2:	9300      	str	r3, [sp, #0]
10005fb4:	4642      	mov	r2, r8
10005fb6:	0317      	lsls	r7, r2, #12
10005fb8:	0050      	lsls	r0, r2, #1
10005fba:	0fd2      	lsrs	r2, r2, #31
10005fbc:	4653      	mov	r3, sl
10005fbe:	0b3f      	lsrs	r7, r7, #12
10005fc0:	0d40      	lsrs	r0, r0, #21
10005fc2:	4690      	mov	r8, r2
10005fc4:	d100      	bne.n	10005fc8 <__aeabi_ddiv+0x60>
10005fc6:	e072      	b.n	100060ae <__aeabi_ddiv+0x146>
10005fc8:	4a57      	ldr	r2, [pc, #348]	; (10006128 <__aeabi_ddiv+0x1c0>)
10005fca:	4290      	cmp	r0, r2
10005fcc:	d067      	beq.n	1000609e <__aeabi_ddiv+0x136>
10005fce:	2380      	movs	r3, #128	; 0x80
10005fd0:	035b      	lsls	r3, r3, #13
10005fd2:	431f      	orrs	r7, r3
10005fd4:	4653      	mov	r3, sl
10005fd6:	4a55      	ldr	r2, [pc, #340]	; (1000612c <__aeabi_ddiv+0x1c4>)
10005fd8:	0f5b      	lsrs	r3, r3, #29
10005fda:	00ff      	lsls	r7, r7, #3
10005fdc:	431f      	orrs	r7, r3
10005fde:	4694      	mov	ip, r2
10005fe0:	4653      	mov	r3, sl
10005fe2:	2100      	movs	r1, #0
10005fe4:	00db      	lsls	r3, r3, #3
10005fe6:	4460      	add	r0, ip
10005fe8:	4642      	mov	r2, r8
10005fea:	4062      	eors	r2, r4
10005fec:	4692      	mov	sl, r2
10005fee:	1a2d      	subs	r5, r5, r0
10005ff0:	430e      	orrs	r6, r1
10005ff2:	2e0f      	cmp	r6, #15
10005ff4:	d900      	bls.n	10005ff8 <__aeabi_ddiv+0x90>
10005ff6:	e0a1      	b.n	1000613c <__aeabi_ddiv+0x1d4>
10005ff8:	484d      	ldr	r0, [pc, #308]	; (10006130 <__aeabi_ddiv+0x1c8>)
10005ffa:	00b6      	lsls	r6, r6, #2
10005ffc:	5980      	ldr	r0, [r0, r6]
10005ffe:	4687      	mov	pc, r0
10006000:	465b      	mov	r3, fp
10006002:	431e      	orrs	r6, r3
10006004:	d000      	beq.n	10006008 <__aeabi_ddiv+0xa0>
10006006:	e076      	b.n	100060f6 <__aeabi_ddiv+0x18e>
10006008:	2300      	movs	r3, #0
1000600a:	469b      	mov	fp, r3
1000600c:	4699      	mov	r9, r3
1000600e:	3302      	adds	r3, #2
10006010:	2608      	movs	r6, #8
10006012:	9300      	str	r3, [sp, #0]
10006014:	e7ce      	b.n	10005fb4 <__aeabi_ddiv+0x4c>
10006016:	4699      	mov	r9, r3
10006018:	4643      	mov	r3, r8
1000601a:	46bb      	mov	fp, r7
1000601c:	9301      	str	r3, [sp, #4]
1000601e:	9100      	str	r1, [sp, #0]
10006020:	9b00      	ldr	r3, [sp, #0]
10006022:	2b02      	cmp	r3, #2
10006024:	d16b      	bne.n	100060fe <__aeabi_ddiv+0x196>
10006026:	9b01      	ldr	r3, [sp, #4]
10006028:	469a      	mov	sl, r3
1000602a:	2100      	movs	r1, #0
1000602c:	4653      	mov	r3, sl
1000602e:	2201      	movs	r2, #1
10006030:	2700      	movs	r7, #0
10006032:	4689      	mov	r9, r1
10006034:	401a      	ands	r2, r3
10006036:	4b3c      	ldr	r3, [pc, #240]	; (10006128 <__aeabi_ddiv+0x1c0>)
10006038:	2100      	movs	r1, #0
1000603a:	033f      	lsls	r7, r7, #12
1000603c:	0d0c      	lsrs	r4, r1, #20
1000603e:	0524      	lsls	r4, r4, #20
10006040:	0b3f      	lsrs	r7, r7, #12
10006042:	4327      	orrs	r7, r4
10006044:	4c3b      	ldr	r4, [pc, #236]	; (10006134 <__aeabi_ddiv+0x1cc>)
10006046:	051b      	lsls	r3, r3, #20
10006048:	4027      	ands	r7, r4
1000604a:	431f      	orrs	r7, r3
1000604c:	007f      	lsls	r7, r7, #1
1000604e:	07d2      	lsls	r2, r2, #31
10006050:	087f      	lsrs	r7, r7, #1
10006052:	4317      	orrs	r7, r2
10006054:	4648      	mov	r0, r9
10006056:	1c39      	adds	r1, r7, #0
10006058:	b007      	add	sp, #28
1000605a:	bc3c      	pop	{r2, r3, r4, r5}
1000605c:	4690      	mov	r8, r2
1000605e:	4699      	mov	r9, r3
10006060:	46a2      	mov	sl, r4
10006062:	46ab      	mov	fp, r5
10006064:	bdf0      	pop	{r4, r5, r6, r7, pc}
10006066:	4303      	orrs	r3, r0
10006068:	d03e      	beq.n	100060e8 <__aeabi_ddiv+0x180>
1000606a:	465b      	mov	r3, fp
1000606c:	2b00      	cmp	r3, #0
1000606e:	d100      	bne.n	10006072 <__aeabi_ddiv+0x10a>
10006070:	e19c      	b.n	100063ac <__aeabi_ddiv+0x444>
10006072:	4658      	mov	r0, fp
10006074:	f7fd fe4a 	bl	10003d0c <__clzsi2>
10006078:	2328      	movs	r3, #40	; 0x28
1000607a:	1c31      	adds	r1, r6, #0
1000607c:	1a1b      	subs	r3, r3, r0
1000607e:	1c02      	adds	r2, r0, #0
10006080:	465f      	mov	r7, fp
10006082:	40d9      	lsrs	r1, r3
10006084:	3a08      	subs	r2, #8
10006086:	4097      	lsls	r7, r2
10006088:	1c0b      	adds	r3, r1, #0
1000608a:	4096      	lsls	r6, r2
1000608c:	433b      	orrs	r3, r7
1000608e:	469b      	mov	fp, r3
10006090:	46b1      	mov	r9, r6
10006092:	2300      	movs	r3, #0
10006094:	4d28      	ldr	r5, [pc, #160]	; (10006138 <__aeabi_ddiv+0x1d0>)
10006096:	2600      	movs	r6, #0
10006098:	1a2d      	subs	r5, r5, r0
1000609a:	9300      	str	r3, [sp, #0]
1000609c:	e78a      	b.n	10005fb4 <__aeabi_ddiv+0x4c>
1000609e:	4652      	mov	r2, sl
100060a0:	2103      	movs	r1, #3
100060a2:	433a      	orrs	r2, r7
100060a4:	d1a0      	bne.n	10005fe8 <__aeabi_ddiv+0x80>
100060a6:	2700      	movs	r7, #0
100060a8:	2300      	movs	r3, #0
100060aa:	2102      	movs	r1, #2
100060ac:	e79c      	b.n	10005fe8 <__aeabi_ddiv+0x80>
100060ae:	4652      	mov	r2, sl
100060b0:	433a      	orrs	r2, r7
100060b2:	d015      	beq.n	100060e0 <__aeabi_ddiv+0x178>
100060b4:	2f00      	cmp	r7, #0
100060b6:	d100      	bne.n	100060ba <__aeabi_ddiv+0x152>
100060b8:	e185      	b.n	100063c6 <__aeabi_ddiv+0x45e>
100060ba:	1c38      	adds	r0, r7, #0
100060bc:	f7fd fe26 	bl	10003d0c <__clzsi2>
100060c0:	1c02      	adds	r2, r0, #0
100060c2:	2128      	movs	r1, #40	; 0x28
100060c4:	4650      	mov	r0, sl
100060c6:	1a89      	subs	r1, r1, r2
100060c8:	1c13      	adds	r3, r2, #0
100060ca:	40c8      	lsrs	r0, r1
100060cc:	4651      	mov	r1, sl
100060ce:	3b08      	subs	r3, #8
100060d0:	4099      	lsls	r1, r3
100060d2:	409f      	lsls	r7, r3
100060d4:	1c0b      	adds	r3, r1, #0
100060d6:	4307      	orrs	r7, r0
100060d8:	4817      	ldr	r0, [pc, #92]	; (10006138 <__aeabi_ddiv+0x1d0>)
100060da:	2100      	movs	r1, #0
100060dc:	1a80      	subs	r0, r0, r2
100060de:	e783      	b.n	10005fe8 <__aeabi_ddiv+0x80>
100060e0:	2700      	movs	r7, #0
100060e2:	2300      	movs	r3, #0
100060e4:	2101      	movs	r1, #1
100060e6:	e77f      	b.n	10005fe8 <__aeabi_ddiv+0x80>
100060e8:	2300      	movs	r3, #0
100060ea:	469b      	mov	fp, r3
100060ec:	4699      	mov	r9, r3
100060ee:	3301      	adds	r3, #1
100060f0:	2604      	movs	r6, #4
100060f2:	9300      	str	r3, [sp, #0]
100060f4:	e75e      	b.n	10005fb4 <__aeabi_ddiv+0x4c>
100060f6:	2303      	movs	r3, #3
100060f8:	260c      	movs	r6, #12
100060fa:	9300      	str	r3, [sp, #0]
100060fc:	e75a      	b.n	10005fb4 <__aeabi_ddiv+0x4c>
100060fe:	2b03      	cmp	r3, #3
10006100:	d100      	bne.n	10006104 <__aeabi_ddiv+0x19c>
10006102:	e23c      	b.n	1000657e <__aeabi_ddiv+0x616>
10006104:	2b01      	cmp	r3, #1
10006106:	d000      	beq.n	1000610a <__aeabi_ddiv+0x1a2>
10006108:	e1bf      	b.n	1000648a <__aeabi_ddiv+0x522>
1000610a:	1c1a      	adds	r2, r3, #0
1000610c:	9b01      	ldr	r3, [sp, #4]
1000610e:	401a      	ands	r2, r3
10006110:	2100      	movs	r1, #0
10006112:	2300      	movs	r3, #0
10006114:	2700      	movs	r7, #0
10006116:	4689      	mov	r9, r1
10006118:	e78e      	b.n	10006038 <__aeabi_ddiv+0xd0>
1000611a:	2300      	movs	r3, #0
1000611c:	2780      	movs	r7, #128	; 0x80
1000611e:	4699      	mov	r9, r3
10006120:	2200      	movs	r2, #0
10006122:	033f      	lsls	r7, r7, #12
10006124:	4b00      	ldr	r3, [pc, #0]	; (10006128 <__aeabi_ddiv+0x1c0>)
10006126:	e787      	b.n	10006038 <__aeabi_ddiv+0xd0>
10006128:	000007ff 	.word	0x000007ff
1000612c:	fffffc01 	.word	0xfffffc01
10006130:	1000780c 	.word	0x1000780c
10006134:	800fffff 	.word	0x800fffff
10006138:	fffffc0d 	.word	0xfffffc0d
1000613c:	45bb      	cmp	fp, r7
1000613e:	d900      	bls.n	10006142 <__aeabi_ddiv+0x1da>
10006140:	e151      	b.n	100063e6 <__aeabi_ddiv+0x47e>
10006142:	d100      	bne.n	10006146 <__aeabi_ddiv+0x1de>
10006144:	e14c      	b.n	100063e0 <__aeabi_ddiv+0x478>
10006146:	464a      	mov	r2, r9
10006148:	9203      	str	r2, [sp, #12]
1000614a:	2200      	movs	r2, #0
1000614c:	465c      	mov	r4, fp
1000614e:	4690      	mov	r8, r2
10006150:	3d01      	subs	r5, #1
10006152:	0e18      	lsrs	r0, r3, #24
10006154:	023f      	lsls	r7, r7, #8
10006156:	4338      	orrs	r0, r7
10006158:	021b      	lsls	r3, r3, #8
1000615a:	9301      	str	r3, [sp, #4]
1000615c:	0c03      	lsrs	r3, r0, #16
1000615e:	4699      	mov	r9, r3
10006160:	0403      	lsls	r3, r0, #16
10006162:	0c1b      	lsrs	r3, r3, #16
10006164:	4649      	mov	r1, r9
10006166:	1c06      	adds	r6, r0, #0
10006168:	1c20      	adds	r0, r4, #0
1000616a:	1c1f      	adds	r7, r3, #0
1000616c:	9300      	str	r3, [sp, #0]
1000616e:	f7fd fc4b 	bl	10003a08 <__aeabi_uidiv>
10006172:	1c02      	adds	r2, r0, #0
10006174:	437a      	muls	r2, r7
10006176:	9002      	str	r0, [sp, #8]
10006178:	4649      	mov	r1, r9
1000617a:	1c20      	adds	r0, r4, #0
1000617c:	1c17      	adds	r7, r2, #0
1000617e:	f7fd fcc9 	bl	10003b14 <__aeabi_uidivmod>
10006182:	9b03      	ldr	r3, [sp, #12]
10006184:	0409      	lsls	r1, r1, #16
10006186:	0c1b      	lsrs	r3, r3, #16
10006188:	4319      	orrs	r1, r3
1000618a:	428f      	cmp	r7, r1
1000618c:	d90c      	bls.n	100061a8 <__aeabi_ddiv+0x240>
1000618e:	9b02      	ldr	r3, [sp, #8]
10006190:	1989      	adds	r1, r1, r6
10006192:	3b01      	subs	r3, #1
10006194:	428e      	cmp	r6, r1
10006196:	d900      	bls.n	1000619a <__aeabi_ddiv+0x232>
10006198:	e152      	b.n	10006440 <__aeabi_ddiv+0x4d8>
1000619a:	428f      	cmp	r7, r1
1000619c:	d800      	bhi.n	100061a0 <__aeabi_ddiv+0x238>
1000619e:	e14f      	b.n	10006440 <__aeabi_ddiv+0x4d8>
100061a0:	9b02      	ldr	r3, [sp, #8]
100061a2:	1989      	adds	r1, r1, r6
100061a4:	3b02      	subs	r3, #2
100061a6:	9302      	str	r3, [sp, #8]
100061a8:	1bcc      	subs	r4, r1, r7
100061aa:	1c20      	adds	r0, r4, #0
100061ac:	4649      	mov	r1, r9
100061ae:	f7fd fc2b 	bl	10003a08 <__aeabi_uidiv>
100061b2:	9f00      	ldr	r7, [sp, #0]
100061b4:	4683      	mov	fp, r0
100061b6:	4347      	muls	r7, r0
100061b8:	4649      	mov	r1, r9
100061ba:	1c20      	adds	r0, r4, #0
100061bc:	f7fd fcaa 	bl	10003b14 <__aeabi_uidivmod>
100061c0:	9a03      	ldr	r2, [sp, #12]
100061c2:	040b      	lsls	r3, r1, #16
100061c4:	0414      	lsls	r4, r2, #16
100061c6:	0c24      	lsrs	r4, r4, #16
100061c8:	4323      	orrs	r3, r4
100061ca:	429f      	cmp	r7, r3
100061cc:	d90d      	bls.n	100061ea <__aeabi_ddiv+0x282>
100061ce:	465a      	mov	r2, fp
100061d0:	199b      	adds	r3, r3, r6
100061d2:	3a01      	subs	r2, #1
100061d4:	429e      	cmp	r6, r3
100061d6:	d900      	bls.n	100061da <__aeabi_ddiv+0x272>
100061d8:	e130      	b.n	1000643c <__aeabi_ddiv+0x4d4>
100061da:	429f      	cmp	r7, r3
100061dc:	d800      	bhi.n	100061e0 <__aeabi_ddiv+0x278>
100061de:	e12d      	b.n	1000643c <__aeabi_ddiv+0x4d4>
100061e0:	2202      	movs	r2, #2
100061e2:	4252      	negs	r2, r2
100061e4:	4694      	mov	ip, r2
100061e6:	199b      	adds	r3, r3, r6
100061e8:	44e3      	add	fp, ip
100061ea:	9a02      	ldr	r2, [sp, #8]
100061ec:	1bdb      	subs	r3, r3, r7
100061ee:	0417      	lsls	r7, r2, #16
100061f0:	465a      	mov	r2, fp
100061f2:	433a      	orrs	r2, r7
100061f4:	4693      	mov	fp, r2
100061f6:	9c01      	ldr	r4, [sp, #4]
100061f8:	0c17      	lsrs	r7, r2, #16
100061fa:	0c22      	lsrs	r2, r4, #16
100061fc:	1c10      	adds	r0, r2, #0
100061fe:	9204      	str	r2, [sp, #16]
10006200:	465a      	mov	r2, fp
10006202:	0411      	lsls	r1, r2, #16
10006204:	0422      	lsls	r2, r4, #16
10006206:	0c12      	lsrs	r2, r2, #16
10006208:	1c14      	adds	r4, r2, #0
1000620a:	0c09      	lsrs	r1, r1, #16
1000620c:	437c      	muls	r4, r7
1000620e:	9205      	str	r2, [sp, #20]
10006210:	434a      	muls	r2, r1
10006212:	4341      	muls	r1, r0
10006214:	4347      	muls	r7, r0
10006216:	1861      	adds	r1, r4, r1
10006218:	0c10      	lsrs	r0, r2, #16
1000621a:	1809      	adds	r1, r1, r0
1000621c:	428c      	cmp	r4, r1
1000621e:	d903      	bls.n	10006228 <__aeabi_ddiv+0x2c0>
10006220:	2080      	movs	r0, #128	; 0x80
10006222:	0240      	lsls	r0, r0, #9
10006224:	4684      	mov	ip, r0
10006226:	4467      	add	r7, ip
10006228:	0c0c      	lsrs	r4, r1, #16
1000622a:	0412      	lsls	r2, r2, #16
1000622c:	0408      	lsls	r0, r1, #16
1000622e:	0c12      	lsrs	r2, r2, #16
10006230:	193c      	adds	r4, r7, r4
10006232:	1881      	adds	r1, r0, r2
10006234:	42a3      	cmp	r3, r4
10006236:	d200      	bcs.n	1000623a <__aeabi_ddiv+0x2d2>
10006238:	e0e5      	b.n	10006406 <__aeabi_ddiv+0x49e>
1000623a:	d100      	bne.n	1000623e <__aeabi_ddiv+0x2d6>
1000623c:	e0df      	b.n	100063fe <__aeabi_ddiv+0x496>
1000623e:	1b1f      	subs	r7, r3, r4
10006240:	4643      	mov	r3, r8
10006242:	1a5c      	subs	r4, r3, r1
10006244:	45a0      	cmp	r8, r4
10006246:	4192      	sbcs	r2, r2
10006248:	4252      	negs	r2, r2
1000624a:	1abf      	subs	r7, r7, r2
1000624c:	42b7      	cmp	r7, r6
1000624e:	d100      	bne.n	10006252 <__aeabi_ddiv+0x2ea>
10006250:	e10e      	b.n	10006470 <__aeabi_ddiv+0x508>
10006252:	1c38      	adds	r0, r7, #0
10006254:	4649      	mov	r1, r9
10006256:	f7fd fbd7 	bl	10003a08 <__aeabi_uidiv>
1000625a:	9b00      	ldr	r3, [sp, #0]
1000625c:	9002      	str	r0, [sp, #8]
1000625e:	4343      	muls	r3, r0
10006260:	4649      	mov	r1, r9
10006262:	1c38      	adds	r0, r7, #0
10006264:	4698      	mov	r8, r3
10006266:	f7fd fc55 	bl	10003b14 <__aeabi_uidivmod>
1000626a:	0c23      	lsrs	r3, r4, #16
1000626c:	040f      	lsls	r7, r1, #16
1000626e:	431f      	orrs	r7, r3
10006270:	45b8      	cmp	r8, r7
10006272:	d90c      	bls.n	1000628e <__aeabi_ddiv+0x326>
10006274:	9b02      	ldr	r3, [sp, #8]
10006276:	19bf      	adds	r7, r7, r6
10006278:	3b01      	subs	r3, #1
1000627a:	42be      	cmp	r6, r7
1000627c:	d900      	bls.n	10006280 <__aeabi_ddiv+0x318>
1000627e:	e0fb      	b.n	10006478 <__aeabi_ddiv+0x510>
10006280:	45b8      	cmp	r8, r7
10006282:	d800      	bhi.n	10006286 <__aeabi_ddiv+0x31e>
10006284:	e0f8      	b.n	10006478 <__aeabi_ddiv+0x510>
10006286:	9b02      	ldr	r3, [sp, #8]
10006288:	19bf      	adds	r7, r7, r6
1000628a:	3b02      	subs	r3, #2
1000628c:	9302      	str	r3, [sp, #8]
1000628e:	4643      	mov	r3, r8
10006290:	1aff      	subs	r7, r7, r3
10006292:	4649      	mov	r1, r9
10006294:	1c38      	adds	r0, r7, #0
10006296:	f7fd fbb7 	bl	10003a08 <__aeabi_uidiv>
1000629a:	9b00      	ldr	r3, [sp, #0]
1000629c:	9003      	str	r0, [sp, #12]
1000629e:	4343      	muls	r3, r0
100062a0:	4649      	mov	r1, r9
100062a2:	1c38      	adds	r0, r7, #0
100062a4:	4698      	mov	r8, r3
100062a6:	f7fd fc35 	bl	10003b14 <__aeabi_uidivmod>
100062aa:	0424      	lsls	r4, r4, #16
100062ac:	0409      	lsls	r1, r1, #16
100062ae:	0c24      	lsrs	r4, r4, #16
100062b0:	4321      	orrs	r1, r4
100062b2:	4588      	cmp	r8, r1
100062b4:	d90c      	bls.n	100062d0 <__aeabi_ddiv+0x368>
100062b6:	9b03      	ldr	r3, [sp, #12]
100062b8:	1989      	adds	r1, r1, r6
100062ba:	3b01      	subs	r3, #1
100062bc:	428e      	cmp	r6, r1
100062be:	d900      	bls.n	100062c2 <__aeabi_ddiv+0x35a>
100062c0:	e0dc      	b.n	1000647c <__aeabi_ddiv+0x514>
100062c2:	4588      	cmp	r8, r1
100062c4:	d800      	bhi.n	100062c8 <__aeabi_ddiv+0x360>
100062c6:	e0d9      	b.n	1000647c <__aeabi_ddiv+0x514>
100062c8:	9b03      	ldr	r3, [sp, #12]
100062ca:	1989      	adds	r1, r1, r6
100062cc:	3b02      	subs	r3, #2
100062ce:	9303      	str	r3, [sp, #12]
100062d0:	4643      	mov	r3, r8
100062d2:	1ac9      	subs	r1, r1, r3
100062d4:	9b02      	ldr	r3, [sp, #8]
100062d6:	9a03      	ldr	r2, [sp, #12]
100062d8:	041b      	lsls	r3, r3, #16
100062da:	9c05      	ldr	r4, [sp, #20]
100062dc:	431a      	orrs	r2, r3
100062de:	0c10      	lsrs	r0, r2, #16
100062e0:	0413      	lsls	r3, r2, #16
100062e2:	4691      	mov	r9, r2
100062e4:	1c22      	adds	r2, r4, #0
100062e6:	9f04      	ldr	r7, [sp, #16]
100062e8:	0c1b      	lsrs	r3, r3, #16
100062ea:	435a      	muls	r2, r3
100062ec:	4344      	muls	r4, r0
100062ee:	437b      	muls	r3, r7
100062f0:	4378      	muls	r0, r7
100062f2:	18e3      	adds	r3, r4, r3
100062f4:	0c17      	lsrs	r7, r2, #16
100062f6:	19db      	adds	r3, r3, r7
100062f8:	429c      	cmp	r4, r3
100062fa:	d903      	bls.n	10006304 <__aeabi_ddiv+0x39c>
100062fc:	2480      	movs	r4, #128	; 0x80
100062fe:	0264      	lsls	r4, r4, #9
10006300:	46a4      	mov	ip, r4
10006302:	4460      	add	r0, ip
10006304:	0c1c      	lsrs	r4, r3, #16
10006306:	0412      	lsls	r2, r2, #16
10006308:	041b      	lsls	r3, r3, #16
1000630a:	0c12      	lsrs	r2, r2, #16
1000630c:	1900      	adds	r0, r0, r4
1000630e:	189b      	adds	r3, r3, r2
10006310:	4281      	cmp	r1, r0
10006312:	d200      	bcs.n	10006316 <__aeabi_ddiv+0x3ae>
10006314:	e096      	b.n	10006444 <__aeabi_ddiv+0x4dc>
10006316:	d100      	bne.n	1000631a <__aeabi_ddiv+0x3b2>
10006318:	e0fc      	b.n	10006514 <__aeabi_ddiv+0x5ac>
1000631a:	464a      	mov	r2, r9
1000631c:	2301      	movs	r3, #1
1000631e:	431a      	orrs	r2, r3
10006320:	4691      	mov	r9, r2
10006322:	4b9b      	ldr	r3, [pc, #620]	; (10006590 <__aeabi_ddiv+0x628>)
10006324:	18eb      	adds	r3, r5, r3
10006326:	2b00      	cmp	r3, #0
10006328:	dc00      	bgt.n	1000632c <__aeabi_ddiv+0x3c4>
1000632a:	e099      	b.n	10006460 <__aeabi_ddiv+0x4f8>
1000632c:	464a      	mov	r2, r9
1000632e:	0752      	lsls	r2, r2, #29
10006330:	d00a      	beq.n	10006348 <__aeabi_ddiv+0x3e0>
10006332:	220f      	movs	r2, #15
10006334:	4649      	mov	r1, r9
10006336:	400a      	ands	r2, r1
10006338:	2a04      	cmp	r2, #4
1000633a:	d005      	beq.n	10006348 <__aeabi_ddiv+0x3e0>
1000633c:	3104      	adds	r1, #4
1000633e:	4549      	cmp	r1, r9
10006340:	4192      	sbcs	r2, r2
10006342:	4689      	mov	r9, r1
10006344:	4252      	negs	r2, r2
10006346:	4493      	add	fp, r2
10006348:	465a      	mov	r2, fp
1000634a:	01d2      	lsls	r2, r2, #7
1000634c:	d506      	bpl.n	1000635c <__aeabi_ddiv+0x3f4>
1000634e:	465a      	mov	r2, fp
10006350:	4b90      	ldr	r3, [pc, #576]	; (10006594 <__aeabi_ddiv+0x62c>)
10006352:	401a      	ands	r2, r3
10006354:	2380      	movs	r3, #128	; 0x80
10006356:	4693      	mov	fp, r2
10006358:	00db      	lsls	r3, r3, #3
1000635a:	18eb      	adds	r3, r5, r3
1000635c:	4a8e      	ldr	r2, [pc, #568]	; (10006598 <__aeabi_ddiv+0x630>)
1000635e:	4293      	cmp	r3, r2
10006360:	dd00      	ble.n	10006364 <__aeabi_ddiv+0x3fc>
10006362:	e662      	b.n	1000602a <__aeabi_ddiv+0xc2>
10006364:	464a      	mov	r2, r9
10006366:	4659      	mov	r1, fp
10006368:	08d2      	lsrs	r2, r2, #3
1000636a:	0749      	lsls	r1, r1, #29
1000636c:	4311      	orrs	r1, r2
1000636e:	465a      	mov	r2, fp
10006370:	4689      	mov	r9, r1
10006372:	0257      	lsls	r7, r2, #9
10006374:	4651      	mov	r1, sl
10006376:	2201      	movs	r2, #1
10006378:	055b      	lsls	r3, r3, #21
1000637a:	0b3f      	lsrs	r7, r7, #12
1000637c:	0d5b      	lsrs	r3, r3, #21
1000637e:	400a      	ands	r2, r1
10006380:	e65a      	b.n	10006038 <__aeabi_ddiv+0xd0>
10006382:	2080      	movs	r0, #128	; 0x80
10006384:	465a      	mov	r2, fp
10006386:	0300      	lsls	r0, r0, #12
10006388:	4202      	tst	r2, r0
1000638a:	d008      	beq.n	1000639e <__aeabi_ddiv+0x436>
1000638c:	4207      	tst	r7, r0
1000638e:	d106      	bne.n	1000639e <__aeabi_ddiv+0x436>
10006390:	4307      	orrs	r7, r0
10006392:	033f      	lsls	r7, r7, #12
10006394:	4699      	mov	r9, r3
10006396:	0b3f      	lsrs	r7, r7, #12
10006398:	4642      	mov	r2, r8
1000639a:	4b80      	ldr	r3, [pc, #512]	; (1000659c <__aeabi_ddiv+0x634>)
1000639c:	e64c      	b.n	10006038 <__aeabi_ddiv+0xd0>
1000639e:	465f      	mov	r7, fp
100063a0:	4307      	orrs	r7, r0
100063a2:	033f      	lsls	r7, r7, #12
100063a4:	0b3f      	lsrs	r7, r7, #12
100063a6:	1c22      	adds	r2, r4, #0
100063a8:	4b7c      	ldr	r3, [pc, #496]	; (1000659c <__aeabi_ddiv+0x634>)
100063aa:	e645      	b.n	10006038 <__aeabi_ddiv+0xd0>
100063ac:	f7fd fcae 	bl	10003d0c <__clzsi2>
100063b0:	1c03      	adds	r3, r0, #0
100063b2:	3020      	adds	r0, #32
100063b4:	2827      	cmp	r0, #39	; 0x27
100063b6:	dc00      	bgt.n	100063ba <__aeabi_ddiv+0x452>
100063b8:	e65e      	b.n	10006078 <__aeabi_ddiv+0x110>
100063ba:	3b08      	subs	r3, #8
100063bc:	409e      	lsls	r6, r3
100063be:	2300      	movs	r3, #0
100063c0:	46b3      	mov	fp, r6
100063c2:	4699      	mov	r9, r3
100063c4:	e665      	b.n	10006092 <__aeabi_ddiv+0x12a>
100063c6:	4650      	mov	r0, sl
100063c8:	f7fd fca0 	bl	10003d0c <__clzsi2>
100063cc:	1c02      	adds	r2, r0, #0
100063ce:	3220      	adds	r2, #32
100063d0:	2a27      	cmp	r2, #39	; 0x27
100063d2:	dc00      	bgt.n	100063d6 <__aeabi_ddiv+0x46e>
100063d4:	e675      	b.n	100060c2 <__aeabi_ddiv+0x15a>
100063d6:	4657      	mov	r7, sl
100063d8:	3808      	subs	r0, #8
100063da:	4087      	lsls	r7, r0
100063dc:	2300      	movs	r3, #0
100063de:	e67b      	b.n	100060d8 <__aeabi_ddiv+0x170>
100063e0:	4599      	cmp	r9, r3
100063e2:	d200      	bcs.n	100063e6 <__aeabi_ddiv+0x47e>
100063e4:	e6af      	b.n	10006146 <__aeabi_ddiv+0x1de>
100063e6:	465a      	mov	r2, fp
100063e8:	4659      	mov	r1, fp
100063ea:	0854      	lsrs	r4, r2, #1
100063ec:	464a      	mov	r2, r9
100063ee:	07c8      	lsls	r0, r1, #31
100063f0:	0852      	lsrs	r2, r2, #1
100063f2:	4302      	orrs	r2, r0
100063f4:	9203      	str	r2, [sp, #12]
100063f6:	464a      	mov	r2, r9
100063f8:	07d2      	lsls	r2, r2, #31
100063fa:	4690      	mov	r8, r2
100063fc:	e6a9      	b.n	10006152 <__aeabi_ddiv+0x1ea>
100063fe:	2700      	movs	r7, #0
10006400:	4588      	cmp	r8, r1
10006402:	d300      	bcc.n	10006406 <__aeabi_ddiv+0x49e>
10006404:	e71c      	b.n	10006240 <__aeabi_ddiv+0x2d8>
10006406:	9f01      	ldr	r7, [sp, #4]
10006408:	465a      	mov	r2, fp
1000640a:	46bc      	mov	ip, r7
1000640c:	44e0      	add	r8, ip
1000640e:	45b8      	cmp	r8, r7
10006410:	41bf      	sbcs	r7, r7
10006412:	427f      	negs	r7, r7
10006414:	19bf      	adds	r7, r7, r6
10006416:	18ff      	adds	r7, r7, r3
10006418:	3a01      	subs	r2, #1
1000641a:	42be      	cmp	r6, r7
1000641c:	d206      	bcs.n	1000642c <__aeabi_ddiv+0x4c4>
1000641e:	42bc      	cmp	r4, r7
10006420:	d85f      	bhi.n	100064e2 <__aeabi_ddiv+0x57a>
10006422:	d100      	bne.n	10006426 <__aeabi_ddiv+0x4be>
10006424:	e09f      	b.n	10006566 <__aeabi_ddiv+0x5fe>
10006426:	1b3f      	subs	r7, r7, r4
10006428:	4693      	mov	fp, r2
1000642a:	e709      	b.n	10006240 <__aeabi_ddiv+0x2d8>
1000642c:	42b7      	cmp	r7, r6
1000642e:	d1fa      	bne.n	10006426 <__aeabi_ddiv+0x4be>
10006430:	9b01      	ldr	r3, [sp, #4]
10006432:	4543      	cmp	r3, r8
10006434:	d9f3      	bls.n	1000641e <__aeabi_ddiv+0x4b6>
10006436:	1b37      	subs	r7, r6, r4
10006438:	4693      	mov	fp, r2
1000643a:	e701      	b.n	10006240 <__aeabi_ddiv+0x2d8>
1000643c:	4693      	mov	fp, r2
1000643e:	e6d4      	b.n	100061ea <__aeabi_ddiv+0x282>
10006440:	9302      	str	r3, [sp, #8]
10006442:	e6b1      	b.n	100061a8 <__aeabi_ddiv+0x240>
10006444:	464a      	mov	r2, r9
10006446:	1989      	adds	r1, r1, r6
10006448:	3a01      	subs	r2, #1
1000644a:	428e      	cmp	r6, r1
1000644c:	d918      	bls.n	10006480 <__aeabi_ddiv+0x518>
1000644e:	4691      	mov	r9, r2
10006450:	4281      	cmp	r1, r0
10006452:	d000      	beq.n	10006456 <__aeabi_ddiv+0x4ee>
10006454:	e761      	b.n	1000631a <__aeabi_ddiv+0x3b2>
10006456:	9a01      	ldr	r2, [sp, #4]
10006458:	429a      	cmp	r2, r3
1000645a:	d000      	beq.n	1000645e <__aeabi_ddiv+0x4f6>
1000645c:	e75d      	b.n	1000631a <__aeabi_ddiv+0x3b2>
1000645e:	e760      	b.n	10006322 <__aeabi_ddiv+0x3ba>
10006460:	4f4f      	ldr	r7, [pc, #316]	; (100065a0 <__aeabi_ddiv+0x638>)
10006462:	1b7f      	subs	r7, r7, r5
10006464:	2f38      	cmp	r7, #56	; 0x38
10006466:	dd13      	ble.n	10006490 <__aeabi_ddiv+0x528>
10006468:	2201      	movs	r2, #1
1000646a:	4653      	mov	r3, sl
1000646c:	401a      	ands	r2, r3
1000646e:	e64f      	b.n	10006110 <__aeabi_ddiv+0x1a8>
10006470:	2301      	movs	r3, #1
10006472:	425b      	negs	r3, r3
10006474:	4699      	mov	r9, r3
10006476:	e754      	b.n	10006322 <__aeabi_ddiv+0x3ba>
10006478:	9302      	str	r3, [sp, #8]
1000647a:	e708      	b.n	1000628e <__aeabi_ddiv+0x326>
1000647c:	9303      	str	r3, [sp, #12]
1000647e:	e727      	b.n	100062d0 <__aeabi_ddiv+0x368>
10006480:	4288      	cmp	r0, r1
10006482:	d83c      	bhi.n	100064fe <__aeabi_ddiv+0x596>
10006484:	d074      	beq.n	10006570 <__aeabi_ddiv+0x608>
10006486:	4691      	mov	r9, r2
10006488:	e747      	b.n	1000631a <__aeabi_ddiv+0x3b2>
1000648a:	9b01      	ldr	r3, [sp, #4]
1000648c:	469a      	mov	sl, r3
1000648e:	e748      	b.n	10006322 <__aeabi_ddiv+0x3ba>
10006490:	2f1f      	cmp	r7, #31
10006492:	dc44      	bgt.n	1000651e <__aeabi_ddiv+0x5b6>
10006494:	4b43      	ldr	r3, [pc, #268]	; (100065a4 <__aeabi_ddiv+0x63c>)
10006496:	464a      	mov	r2, r9
10006498:	469c      	mov	ip, r3
1000649a:	465b      	mov	r3, fp
1000649c:	4465      	add	r5, ip
1000649e:	40fa      	lsrs	r2, r7
100064a0:	40ab      	lsls	r3, r5
100064a2:	4313      	orrs	r3, r2
100064a4:	464a      	mov	r2, r9
100064a6:	40aa      	lsls	r2, r5
100064a8:	1c15      	adds	r5, r2, #0
100064aa:	1e6a      	subs	r2, r5, #1
100064ac:	4195      	sbcs	r5, r2
100064ae:	465a      	mov	r2, fp
100064b0:	40fa      	lsrs	r2, r7
100064b2:	432b      	orrs	r3, r5
100064b4:	1c17      	adds	r7, r2, #0
100064b6:	075a      	lsls	r2, r3, #29
100064b8:	d009      	beq.n	100064ce <__aeabi_ddiv+0x566>
100064ba:	220f      	movs	r2, #15
100064bc:	401a      	ands	r2, r3
100064be:	2a04      	cmp	r2, #4
100064c0:	d005      	beq.n	100064ce <__aeabi_ddiv+0x566>
100064c2:	1d1a      	adds	r2, r3, #4
100064c4:	429a      	cmp	r2, r3
100064c6:	419b      	sbcs	r3, r3
100064c8:	425b      	negs	r3, r3
100064ca:	18ff      	adds	r7, r7, r3
100064cc:	1c13      	adds	r3, r2, #0
100064ce:	023a      	lsls	r2, r7, #8
100064d0:	d53e      	bpl.n	10006550 <__aeabi_ddiv+0x5e8>
100064d2:	4653      	mov	r3, sl
100064d4:	2201      	movs	r2, #1
100064d6:	2100      	movs	r1, #0
100064d8:	401a      	ands	r2, r3
100064da:	2700      	movs	r7, #0
100064dc:	2301      	movs	r3, #1
100064de:	4689      	mov	r9, r1
100064e0:	e5aa      	b.n	10006038 <__aeabi_ddiv+0xd0>
100064e2:	2302      	movs	r3, #2
100064e4:	425b      	negs	r3, r3
100064e6:	469c      	mov	ip, r3
100064e8:	9a01      	ldr	r2, [sp, #4]
100064ea:	44e3      	add	fp, ip
100064ec:	4694      	mov	ip, r2
100064ee:	44e0      	add	r8, ip
100064f0:	4590      	cmp	r8, r2
100064f2:	419b      	sbcs	r3, r3
100064f4:	425b      	negs	r3, r3
100064f6:	199b      	adds	r3, r3, r6
100064f8:	19df      	adds	r7, r3, r7
100064fa:	1b3f      	subs	r7, r7, r4
100064fc:	e6a0      	b.n	10006240 <__aeabi_ddiv+0x2d8>
100064fe:	9f01      	ldr	r7, [sp, #4]
10006500:	464a      	mov	r2, r9
10006502:	007c      	lsls	r4, r7, #1
10006504:	42bc      	cmp	r4, r7
10006506:	41bf      	sbcs	r7, r7
10006508:	427f      	negs	r7, r7
1000650a:	19bf      	adds	r7, r7, r6
1000650c:	3a02      	subs	r2, #2
1000650e:	19c9      	adds	r1, r1, r7
10006510:	9401      	str	r4, [sp, #4]
10006512:	e79c      	b.n	1000644e <__aeabi_ddiv+0x4e6>
10006514:	2b00      	cmp	r3, #0
10006516:	d195      	bne.n	10006444 <__aeabi_ddiv+0x4dc>
10006518:	2200      	movs	r2, #0
1000651a:	9201      	str	r2, [sp, #4]
1000651c:	e79b      	b.n	10006456 <__aeabi_ddiv+0x4ee>
1000651e:	465a      	mov	r2, fp
10006520:	4b21      	ldr	r3, [pc, #132]	; (100065a8 <__aeabi_ddiv+0x640>)
10006522:	1b5b      	subs	r3, r3, r5
10006524:	40da      	lsrs	r2, r3
10006526:	2f20      	cmp	r7, #32
10006528:	d027      	beq.n	1000657a <__aeabi_ddiv+0x612>
1000652a:	4b20      	ldr	r3, [pc, #128]	; (100065ac <__aeabi_ddiv+0x644>)
1000652c:	469c      	mov	ip, r3
1000652e:	465b      	mov	r3, fp
10006530:	4465      	add	r5, ip
10006532:	40ab      	lsls	r3, r5
10006534:	4649      	mov	r1, r9
10006536:	430b      	orrs	r3, r1
10006538:	1e59      	subs	r1, r3, #1
1000653a:	418b      	sbcs	r3, r1
1000653c:	4313      	orrs	r3, r2
1000653e:	2207      	movs	r2, #7
10006540:	2700      	movs	r7, #0
10006542:	401a      	ands	r2, r3
10006544:	d007      	beq.n	10006556 <__aeabi_ddiv+0x5ee>
10006546:	220f      	movs	r2, #15
10006548:	2700      	movs	r7, #0
1000654a:	401a      	ands	r2, r3
1000654c:	2a04      	cmp	r2, #4
1000654e:	d1b8      	bne.n	100064c2 <__aeabi_ddiv+0x55a>
10006550:	077a      	lsls	r2, r7, #29
10006552:	027f      	lsls	r7, r7, #9
10006554:	0b3f      	lsrs	r7, r7, #12
10006556:	08db      	lsrs	r3, r3, #3
10006558:	4313      	orrs	r3, r2
1000655a:	4699      	mov	r9, r3
1000655c:	2201      	movs	r2, #1
1000655e:	4653      	mov	r3, sl
10006560:	401a      	ands	r2, r3
10006562:	2300      	movs	r3, #0
10006564:	e568      	b.n	10006038 <__aeabi_ddiv+0xd0>
10006566:	4541      	cmp	r1, r8
10006568:	d8bb      	bhi.n	100064e2 <__aeabi_ddiv+0x57a>
1000656a:	4693      	mov	fp, r2
1000656c:	2700      	movs	r7, #0
1000656e:	e667      	b.n	10006240 <__aeabi_ddiv+0x2d8>
10006570:	9c01      	ldr	r4, [sp, #4]
10006572:	429c      	cmp	r4, r3
10006574:	d3c3      	bcc.n	100064fe <__aeabi_ddiv+0x596>
10006576:	4691      	mov	r9, r2
10006578:	e76d      	b.n	10006456 <__aeabi_ddiv+0x4ee>
1000657a:	2300      	movs	r3, #0
1000657c:	e7da      	b.n	10006534 <__aeabi_ddiv+0x5cc>
1000657e:	2780      	movs	r7, #128	; 0x80
10006580:	465b      	mov	r3, fp
10006582:	033f      	lsls	r7, r7, #12
10006584:	431f      	orrs	r7, r3
10006586:	033f      	lsls	r7, r7, #12
10006588:	0b3f      	lsrs	r7, r7, #12
1000658a:	9a01      	ldr	r2, [sp, #4]
1000658c:	4b03      	ldr	r3, [pc, #12]	; (1000659c <__aeabi_ddiv+0x634>)
1000658e:	e553      	b.n	10006038 <__aeabi_ddiv+0xd0>
10006590:	000003ff 	.word	0x000003ff
10006594:	feffffff 	.word	0xfeffffff
10006598:	000007fe 	.word	0x000007fe
1000659c:	000007ff 	.word	0x000007ff
100065a0:	fffffc02 	.word	0xfffffc02
100065a4:	0000041e 	.word	0x0000041e
100065a8:	fffffbe2 	.word	0xfffffbe2
100065ac:	0000043e 	.word	0x0000043e

100065b0 <__eqdf2>:
100065b0:	b5f0      	push	{r4, r5, r6, r7, lr}
100065b2:	465f      	mov	r7, fp
100065b4:	464d      	mov	r5, r9
100065b6:	4644      	mov	r4, r8
100065b8:	4656      	mov	r6, sl
100065ba:	b4f0      	push	{r4, r5, r6, r7}
100065bc:	031f      	lsls	r7, r3, #12
100065be:	005c      	lsls	r4, r3, #1
100065c0:	0fdb      	lsrs	r3, r3, #31
100065c2:	4699      	mov	r9, r3
100065c4:	4b1b      	ldr	r3, [pc, #108]	; (10006634 <__eqdf2+0x84>)
100065c6:	030e      	lsls	r6, r1, #12
100065c8:	004d      	lsls	r5, r1, #1
100065ca:	0fc9      	lsrs	r1, r1, #31
100065cc:	4684      	mov	ip, r0
100065ce:	0b36      	lsrs	r6, r6, #12
100065d0:	0d6d      	lsrs	r5, r5, #21
100065d2:	468b      	mov	fp, r1
100065d4:	4690      	mov	r8, r2
100065d6:	0b3f      	lsrs	r7, r7, #12
100065d8:	0d64      	lsrs	r4, r4, #21
100065da:	429d      	cmp	r5, r3
100065dc:	d00c      	beq.n	100065f8 <__eqdf2+0x48>
100065de:	4b15      	ldr	r3, [pc, #84]	; (10006634 <__eqdf2+0x84>)
100065e0:	429c      	cmp	r4, r3
100065e2:	d010      	beq.n	10006606 <__eqdf2+0x56>
100065e4:	2301      	movs	r3, #1
100065e6:	42a5      	cmp	r5, r4
100065e8:	d014      	beq.n	10006614 <__eqdf2+0x64>
100065ea:	1c18      	adds	r0, r3, #0
100065ec:	bc3c      	pop	{r2, r3, r4, r5}
100065ee:	4690      	mov	r8, r2
100065f0:	4699      	mov	r9, r3
100065f2:	46a2      	mov	sl, r4
100065f4:	46ab      	mov	fp, r5
100065f6:	bdf0      	pop	{r4, r5, r6, r7, pc}
100065f8:	1c31      	adds	r1, r6, #0
100065fa:	2301      	movs	r3, #1
100065fc:	4301      	orrs	r1, r0
100065fe:	d1f4      	bne.n	100065ea <__eqdf2+0x3a>
10006600:	4b0c      	ldr	r3, [pc, #48]	; (10006634 <__eqdf2+0x84>)
10006602:	429c      	cmp	r4, r3
10006604:	d1ee      	bne.n	100065e4 <__eqdf2+0x34>
10006606:	433a      	orrs	r2, r7
10006608:	2301      	movs	r3, #1
1000660a:	2a00      	cmp	r2, #0
1000660c:	d1ed      	bne.n	100065ea <__eqdf2+0x3a>
1000660e:	2301      	movs	r3, #1
10006610:	42a5      	cmp	r5, r4
10006612:	d1ea      	bne.n	100065ea <__eqdf2+0x3a>
10006614:	42be      	cmp	r6, r7
10006616:	d1e8      	bne.n	100065ea <__eqdf2+0x3a>
10006618:	45c4      	cmp	ip, r8
1000661a:	d1e6      	bne.n	100065ea <__eqdf2+0x3a>
1000661c:	45cb      	cmp	fp, r9
1000661e:	d006      	beq.n	1000662e <__eqdf2+0x7e>
10006620:	2d00      	cmp	r5, #0
10006622:	d1e2      	bne.n	100065ea <__eqdf2+0x3a>
10006624:	4330      	orrs	r0, r6
10006626:	1c03      	adds	r3, r0, #0
10006628:	1e58      	subs	r0, r3, #1
1000662a:	4183      	sbcs	r3, r0
1000662c:	e7dd      	b.n	100065ea <__eqdf2+0x3a>
1000662e:	2300      	movs	r3, #0
10006630:	e7db      	b.n	100065ea <__eqdf2+0x3a>
10006632:	46c0      	nop			; (mov r8, r8)
10006634:	000007ff 	.word	0x000007ff

10006638 <__gedf2>:
10006638:	b5f0      	push	{r4, r5, r6, r7, lr}
1000663a:	4657      	mov	r7, sl
1000663c:	4645      	mov	r5, r8
1000663e:	464e      	mov	r6, r9
10006640:	b4e0      	push	{r5, r6, r7}
10006642:	030f      	lsls	r7, r1, #12
10006644:	004e      	lsls	r6, r1, #1
10006646:	0fc9      	lsrs	r1, r1, #31
10006648:	468a      	mov	sl, r1
1000664a:	4932      	ldr	r1, [pc, #200]	; (10006714 <__gedf2+0xdc>)
1000664c:	031d      	lsls	r5, r3, #12
1000664e:	005c      	lsls	r4, r3, #1
10006650:	4684      	mov	ip, r0
10006652:	0b3f      	lsrs	r7, r7, #12
10006654:	0d76      	lsrs	r6, r6, #21
10006656:	4690      	mov	r8, r2
10006658:	0b2d      	lsrs	r5, r5, #12
1000665a:	0d64      	lsrs	r4, r4, #21
1000665c:	0fdb      	lsrs	r3, r3, #31
1000665e:	428e      	cmp	r6, r1
10006660:	d00f      	beq.n	10006682 <__gedf2+0x4a>
10006662:	428c      	cmp	r4, r1
10006664:	d039      	beq.n	100066da <__gedf2+0xa2>
10006666:	2e00      	cmp	r6, #0
10006668:	d110      	bne.n	1000668c <__gedf2+0x54>
1000666a:	4338      	orrs	r0, r7
1000666c:	4241      	negs	r1, r0
1000666e:	4141      	adcs	r1, r0
10006670:	4689      	mov	r9, r1
10006672:	2c00      	cmp	r4, #0
10006674:	d127      	bne.n	100066c6 <__gedf2+0x8e>
10006676:	432a      	orrs	r2, r5
10006678:	d125      	bne.n	100066c6 <__gedf2+0x8e>
1000667a:	2000      	movs	r0, #0
1000667c:	2900      	cmp	r1, #0
1000667e:	d10e      	bne.n	1000669e <__gedf2+0x66>
10006680:	e008      	b.n	10006694 <__gedf2+0x5c>
10006682:	1c39      	adds	r1, r7, #0
10006684:	4301      	orrs	r1, r0
10006686:	d12e      	bne.n	100066e6 <__gedf2+0xae>
10006688:	42b4      	cmp	r4, r6
1000668a:	d026      	beq.n	100066da <__gedf2+0xa2>
1000668c:	2c00      	cmp	r4, #0
1000668e:	d00b      	beq.n	100066a8 <__gedf2+0x70>
10006690:	459a      	cmp	sl, r3
10006692:	d00d      	beq.n	100066b0 <__gedf2+0x78>
10006694:	4653      	mov	r3, sl
10006696:	4259      	negs	r1, r3
10006698:	2301      	movs	r3, #1
1000669a:	4319      	orrs	r1, r3
1000669c:	1c08      	adds	r0, r1, #0
1000669e:	bc1c      	pop	{r2, r3, r4}
100066a0:	4690      	mov	r8, r2
100066a2:	4699      	mov	r9, r3
100066a4:	46a2      	mov	sl, r4
100066a6:	bdf0      	pop	{r4, r5, r6, r7, pc}
100066a8:	432a      	orrs	r2, r5
100066aa:	d0f3      	beq.n	10006694 <__gedf2+0x5c>
100066ac:	459a      	cmp	sl, r3
100066ae:	d1f1      	bne.n	10006694 <__gedf2+0x5c>
100066b0:	42a6      	cmp	r6, r4
100066b2:	dcef      	bgt.n	10006694 <__gedf2+0x5c>
100066b4:	da1a      	bge.n	100066ec <__gedf2+0xb4>
100066b6:	4650      	mov	r0, sl
100066b8:	4241      	negs	r1, r0
100066ba:	4148      	adcs	r0, r1
100066bc:	2301      	movs	r3, #1
100066be:	4241      	negs	r1, r0
100066c0:	4319      	orrs	r1, r3
100066c2:	1c08      	adds	r0, r1, #0
100066c4:	e7eb      	b.n	1000669e <__gedf2+0x66>
100066c6:	464a      	mov	r2, r9
100066c8:	2a00      	cmp	r2, #0
100066ca:	d0e1      	beq.n	10006690 <__gedf2+0x58>
100066cc:	4258      	negs	r0, r3
100066ce:	4158      	adcs	r0, r3
100066d0:	2201      	movs	r2, #1
100066d2:	4241      	negs	r1, r0
100066d4:	4311      	orrs	r1, r2
100066d6:	1c08      	adds	r0, r1, #0
100066d8:	e7e1      	b.n	1000669e <__gedf2+0x66>
100066da:	1c29      	adds	r1, r5, #0
100066dc:	4311      	orrs	r1, r2
100066de:	d102      	bne.n	100066e6 <__gedf2+0xae>
100066e0:	2e00      	cmp	r6, #0
100066e2:	d0c2      	beq.n	1000666a <__gedf2+0x32>
100066e4:	e7d4      	b.n	10006690 <__gedf2+0x58>
100066e6:	2002      	movs	r0, #2
100066e8:	4240      	negs	r0, r0
100066ea:	e7d8      	b.n	1000669e <__gedf2+0x66>
100066ec:	42af      	cmp	r7, r5
100066ee:	d8d1      	bhi.n	10006694 <__gedf2+0x5c>
100066f0:	d009      	beq.n	10006706 <__gedf2+0xce>
100066f2:	2000      	movs	r0, #0
100066f4:	42af      	cmp	r7, r5
100066f6:	d2d2      	bcs.n	1000669e <__gedf2+0x66>
100066f8:	4650      	mov	r0, sl
100066fa:	4241      	negs	r1, r0
100066fc:	4148      	adcs	r0, r1
100066fe:	2301      	movs	r3, #1
10006700:	4240      	negs	r0, r0
10006702:	4318      	orrs	r0, r3
10006704:	e7cb      	b.n	1000669e <__gedf2+0x66>
10006706:	45c4      	cmp	ip, r8
10006708:	d8c4      	bhi.n	10006694 <__gedf2+0x5c>
1000670a:	2000      	movs	r0, #0
1000670c:	45c4      	cmp	ip, r8
1000670e:	d3f3      	bcc.n	100066f8 <__gedf2+0xc0>
10006710:	e7c5      	b.n	1000669e <__gedf2+0x66>
10006712:	46c0      	nop			; (mov r8, r8)
10006714:	000007ff 	.word	0x000007ff

10006718 <__ledf2>:
10006718:	b5f0      	push	{r4, r5, r6, r7, lr}
1000671a:	465f      	mov	r7, fp
1000671c:	464d      	mov	r5, r9
1000671e:	4644      	mov	r4, r8
10006720:	4656      	mov	r6, sl
10006722:	4680      	mov	r8, r0
10006724:	b4f0      	push	{r4, r5, r6, r7}
10006726:	1c06      	adds	r6, r0, #0
10006728:	0308      	lsls	r0, r1, #12
1000672a:	0b00      	lsrs	r0, r0, #12
1000672c:	4684      	mov	ip, r0
1000672e:	482c      	ldr	r0, [pc, #176]	; (100067e0 <__ledf2+0xc8>)
10006730:	004c      	lsls	r4, r1, #1
10006732:	031f      	lsls	r7, r3, #12
10006734:	005d      	lsls	r5, r3, #1
10006736:	0fc9      	lsrs	r1, r1, #31
10006738:	0d64      	lsrs	r4, r4, #21
1000673a:	468b      	mov	fp, r1
1000673c:	4691      	mov	r9, r2
1000673e:	0b3f      	lsrs	r7, r7, #12
10006740:	0d6d      	lsrs	r5, r5, #21
10006742:	0fdb      	lsrs	r3, r3, #31
10006744:	4284      	cmp	r4, r0
10006746:	d012      	beq.n	1000676e <__ledf2+0x56>
10006748:	4285      	cmp	r5, r0
1000674a:	d025      	beq.n	10006798 <__ledf2+0x80>
1000674c:	2c00      	cmp	r4, #0
1000674e:	d114      	bne.n	1000677a <__ledf2+0x62>
10006750:	4661      	mov	r1, ip
10006752:	430e      	orrs	r6, r1
10006754:	4270      	negs	r0, r6
10006756:	4146      	adcs	r6, r0
10006758:	2d00      	cmp	r5, #0
1000675a:	d035      	beq.n	100067c8 <__ledf2+0xb0>
1000675c:	2e00      	cmp	r6, #0
1000675e:	d021      	beq.n	100067a4 <__ledf2+0x8c>
10006760:	4258      	negs	r0, r3
10006762:	4158      	adcs	r0, r3
10006764:	2101      	movs	r1, #1
10006766:	4243      	negs	r3, r0
10006768:	430b      	orrs	r3, r1
1000676a:	1c18      	adds	r0, r3, #0
1000676c:	e00e      	b.n	1000678c <__ledf2+0x74>
1000676e:	4661      	mov	r1, ip
10006770:	2002      	movs	r0, #2
10006772:	4331      	orrs	r1, r6
10006774:	d10a      	bne.n	1000678c <__ledf2+0x74>
10006776:	42a5      	cmp	r5, r4
10006778:	d00e      	beq.n	10006798 <__ledf2+0x80>
1000677a:	2d00      	cmp	r5, #0
1000677c:	d112      	bne.n	100067a4 <__ledf2+0x8c>
1000677e:	433a      	orrs	r2, r7
10006780:	d110      	bne.n	100067a4 <__ledf2+0x8c>
10006782:	465b      	mov	r3, fp
10006784:	4259      	negs	r1, r3
10006786:	2301      	movs	r3, #1
10006788:	4319      	orrs	r1, r3
1000678a:	1c08      	adds	r0, r1, #0
1000678c:	bc3c      	pop	{r2, r3, r4, r5}
1000678e:	4690      	mov	r8, r2
10006790:	4699      	mov	r9, r3
10006792:	46a2      	mov	sl, r4
10006794:	46ab      	mov	fp, r5
10006796:	bdf0      	pop	{r4, r5, r6, r7, pc}
10006798:	1c39      	adds	r1, r7, #0
1000679a:	2002      	movs	r0, #2
1000679c:	4311      	orrs	r1, r2
1000679e:	d1f5      	bne.n	1000678c <__ledf2+0x74>
100067a0:	2c00      	cmp	r4, #0
100067a2:	d0d5      	beq.n	10006750 <__ledf2+0x38>
100067a4:	459b      	cmp	fp, r3
100067a6:	d1ec      	bne.n	10006782 <__ledf2+0x6a>
100067a8:	42ac      	cmp	r4, r5
100067aa:	dcea      	bgt.n	10006782 <__ledf2+0x6a>
100067ac:	db05      	blt.n	100067ba <__ledf2+0xa2>
100067ae:	45bc      	cmp	ip, r7
100067b0:	d8e7      	bhi.n	10006782 <__ledf2+0x6a>
100067b2:	d00f      	beq.n	100067d4 <__ledf2+0xbc>
100067b4:	2000      	movs	r0, #0
100067b6:	45bc      	cmp	ip, r7
100067b8:	d2e8      	bcs.n	1000678c <__ledf2+0x74>
100067ba:	4658      	mov	r0, fp
100067bc:	4241      	negs	r1, r0
100067be:	4148      	adcs	r0, r1
100067c0:	4241      	negs	r1, r0
100067c2:	2001      	movs	r0, #1
100067c4:	4308      	orrs	r0, r1
100067c6:	e7e1      	b.n	1000678c <__ledf2+0x74>
100067c8:	433a      	orrs	r2, r7
100067ca:	d1c7      	bne.n	1000675c <__ledf2+0x44>
100067cc:	2000      	movs	r0, #0
100067ce:	2e00      	cmp	r6, #0
100067d0:	d1dc      	bne.n	1000678c <__ledf2+0x74>
100067d2:	e7d6      	b.n	10006782 <__ledf2+0x6a>
100067d4:	45c8      	cmp	r8, r9
100067d6:	d8d4      	bhi.n	10006782 <__ledf2+0x6a>
100067d8:	2000      	movs	r0, #0
100067da:	45c8      	cmp	r8, r9
100067dc:	d3ed      	bcc.n	100067ba <__ledf2+0xa2>
100067de:	e7d5      	b.n	1000678c <__ledf2+0x74>
100067e0:	000007ff 	.word	0x000007ff

100067e4 <__aeabi_dmul>:
100067e4:	b5f0      	push	{r4, r5, r6, r7, lr}
100067e6:	465f      	mov	r7, fp
100067e8:	4656      	mov	r6, sl
100067ea:	464d      	mov	r5, r9
100067ec:	4644      	mov	r4, r8
100067ee:	b4f0      	push	{r4, r5, r6, r7}
100067f0:	1c05      	adds	r5, r0, #0
100067f2:	1c06      	adds	r6, r0, #0
100067f4:	0308      	lsls	r0, r1, #12
100067f6:	b087      	sub	sp, #28
100067f8:	4699      	mov	r9, r3
100067fa:	004f      	lsls	r7, r1, #1
100067fc:	0b03      	lsrs	r3, r0, #12
100067fe:	0fcc      	lsrs	r4, r1, #31
10006800:	4692      	mov	sl, r2
10006802:	469b      	mov	fp, r3
10006804:	0d7f      	lsrs	r7, r7, #21
10006806:	9401      	str	r4, [sp, #4]
10006808:	d067      	beq.n	100068da <__aeabi_dmul+0xf6>
1000680a:	4b6c      	ldr	r3, [pc, #432]	; (100069bc <__aeabi_dmul+0x1d8>)
1000680c:	429f      	cmp	r7, r3
1000680e:	d036      	beq.n	1000687e <__aeabi_dmul+0x9a>
10006810:	2080      	movs	r0, #128	; 0x80
10006812:	465b      	mov	r3, fp
10006814:	0340      	lsls	r0, r0, #13
10006816:	4318      	orrs	r0, r3
10006818:	00c0      	lsls	r0, r0, #3
1000681a:	0f6b      	lsrs	r3, r5, #29
1000681c:	4318      	orrs	r0, r3
1000681e:	4b68      	ldr	r3, [pc, #416]	; (100069c0 <__aeabi_dmul+0x1dc>)
10006820:	4683      	mov	fp, r0
10006822:	469c      	mov	ip, r3
10006824:	2300      	movs	r3, #0
10006826:	4698      	mov	r8, r3
10006828:	00ee      	lsls	r6, r5, #3
1000682a:	4467      	add	r7, ip
1000682c:	9300      	str	r3, [sp, #0]
1000682e:	464b      	mov	r3, r9
10006830:	4649      	mov	r1, r9
10006832:	031d      	lsls	r5, r3, #12
10006834:	0fc9      	lsrs	r1, r1, #31
10006836:	005b      	lsls	r3, r3, #1
10006838:	4652      	mov	r2, sl
1000683a:	0b2d      	lsrs	r5, r5, #12
1000683c:	0d5b      	lsrs	r3, r3, #21
1000683e:	4689      	mov	r9, r1
10006840:	d100      	bne.n	10006844 <__aeabi_dmul+0x60>
10006842:	e06e      	b.n	10006922 <__aeabi_dmul+0x13e>
10006844:	495d      	ldr	r1, [pc, #372]	; (100069bc <__aeabi_dmul+0x1d8>)
10006846:	428b      	cmp	r3, r1
10006848:	d064      	beq.n	10006914 <__aeabi_dmul+0x130>
1000684a:	2080      	movs	r0, #128	; 0x80
1000684c:	495c      	ldr	r1, [pc, #368]	; (100069c0 <__aeabi_dmul+0x1dc>)
1000684e:	0340      	lsls	r0, r0, #13
10006850:	468c      	mov	ip, r1
10006852:	2100      	movs	r1, #0
10006854:	4305      	orrs	r5, r0
10006856:	00ed      	lsls	r5, r5, #3
10006858:	0f50      	lsrs	r0, r2, #29
1000685a:	4305      	orrs	r5, r0
1000685c:	00d2      	lsls	r2, r2, #3
1000685e:	4463      	add	r3, ip
10006860:	4648      	mov	r0, r9
10006862:	18ff      	adds	r7, r7, r3
10006864:	1c7b      	adds	r3, r7, #1
10006866:	469a      	mov	sl, r3
10006868:	9b00      	ldr	r3, [sp, #0]
1000686a:	4060      	eors	r0, r4
1000686c:	9002      	str	r0, [sp, #8]
1000686e:	430b      	orrs	r3, r1
10006870:	2b0f      	cmp	r3, #15
10006872:	d900      	bls.n	10006876 <__aeabi_dmul+0x92>
10006874:	e0ac      	b.n	100069d0 <__aeabi_dmul+0x1ec>
10006876:	4853      	ldr	r0, [pc, #332]	; (100069c4 <__aeabi_dmul+0x1e0>)
10006878:	009b      	lsls	r3, r3, #2
1000687a:	58c3      	ldr	r3, [r0, r3]
1000687c:	469f      	mov	pc, r3
1000687e:	465b      	mov	r3, fp
10006880:	431d      	orrs	r5, r3
10006882:	d000      	beq.n	10006886 <__aeabi_dmul+0xa2>
10006884:	e082      	b.n	1000698c <__aeabi_dmul+0x1a8>
10006886:	2308      	movs	r3, #8
10006888:	9300      	str	r3, [sp, #0]
1000688a:	2300      	movs	r3, #0
1000688c:	469b      	mov	fp, r3
1000688e:	3302      	adds	r3, #2
10006890:	2600      	movs	r6, #0
10006892:	4698      	mov	r8, r3
10006894:	e7cb      	b.n	1000682e <__aeabi_dmul+0x4a>
10006896:	9b02      	ldr	r3, [sp, #8]
10006898:	9301      	str	r3, [sp, #4]
1000689a:	4643      	mov	r3, r8
1000689c:	2b02      	cmp	r3, #2
1000689e:	d159      	bne.n	10006954 <__aeabi_dmul+0x170>
100068a0:	2401      	movs	r4, #1
100068a2:	2500      	movs	r5, #0
100068a4:	2600      	movs	r6, #0
100068a6:	9b01      	ldr	r3, [sp, #4]
100068a8:	401c      	ands	r4, r3
100068aa:	4b44      	ldr	r3, [pc, #272]	; (100069bc <__aeabi_dmul+0x1d8>)
100068ac:	2100      	movs	r1, #0
100068ae:	032d      	lsls	r5, r5, #12
100068b0:	0d0a      	lsrs	r2, r1, #20
100068b2:	0512      	lsls	r2, r2, #20
100068b4:	0b2d      	lsrs	r5, r5, #12
100068b6:	4315      	orrs	r5, r2
100068b8:	4a43      	ldr	r2, [pc, #268]	; (100069c8 <__aeabi_dmul+0x1e4>)
100068ba:	051b      	lsls	r3, r3, #20
100068bc:	4015      	ands	r5, r2
100068be:	431d      	orrs	r5, r3
100068c0:	006d      	lsls	r5, r5, #1
100068c2:	07e4      	lsls	r4, r4, #31
100068c4:	086d      	lsrs	r5, r5, #1
100068c6:	4325      	orrs	r5, r4
100068c8:	1c30      	adds	r0, r6, #0
100068ca:	1c29      	adds	r1, r5, #0
100068cc:	b007      	add	sp, #28
100068ce:	bc3c      	pop	{r2, r3, r4, r5}
100068d0:	4690      	mov	r8, r2
100068d2:	4699      	mov	r9, r3
100068d4:	46a2      	mov	sl, r4
100068d6:	46ab      	mov	fp, r5
100068d8:	bdf0      	pop	{r4, r5, r6, r7, pc}
100068da:	432b      	orrs	r3, r5
100068dc:	d04e      	beq.n	1000697c <__aeabi_dmul+0x198>
100068de:	465b      	mov	r3, fp
100068e0:	2b00      	cmp	r3, #0
100068e2:	d100      	bne.n	100068e6 <__aeabi_dmul+0x102>
100068e4:	e185      	b.n	10006bf2 <__aeabi_dmul+0x40e>
100068e6:	4658      	mov	r0, fp
100068e8:	f7fd fa10 	bl	10003d0c <__clzsi2>
100068ec:	1c02      	adds	r2, r0, #0
100068ee:	2328      	movs	r3, #40	; 0x28
100068f0:	1c29      	adds	r1, r5, #0
100068f2:	1a9b      	subs	r3, r3, r2
100068f4:	1c16      	adds	r6, r2, #0
100068f6:	4658      	mov	r0, fp
100068f8:	40d9      	lsrs	r1, r3
100068fa:	3e08      	subs	r6, #8
100068fc:	40b0      	lsls	r0, r6
100068fe:	1c0b      	adds	r3, r1, #0
10006900:	40b5      	lsls	r5, r6
10006902:	4303      	orrs	r3, r0
10006904:	469b      	mov	fp, r3
10006906:	1c2e      	adds	r6, r5, #0
10006908:	2300      	movs	r3, #0
1000690a:	4f30      	ldr	r7, [pc, #192]	; (100069cc <__aeabi_dmul+0x1e8>)
1000690c:	9300      	str	r3, [sp, #0]
1000690e:	1abf      	subs	r7, r7, r2
10006910:	4698      	mov	r8, r3
10006912:	e78c      	b.n	1000682e <__aeabi_dmul+0x4a>
10006914:	4651      	mov	r1, sl
10006916:	4329      	orrs	r1, r5
10006918:	d12e      	bne.n	10006978 <__aeabi_dmul+0x194>
1000691a:	2500      	movs	r5, #0
1000691c:	2200      	movs	r2, #0
1000691e:	2102      	movs	r1, #2
10006920:	e79e      	b.n	10006860 <__aeabi_dmul+0x7c>
10006922:	4651      	mov	r1, sl
10006924:	4329      	orrs	r1, r5
10006926:	d023      	beq.n	10006970 <__aeabi_dmul+0x18c>
10006928:	2d00      	cmp	r5, #0
1000692a:	d100      	bne.n	1000692e <__aeabi_dmul+0x14a>
1000692c:	e154      	b.n	10006bd8 <__aeabi_dmul+0x3f4>
1000692e:	1c28      	adds	r0, r5, #0
10006930:	f7fd f9ec 	bl	10003d0c <__clzsi2>
10006934:	1c03      	adds	r3, r0, #0
10006936:	2128      	movs	r1, #40	; 0x28
10006938:	4650      	mov	r0, sl
1000693a:	1ac9      	subs	r1, r1, r3
1000693c:	1c1a      	adds	r2, r3, #0
1000693e:	40c8      	lsrs	r0, r1
10006940:	4651      	mov	r1, sl
10006942:	3a08      	subs	r2, #8
10006944:	4091      	lsls	r1, r2
10006946:	4095      	lsls	r5, r2
10006948:	1c0a      	adds	r2, r1, #0
1000694a:	4305      	orrs	r5, r0
1000694c:	481f      	ldr	r0, [pc, #124]	; (100069cc <__aeabi_dmul+0x1e8>)
1000694e:	2100      	movs	r1, #0
10006950:	1ac3      	subs	r3, r0, r3
10006952:	e785      	b.n	10006860 <__aeabi_dmul+0x7c>
10006954:	2b03      	cmp	r3, #3
10006956:	d100      	bne.n	1000695a <__aeabi_dmul+0x176>
10006958:	e1c2      	b.n	10006ce0 <__aeabi_dmul+0x4fc>
1000695a:	2b01      	cmp	r3, #1
1000695c:	d000      	beq.n	10006960 <__aeabi_dmul+0x17c>
1000695e:	e16d      	b.n	10006c3c <__aeabi_dmul+0x458>
10006960:	4644      	mov	r4, r8
10006962:	9b01      	ldr	r3, [sp, #4]
10006964:	2500      	movs	r5, #0
10006966:	401c      	ands	r4, r3
10006968:	b2e4      	uxtb	r4, r4
1000696a:	2300      	movs	r3, #0
1000696c:	2600      	movs	r6, #0
1000696e:	e79d      	b.n	100068ac <__aeabi_dmul+0xc8>
10006970:	2500      	movs	r5, #0
10006972:	2200      	movs	r2, #0
10006974:	2101      	movs	r1, #1
10006976:	e773      	b.n	10006860 <__aeabi_dmul+0x7c>
10006978:	2103      	movs	r1, #3
1000697a:	e771      	b.n	10006860 <__aeabi_dmul+0x7c>
1000697c:	2304      	movs	r3, #4
1000697e:	9300      	str	r3, [sp, #0]
10006980:	2300      	movs	r3, #0
10006982:	469b      	mov	fp, r3
10006984:	3301      	adds	r3, #1
10006986:	2600      	movs	r6, #0
10006988:	4698      	mov	r8, r3
1000698a:	e750      	b.n	1000682e <__aeabi_dmul+0x4a>
1000698c:	230c      	movs	r3, #12
1000698e:	9300      	str	r3, [sp, #0]
10006990:	3b09      	subs	r3, #9
10006992:	4698      	mov	r8, r3
10006994:	e74b      	b.n	1000682e <__aeabi_dmul+0x4a>
10006996:	2580      	movs	r5, #128	; 0x80
10006998:	2400      	movs	r4, #0
1000699a:	032d      	lsls	r5, r5, #12
1000699c:	2600      	movs	r6, #0
1000699e:	4b07      	ldr	r3, [pc, #28]	; (100069bc <__aeabi_dmul+0x1d8>)
100069a0:	e784      	b.n	100068ac <__aeabi_dmul+0xc8>
100069a2:	464b      	mov	r3, r9
100069a4:	46ab      	mov	fp, r5
100069a6:	1c16      	adds	r6, r2, #0
100069a8:	9301      	str	r3, [sp, #4]
100069aa:	4688      	mov	r8, r1
100069ac:	e775      	b.n	1000689a <__aeabi_dmul+0xb6>
100069ae:	9b02      	ldr	r3, [sp, #8]
100069b0:	46ab      	mov	fp, r5
100069b2:	1c16      	adds	r6, r2, #0
100069b4:	9301      	str	r3, [sp, #4]
100069b6:	4688      	mov	r8, r1
100069b8:	e76f      	b.n	1000689a <__aeabi_dmul+0xb6>
100069ba:	46c0      	nop			; (mov r8, r8)
100069bc:	000007ff 	.word	0x000007ff
100069c0:	fffffc01 	.word	0xfffffc01
100069c4:	1000784c 	.word	0x1000784c
100069c8:	800fffff 	.word	0x800fffff
100069cc:	fffffc0d 	.word	0xfffffc0d
100069d0:	0c33      	lsrs	r3, r6, #16
100069d2:	0436      	lsls	r6, r6, #16
100069d4:	0c36      	lsrs	r6, r6, #16
100069d6:	469c      	mov	ip, r3
100069d8:	1c33      	adds	r3, r6, #0
100069da:	0c14      	lsrs	r4, r2, #16
100069dc:	0412      	lsls	r2, r2, #16
100069de:	0c12      	lsrs	r2, r2, #16
100069e0:	4353      	muls	r3, r2
100069e2:	4698      	mov	r8, r3
100069e4:	4663      	mov	r3, ip
100069e6:	4353      	muls	r3, r2
100069e8:	4699      	mov	r9, r3
100069ea:	4663      	mov	r3, ip
100069ec:	4363      	muls	r3, r4
100069ee:	9301      	str	r3, [sp, #4]
100069f0:	1c33      	adds	r3, r6, #0
100069f2:	4641      	mov	r1, r8
100069f4:	4363      	muls	r3, r4
100069f6:	0c09      	lsrs	r1, r1, #16
100069f8:	444b      	add	r3, r9
100069fa:	185b      	adds	r3, r3, r1
100069fc:	4599      	cmp	r9, r3
100069fe:	d905      	bls.n	10006a0c <__aeabi_dmul+0x228>
10006a00:	2080      	movs	r0, #128	; 0x80
10006a02:	0240      	lsls	r0, r0, #9
10006a04:	4681      	mov	r9, r0
10006a06:	9901      	ldr	r1, [sp, #4]
10006a08:	4449      	add	r1, r9
10006a0a:	9101      	str	r1, [sp, #4]
10006a0c:	0c19      	lsrs	r1, r3, #16
10006a0e:	9103      	str	r1, [sp, #12]
10006a10:	4641      	mov	r1, r8
10006a12:	0409      	lsls	r1, r1, #16
10006a14:	0c09      	lsrs	r1, r1, #16
10006a16:	041b      	lsls	r3, r3, #16
10006a18:	185b      	adds	r3, r3, r1
10006a1a:	9304      	str	r3, [sp, #16]
10006a1c:	0c2b      	lsrs	r3, r5, #16
10006a1e:	4698      	mov	r8, r3
10006a20:	1c33      	adds	r3, r6, #0
10006a22:	042d      	lsls	r5, r5, #16
10006a24:	0c29      	lsrs	r1, r5, #16
10006a26:	434b      	muls	r3, r1
10006a28:	4660      	mov	r0, ip
10006a2a:	9300      	str	r3, [sp, #0]
10006a2c:	4643      	mov	r3, r8
10006a2e:	4665      	mov	r5, ip
10006a30:	4358      	muls	r0, r3
10006a32:	435e      	muls	r6, r3
10006a34:	9b00      	ldr	r3, [sp, #0]
10006a36:	434d      	muls	r5, r1
10006a38:	0c1b      	lsrs	r3, r3, #16
10006a3a:	4699      	mov	r9, r3
10006a3c:	19ae      	adds	r6, r5, r6
10006a3e:	444e      	add	r6, r9
10006a40:	4684      	mov	ip, r0
10006a42:	42b5      	cmp	r5, r6
10006a44:	d903      	bls.n	10006a4e <__aeabi_dmul+0x26a>
10006a46:	2380      	movs	r3, #128	; 0x80
10006a48:	025b      	lsls	r3, r3, #9
10006a4a:	4699      	mov	r9, r3
10006a4c:	44cc      	add	ip, r9
10006a4e:	0c35      	lsrs	r5, r6, #16
10006a50:	1c2b      	adds	r3, r5, #0
10006a52:	9803      	ldr	r0, [sp, #12]
10006a54:	4463      	add	r3, ip
10006a56:	4684      	mov	ip, r0
10006a58:	9305      	str	r3, [sp, #20]
10006a5a:	9b00      	ldr	r3, [sp, #0]
10006a5c:	0436      	lsls	r6, r6, #16
10006a5e:	041b      	lsls	r3, r3, #16
10006a60:	0c1b      	lsrs	r3, r3, #16
10006a62:	18f3      	adds	r3, r6, r3
10006a64:	449c      	add	ip, r3
10006a66:	4660      	mov	r0, ip
10006a68:	9003      	str	r0, [sp, #12]
10006a6a:	4658      	mov	r0, fp
10006a6c:	0405      	lsls	r5, r0, #16
10006a6e:	0c06      	lsrs	r6, r0, #16
10006a70:	0c28      	lsrs	r0, r5, #16
10006a72:	4684      	mov	ip, r0
10006a74:	4350      	muls	r0, r2
10006a76:	1c35      	adds	r5, r6, #0
10006a78:	4681      	mov	r9, r0
10006a7a:	4660      	mov	r0, ip
10006a7c:	4365      	muls	r5, r4
10006a7e:	4344      	muls	r4, r0
10006a80:	4648      	mov	r0, r9
10006a82:	0c00      	lsrs	r0, r0, #16
10006a84:	4683      	mov	fp, r0
10006a86:	4372      	muls	r2, r6
10006a88:	1914      	adds	r4, r2, r4
10006a8a:	445c      	add	r4, fp
10006a8c:	42a2      	cmp	r2, r4
10006a8e:	d903      	bls.n	10006a98 <__aeabi_dmul+0x2b4>
10006a90:	2280      	movs	r2, #128	; 0x80
10006a92:	0252      	lsls	r2, r2, #9
10006a94:	4693      	mov	fp, r2
10006a96:	445d      	add	r5, fp
10006a98:	0c22      	lsrs	r2, r4, #16
10006a9a:	18ad      	adds	r5, r5, r2
10006a9c:	464a      	mov	r2, r9
10006a9e:	0412      	lsls	r2, r2, #16
10006aa0:	0c12      	lsrs	r2, r2, #16
10006aa2:	0424      	lsls	r4, r4, #16
10006aa4:	4640      	mov	r0, r8
10006aa6:	18a4      	adds	r4, r4, r2
10006aa8:	4662      	mov	r2, ip
10006aaa:	434a      	muls	r2, r1
10006aac:	4371      	muls	r1, r6
10006aae:	4346      	muls	r6, r0
10006ab0:	4660      	mov	r0, ip
10006ab2:	9600      	str	r6, [sp, #0]
10006ab4:	4646      	mov	r6, r8
10006ab6:	4370      	muls	r0, r6
10006ab8:	4680      	mov	r8, r0
10006aba:	0c10      	lsrs	r0, r2, #16
10006abc:	4684      	mov	ip, r0
10006abe:	4488      	add	r8, r1
10006ac0:	44e0      	add	r8, ip
10006ac2:	4541      	cmp	r1, r8
10006ac4:	d905      	bls.n	10006ad2 <__aeabi_dmul+0x2ee>
10006ac6:	2180      	movs	r1, #128	; 0x80
10006ac8:	0249      	lsls	r1, r1, #9
10006aca:	468c      	mov	ip, r1
10006acc:	9900      	ldr	r1, [sp, #0]
10006ace:	4461      	add	r1, ip
10006ad0:	9100      	str	r1, [sp, #0]
10006ad2:	9801      	ldr	r0, [sp, #4]
10006ad4:	9903      	ldr	r1, [sp, #12]
10006ad6:	4684      	mov	ip, r0
10006ad8:	4461      	add	r1, ip
10006ada:	4299      	cmp	r1, r3
10006adc:	419b      	sbcs	r3, r3
10006ade:	425b      	negs	r3, r3
10006ae0:	4699      	mov	r9, r3
10006ae2:	9805      	ldr	r0, [sp, #20]
10006ae4:	4643      	mov	r3, r8
10006ae6:	4684      	mov	ip, r0
10006ae8:	0412      	lsls	r2, r2, #16
10006aea:	0c12      	lsrs	r2, r2, #16
10006aec:	041b      	lsls	r3, r3, #16
10006aee:	189b      	adds	r3, r3, r2
10006af0:	4463      	add	r3, ip
10006af2:	469c      	mov	ip, r3
10006af4:	46ab      	mov	fp, r5
10006af6:	4283      	cmp	r3, r0
10006af8:	419b      	sbcs	r3, r3
10006afa:	4640      	mov	r0, r8
10006afc:	190a      	adds	r2, r1, r4
10006afe:	44cc      	add	ip, r9
10006b00:	42a2      	cmp	r2, r4
10006b02:	4189      	sbcs	r1, r1
10006b04:	44e3      	add	fp, ip
10006b06:	45cc      	cmp	ip, r9
10006b08:	41b6      	sbcs	r6, r6
10006b0a:	465c      	mov	r4, fp
10006b0c:	0c00      	lsrs	r0, r0, #16
10006b0e:	4680      	mov	r8, r0
10006b10:	4249      	negs	r1, r1
10006b12:	4276      	negs	r6, r6
10006b14:	425b      	negs	r3, r3
10006b16:	1864      	adds	r4, r4, r1
10006b18:	4333      	orrs	r3, r6
10006b1a:	4498      	add	r8, r3
10006b1c:	428c      	cmp	r4, r1
10006b1e:	4189      	sbcs	r1, r1
10006b20:	45ab      	cmp	fp, r5
10006b22:	419b      	sbcs	r3, r3
10006b24:	4249      	negs	r1, r1
10006b26:	425b      	negs	r3, r3
10006b28:	4319      	orrs	r1, r3
10006b2a:	1c0d      	adds	r5, r1, #0
10006b2c:	9b00      	ldr	r3, [sp, #0]
10006b2e:	4445      	add	r5, r8
10006b30:	18ee      	adds	r6, r5, r3
10006b32:	0276      	lsls	r6, r6, #9
10006b34:	0de5      	lsrs	r5, r4, #23
10006b36:	432e      	orrs	r6, r5
10006b38:	46b3      	mov	fp, r6
10006b3a:	9b04      	ldr	r3, [sp, #16]
10006b3c:	0256      	lsls	r6, r2, #9
10006b3e:	431e      	orrs	r6, r3
10006b40:	1e73      	subs	r3, r6, #1
10006b42:	419e      	sbcs	r6, r3
10006b44:	465b      	mov	r3, fp
10006b46:	0dd2      	lsrs	r2, r2, #23
10006b48:	4332      	orrs	r2, r6
10006b4a:	0266      	lsls	r6, r4, #9
10006b4c:	4316      	orrs	r6, r2
10006b4e:	01db      	lsls	r3, r3, #7
10006b50:	d50a      	bpl.n	10006b68 <__aeabi_dmul+0x384>
10006b52:	2301      	movs	r3, #1
10006b54:	4033      	ands	r3, r6
10006b56:	0876      	lsrs	r6, r6, #1
10006b58:	431e      	orrs	r6, r3
10006b5a:	465b      	mov	r3, fp
10006b5c:	07db      	lsls	r3, r3, #31
10006b5e:	431e      	orrs	r6, r3
10006b60:	465b      	mov	r3, fp
10006b62:	085b      	lsrs	r3, r3, #1
10006b64:	469b      	mov	fp, r3
10006b66:	4657      	mov	r7, sl
10006b68:	4b63      	ldr	r3, [pc, #396]	; (10006cf8 <__aeabi_dmul+0x514>)
10006b6a:	18fb      	adds	r3, r7, r3
10006b6c:	2b00      	cmp	r3, #0
10006b6e:	dd5a      	ble.n	10006c26 <__aeabi_dmul+0x442>
10006b70:	0772      	lsls	r2, r6, #29
10006b72:	d009      	beq.n	10006b88 <__aeabi_dmul+0x3a4>
10006b74:	220f      	movs	r2, #15
10006b76:	4032      	ands	r2, r6
10006b78:	2a04      	cmp	r2, #4
10006b7a:	d005      	beq.n	10006b88 <__aeabi_dmul+0x3a4>
10006b7c:	1d32      	adds	r2, r6, #4
10006b7e:	42b2      	cmp	r2, r6
10006b80:	41b6      	sbcs	r6, r6
10006b82:	4276      	negs	r6, r6
10006b84:	44b3      	add	fp, r6
10006b86:	1c16      	adds	r6, r2, #0
10006b88:	465a      	mov	r2, fp
10006b8a:	01d2      	lsls	r2, r2, #7
10006b8c:	d506      	bpl.n	10006b9c <__aeabi_dmul+0x3b8>
10006b8e:	465a      	mov	r2, fp
10006b90:	4b5a      	ldr	r3, [pc, #360]	; (10006cfc <__aeabi_dmul+0x518>)
10006b92:	401a      	ands	r2, r3
10006b94:	2380      	movs	r3, #128	; 0x80
10006b96:	4693      	mov	fp, r2
10006b98:	00db      	lsls	r3, r3, #3
10006b9a:	18fb      	adds	r3, r7, r3
10006b9c:	4a58      	ldr	r2, [pc, #352]	; (10006d00 <__aeabi_dmul+0x51c>)
10006b9e:	4293      	cmp	r3, r2
10006ba0:	dd34      	ble.n	10006c0c <__aeabi_dmul+0x428>
10006ba2:	2401      	movs	r4, #1
10006ba4:	9b02      	ldr	r3, [sp, #8]
10006ba6:	2500      	movs	r5, #0
10006ba8:	401c      	ands	r4, r3
10006baa:	2600      	movs	r6, #0
10006bac:	4b55      	ldr	r3, [pc, #340]	; (10006d04 <__aeabi_dmul+0x520>)
10006bae:	e67d      	b.n	100068ac <__aeabi_dmul+0xc8>
10006bb0:	2080      	movs	r0, #128	; 0x80
10006bb2:	465b      	mov	r3, fp
10006bb4:	0300      	lsls	r0, r0, #12
10006bb6:	4203      	tst	r3, r0
10006bb8:	d008      	beq.n	10006bcc <__aeabi_dmul+0x3e8>
10006bba:	4205      	tst	r5, r0
10006bbc:	d106      	bne.n	10006bcc <__aeabi_dmul+0x3e8>
10006bbe:	4305      	orrs	r5, r0
10006bc0:	032d      	lsls	r5, r5, #12
10006bc2:	0b2d      	lsrs	r5, r5, #12
10006bc4:	464c      	mov	r4, r9
10006bc6:	1c16      	adds	r6, r2, #0
10006bc8:	4b4e      	ldr	r3, [pc, #312]	; (10006d04 <__aeabi_dmul+0x520>)
10006bca:	e66f      	b.n	100068ac <__aeabi_dmul+0xc8>
10006bcc:	465d      	mov	r5, fp
10006bce:	4305      	orrs	r5, r0
10006bd0:	032d      	lsls	r5, r5, #12
10006bd2:	0b2d      	lsrs	r5, r5, #12
10006bd4:	4b4b      	ldr	r3, [pc, #300]	; (10006d04 <__aeabi_dmul+0x520>)
10006bd6:	e669      	b.n	100068ac <__aeabi_dmul+0xc8>
10006bd8:	4650      	mov	r0, sl
10006bda:	f7fd f897 	bl	10003d0c <__clzsi2>
10006bde:	1c03      	adds	r3, r0, #0
10006be0:	3320      	adds	r3, #32
10006be2:	2b27      	cmp	r3, #39	; 0x27
10006be4:	dc00      	bgt.n	10006be8 <__aeabi_dmul+0x404>
10006be6:	e6a6      	b.n	10006936 <__aeabi_dmul+0x152>
10006be8:	4655      	mov	r5, sl
10006bea:	3808      	subs	r0, #8
10006bec:	4085      	lsls	r5, r0
10006bee:	2200      	movs	r2, #0
10006bf0:	e6ac      	b.n	1000694c <__aeabi_dmul+0x168>
10006bf2:	1c28      	adds	r0, r5, #0
10006bf4:	f7fd f88a 	bl	10003d0c <__clzsi2>
10006bf8:	1c02      	adds	r2, r0, #0
10006bfa:	3220      	adds	r2, #32
10006bfc:	2a27      	cmp	r2, #39	; 0x27
10006bfe:	dc00      	bgt.n	10006c02 <__aeabi_dmul+0x41e>
10006c00:	e675      	b.n	100068ee <__aeabi_dmul+0x10a>
10006c02:	3808      	subs	r0, #8
10006c04:	4085      	lsls	r5, r0
10006c06:	2600      	movs	r6, #0
10006c08:	46ab      	mov	fp, r5
10006c0a:	e67d      	b.n	10006908 <__aeabi_dmul+0x124>
10006c0c:	465a      	mov	r2, fp
10006c0e:	08f6      	lsrs	r6, r6, #3
10006c10:	0752      	lsls	r2, r2, #29
10006c12:	4316      	orrs	r6, r2
10006c14:	465a      	mov	r2, fp
10006c16:	2401      	movs	r4, #1
10006c18:	0255      	lsls	r5, r2, #9
10006c1a:	9a02      	ldr	r2, [sp, #8]
10006c1c:	055b      	lsls	r3, r3, #21
10006c1e:	0b2d      	lsrs	r5, r5, #12
10006c20:	0d5b      	lsrs	r3, r3, #21
10006c22:	4014      	ands	r4, r2
10006c24:	e642      	b.n	100068ac <__aeabi_dmul+0xc8>
10006c26:	4d38      	ldr	r5, [pc, #224]	; (10006d08 <__aeabi_dmul+0x524>)
10006c28:	1bed      	subs	r5, r5, r7
10006c2a:	2d38      	cmp	r5, #56	; 0x38
10006c2c:	dd0a      	ble.n	10006c44 <__aeabi_dmul+0x460>
10006c2e:	2401      	movs	r4, #1
10006c30:	9b02      	ldr	r3, [sp, #8]
10006c32:	2500      	movs	r5, #0
10006c34:	401c      	ands	r4, r3
10006c36:	2600      	movs	r6, #0
10006c38:	2300      	movs	r3, #0
10006c3a:	e637      	b.n	100068ac <__aeabi_dmul+0xc8>
10006c3c:	9b01      	ldr	r3, [sp, #4]
10006c3e:	4657      	mov	r7, sl
10006c40:	9302      	str	r3, [sp, #8]
10006c42:	e791      	b.n	10006b68 <__aeabi_dmul+0x384>
10006c44:	2d1f      	cmp	r5, #31
10006c46:	dc25      	bgt.n	10006c94 <__aeabi_dmul+0x4b0>
10006c48:	4b30      	ldr	r3, [pc, #192]	; (10006d0c <__aeabi_dmul+0x528>)
10006c4a:	1c32      	adds	r2, r6, #0
10006c4c:	469c      	mov	ip, r3
10006c4e:	4467      	add	r7, ip
10006c50:	40be      	lsls	r6, r7
10006c52:	465b      	mov	r3, fp
10006c54:	40bb      	lsls	r3, r7
10006c56:	1c37      	adds	r7, r6, #0
10006c58:	40ea      	lsrs	r2, r5
10006c5a:	1e7e      	subs	r6, r7, #1
10006c5c:	41b7      	sbcs	r7, r6
10006c5e:	4313      	orrs	r3, r2
10006c60:	433b      	orrs	r3, r7
10006c62:	1c1e      	adds	r6, r3, #0
10006c64:	465b      	mov	r3, fp
10006c66:	40eb      	lsrs	r3, r5
10006c68:	1c1d      	adds	r5, r3, #0
10006c6a:	0773      	lsls	r3, r6, #29
10006c6c:	d009      	beq.n	10006c82 <__aeabi_dmul+0x49e>
10006c6e:	230f      	movs	r3, #15
10006c70:	4033      	ands	r3, r6
10006c72:	2b04      	cmp	r3, #4
10006c74:	d005      	beq.n	10006c82 <__aeabi_dmul+0x49e>
10006c76:	1d33      	adds	r3, r6, #4
10006c78:	42b3      	cmp	r3, r6
10006c7a:	41b6      	sbcs	r6, r6
10006c7c:	4276      	negs	r6, r6
10006c7e:	19ad      	adds	r5, r5, r6
10006c80:	1c1e      	adds	r6, r3, #0
10006c82:	022b      	lsls	r3, r5, #8
10006c84:	d520      	bpl.n	10006cc8 <__aeabi_dmul+0x4e4>
10006c86:	2401      	movs	r4, #1
10006c88:	9b02      	ldr	r3, [sp, #8]
10006c8a:	2500      	movs	r5, #0
10006c8c:	401c      	ands	r4, r3
10006c8e:	2600      	movs	r6, #0
10006c90:	2301      	movs	r3, #1
10006c92:	e60b      	b.n	100068ac <__aeabi_dmul+0xc8>
10006c94:	465a      	mov	r2, fp
10006c96:	4b1e      	ldr	r3, [pc, #120]	; (10006d10 <__aeabi_dmul+0x52c>)
10006c98:	1bdb      	subs	r3, r3, r7
10006c9a:	40da      	lsrs	r2, r3
10006c9c:	1c13      	adds	r3, r2, #0
10006c9e:	2d20      	cmp	r5, #32
10006ca0:	d01c      	beq.n	10006cdc <__aeabi_dmul+0x4f8>
10006ca2:	4a1c      	ldr	r2, [pc, #112]	; (10006d14 <__aeabi_dmul+0x530>)
10006ca4:	4694      	mov	ip, r2
10006ca6:	465a      	mov	r2, fp
10006ca8:	4467      	add	r7, ip
10006caa:	40ba      	lsls	r2, r7
10006cac:	1c17      	adds	r7, r2, #0
10006cae:	433e      	orrs	r6, r7
10006cb0:	1e72      	subs	r2, r6, #1
10006cb2:	4196      	sbcs	r6, r2
10006cb4:	431e      	orrs	r6, r3
10006cb6:	2307      	movs	r3, #7
10006cb8:	2500      	movs	r5, #0
10006cba:	4033      	ands	r3, r6
10006cbc:	d007      	beq.n	10006cce <__aeabi_dmul+0x4ea>
10006cbe:	230f      	movs	r3, #15
10006cc0:	2500      	movs	r5, #0
10006cc2:	4033      	ands	r3, r6
10006cc4:	2b04      	cmp	r3, #4
10006cc6:	d1d6      	bne.n	10006c76 <__aeabi_dmul+0x492>
10006cc8:	076b      	lsls	r3, r5, #29
10006cca:	026d      	lsls	r5, r5, #9
10006ccc:	0b2d      	lsrs	r5, r5, #12
10006cce:	2401      	movs	r4, #1
10006cd0:	08f6      	lsrs	r6, r6, #3
10006cd2:	431e      	orrs	r6, r3
10006cd4:	9b02      	ldr	r3, [sp, #8]
10006cd6:	401c      	ands	r4, r3
10006cd8:	2300      	movs	r3, #0
10006cda:	e5e7      	b.n	100068ac <__aeabi_dmul+0xc8>
10006cdc:	2700      	movs	r7, #0
10006cde:	e7e6      	b.n	10006cae <__aeabi_dmul+0x4ca>
10006ce0:	2580      	movs	r5, #128	; 0x80
10006ce2:	465b      	mov	r3, fp
10006ce4:	2401      	movs	r4, #1
10006ce6:	032d      	lsls	r5, r5, #12
10006ce8:	431d      	orrs	r5, r3
10006cea:	9b01      	ldr	r3, [sp, #4]
10006cec:	032d      	lsls	r5, r5, #12
10006cee:	4023      	ands	r3, r4
10006cf0:	1c1c      	adds	r4, r3, #0
10006cf2:	0b2d      	lsrs	r5, r5, #12
10006cf4:	4b03      	ldr	r3, [pc, #12]	; (10006d04 <__aeabi_dmul+0x520>)
10006cf6:	e5d9      	b.n	100068ac <__aeabi_dmul+0xc8>
10006cf8:	000003ff 	.word	0x000003ff
10006cfc:	feffffff 	.word	0xfeffffff
10006d00:	000007fe 	.word	0x000007fe
10006d04:	000007ff 	.word	0x000007ff
10006d08:	fffffc02 	.word	0xfffffc02
10006d0c:	0000041e 	.word	0x0000041e
10006d10:	fffffbe2 	.word	0xfffffbe2
10006d14:	0000043e 	.word	0x0000043e

10006d18 <__aeabi_dsub>:
10006d18:	b5f0      	push	{r4, r5, r6, r7, lr}
10006d1a:	464d      	mov	r5, r9
10006d1c:	4644      	mov	r4, r8
10006d1e:	465f      	mov	r7, fp
10006d20:	4656      	mov	r6, sl
10006d22:	b4f0      	push	{r4, r5, r6, r7}
10006d24:	1c0e      	adds	r6, r1, #0
10006d26:	1c11      	adds	r1, r2, #0
10006d28:	0332      	lsls	r2, r6, #12
10006d2a:	0a52      	lsrs	r2, r2, #9
10006d2c:	0f47      	lsrs	r7, r0, #29
10006d2e:	4317      	orrs	r7, r2
10006d30:	00c5      	lsls	r5, r0, #3
10006d32:	031a      	lsls	r2, r3, #12
10006d34:	0058      	lsls	r0, r3, #1
10006d36:	0fdb      	lsrs	r3, r3, #31
10006d38:	4699      	mov	r9, r3
10006d3a:	0a52      	lsrs	r2, r2, #9
10006d3c:	0f4b      	lsrs	r3, r1, #29
10006d3e:	b083      	sub	sp, #12
10006d40:	431a      	orrs	r2, r3
10006d42:	00cb      	lsls	r3, r1, #3
10006d44:	9301      	str	r3, [sp, #4]
10006d46:	4bcf      	ldr	r3, [pc, #828]	; (10007084 <__aeabi_dsub+0x36c>)
10006d48:	0074      	lsls	r4, r6, #1
10006d4a:	0ff6      	lsrs	r6, r6, #31
10006d4c:	0d64      	lsrs	r4, r4, #21
10006d4e:	46b0      	mov	r8, r6
10006d50:	0d40      	lsrs	r0, r0, #21
10006d52:	4298      	cmp	r0, r3
10006d54:	d100      	bne.n	10006d58 <__aeabi_dsub+0x40>
10006d56:	e0e8      	b.n	10006f2a <__aeabi_dsub+0x212>
10006d58:	2301      	movs	r3, #1
10006d5a:	4649      	mov	r1, r9
10006d5c:	4059      	eors	r1, r3
10006d5e:	1c0b      	adds	r3, r1, #0
10006d60:	429e      	cmp	r6, r3
10006d62:	d100      	bne.n	10006d66 <__aeabi_dsub+0x4e>
10006d64:	e0b1      	b.n	10006eca <__aeabi_dsub+0x1b2>
10006d66:	1a26      	subs	r6, r4, r0
10006d68:	2e00      	cmp	r6, #0
10006d6a:	dc00      	bgt.n	10006d6e <__aeabi_dsub+0x56>
10006d6c:	e11c      	b.n	10006fa8 <__aeabi_dsub+0x290>
10006d6e:	2800      	cmp	r0, #0
10006d70:	d142      	bne.n	10006df8 <__aeabi_dsub+0xe0>
10006d72:	1c13      	adds	r3, r2, #0
10006d74:	9901      	ldr	r1, [sp, #4]
10006d76:	430b      	orrs	r3, r1
10006d78:	d000      	beq.n	10006d7c <__aeabi_dsub+0x64>
10006d7a:	e0e6      	b.n	10006f4a <__aeabi_dsub+0x232>
10006d7c:	076b      	lsls	r3, r5, #29
10006d7e:	d100      	bne.n	10006d82 <__aeabi_dsub+0x6a>
10006d80:	e08e      	b.n	10006ea0 <__aeabi_dsub+0x188>
10006d82:	230f      	movs	r3, #15
10006d84:	402b      	ands	r3, r5
10006d86:	2b04      	cmp	r3, #4
10006d88:	d100      	bne.n	10006d8c <__aeabi_dsub+0x74>
10006d8a:	e089      	b.n	10006ea0 <__aeabi_dsub+0x188>
10006d8c:	1d2a      	adds	r2, r5, #4
10006d8e:	42aa      	cmp	r2, r5
10006d90:	41ad      	sbcs	r5, r5
10006d92:	2380      	movs	r3, #128	; 0x80
10006d94:	2601      	movs	r6, #1
10006d96:	4641      	mov	r1, r8
10006d98:	426d      	negs	r5, r5
10006d9a:	197f      	adds	r7, r7, r5
10006d9c:	041b      	lsls	r3, r3, #16
10006d9e:	403b      	ands	r3, r7
10006da0:	400e      	ands	r6, r1
10006da2:	1c15      	adds	r5, r2, #0
10006da4:	2b00      	cmp	r3, #0
10006da6:	d100      	bne.n	10006daa <__aeabi_dsub+0x92>
10006da8:	e083      	b.n	10006eb2 <__aeabi_dsub+0x19a>
10006daa:	4bb6      	ldr	r3, [pc, #728]	; (10007084 <__aeabi_dsub+0x36c>)
10006dac:	3401      	adds	r4, #1
10006dae:	429c      	cmp	r4, r3
10006db0:	d100      	bne.n	10006db4 <__aeabi_dsub+0x9c>
10006db2:	e116      	b.n	10006fe2 <__aeabi_dsub+0x2ca>
10006db4:	1c3a      	adds	r2, r7, #0
10006db6:	4bb4      	ldr	r3, [pc, #720]	; (10007088 <__aeabi_dsub+0x370>)
10006db8:	08ed      	lsrs	r5, r5, #3
10006dba:	401a      	ands	r2, r3
10006dbc:	0750      	lsls	r0, r2, #29
10006dbe:	0564      	lsls	r4, r4, #21
10006dc0:	0252      	lsls	r2, r2, #9
10006dc2:	4305      	orrs	r5, r0
10006dc4:	0b12      	lsrs	r2, r2, #12
10006dc6:	0d64      	lsrs	r4, r4, #21
10006dc8:	2100      	movs	r1, #0
10006dca:	0312      	lsls	r2, r2, #12
10006dcc:	0d0b      	lsrs	r3, r1, #20
10006dce:	051b      	lsls	r3, r3, #20
10006dd0:	0564      	lsls	r4, r4, #21
10006dd2:	0b12      	lsrs	r2, r2, #12
10006dd4:	431a      	orrs	r2, r3
10006dd6:	0863      	lsrs	r3, r4, #1
10006dd8:	4cac      	ldr	r4, [pc, #688]	; (1000708c <__aeabi_dsub+0x374>)
10006dda:	07f6      	lsls	r6, r6, #31
10006ddc:	4014      	ands	r4, r2
10006dde:	431c      	orrs	r4, r3
10006de0:	0064      	lsls	r4, r4, #1
10006de2:	0864      	lsrs	r4, r4, #1
10006de4:	4334      	orrs	r4, r6
10006de6:	1c28      	adds	r0, r5, #0
10006de8:	1c21      	adds	r1, r4, #0
10006dea:	b003      	add	sp, #12
10006dec:	bc3c      	pop	{r2, r3, r4, r5}
10006dee:	4690      	mov	r8, r2
10006df0:	4699      	mov	r9, r3
10006df2:	46a2      	mov	sl, r4
10006df4:	46ab      	mov	fp, r5
10006df6:	bdf0      	pop	{r4, r5, r6, r7, pc}
10006df8:	4ba2      	ldr	r3, [pc, #648]	; (10007084 <__aeabi_dsub+0x36c>)
10006dfa:	429c      	cmp	r4, r3
10006dfc:	d0be      	beq.n	10006d7c <__aeabi_dsub+0x64>
10006dfe:	2380      	movs	r3, #128	; 0x80
10006e00:	041b      	lsls	r3, r3, #16
10006e02:	431a      	orrs	r2, r3
10006e04:	2e38      	cmp	r6, #56	; 0x38
10006e06:	dd00      	ble.n	10006e0a <__aeabi_dsub+0xf2>
10006e08:	e103      	b.n	10007012 <__aeabi_dsub+0x2fa>
10006e0a:	2e1f      	cmp	r6, #31
10006e0c:	dd00      	ble.n	10006e10 <__aeabi_dsub+0xf8>
10006e0e:	e13f      	b.n	10007090 <__aeabi_dsub+0x378>
10006e10:	2020      	movs	r0, #32
10006e12:	1b83      	subs	r3, r0, r6
10006e14:	4699      	mov	r9, r3
10006e16:	1c13      	adds	r3, r2, #0
10006e18:	4649      	mov	r1, r9
10006e1a:	408b      	lsls	r3, r1
10006e1c:	469c      	mov	ip, r3
10006e1e:	9b01      	ldr	r3, [sp, #4]
10006e20:	4660      	mov	r0, ip
10006e22:	40f3      	lsrs	r3, r6
10006e24:	4303      	orrs	r3, r0
10006e26:	9801      	ldr	r0, [sp, #4]
10006e28:	40f2      	lsrs	r2, r6
10006e2a:	4088      	lsls	r0, r1
10006e2c:	1c01      	adds	r1, r0, #0
10006e2e:	1e48      	subs	r0, r1, #1
10006e30:	4181      	sbcs	r1, r0
10006e32:	430b      	orrs	r3, r1
10006e34:	1aeb      	subs	r3, r5, r3
10006e36:	429d      	cmp	r5, r3
10006e38:	4180      	sbcs	r0, r0
10006e3a:	1c1d      	adds	r5, r3, #0
10006e3c:	1aba      	subs	r2, r7, r2
10006e3e:	4240      	negs	r0, r0
10006e40:	1a17      	subs	r7, r2, r0
10006e42:	023b      	lsls	r3, r7, #8
10006e44:	d400      	bmi.n	10006e48 <__aeabi_dsub+0x130>
10006e46:	e0a8      	b.n	10006f9a <__aeabi_dsub+0x282>
10006e48:	027a      	lsls	r2, r7, #9
10006e4a:	0a56      	lsrs	r6, r2, #9
10006e4c:	2e00      	cmp	r6, #0
10006e4e:	d100      	bne.n	10006e52 <__aeabi_dsub+0x13a>
10006e50:	e0ca      	b.n	10006fe8 <__aeabi_dsub+0x2d0>
10006e52:	1c30      	adds	r0, r6, #0
10006e54:	f7fc ff5a 	bl	10003d0c <__clzsi2>
10006e58:	1c03      	adds	r3, r0, #0
10006e5a:	3b08      	subs	r3, #8
10006e5c:	2b1f      	cmp	r3, #31
10006e5e:	dd00      	ble.n	10006e62 <__aeabi_dsub+0x14a>
10006e60:	e0cb      	b.n	10006ffa <__aeabi_dsub+0x2e2>
10006e62:	2228      	movs	r2, #40	; 0x28
10006e64:	1c29      	adds	r1, r5, #0
10006e66:	1a12      	subs	r2, r2, r0
10006e68:	40d1      	lsrs	r1, r2
10006e6a:	409e      	lsls	r6, r3
10006e6c:	1c0a      	adds	r2, r1, #0
10006e6e:	409d      	lsls	r5, r3
10006e70:	4332      	orrs	r2, r6
10006e72:	429c      	cmp	r4, r3
10006e74:	dd00      	ble.n	10006e78 <__aeabi_dsub+0x160>
10006e76:	e0c8      	b.n	1000700a <__aeabi_dsub+0x2f2>
10006e78:	1b1c      	subs	r4, r3, r4
10006e7a:	1c67      	adds	r7, r4, #1
10006e7c:	2f1f      	cmp	r7, #31
10006e7e:	dd00      	ble.n	10006e82 <__aeabi_dsub+0x16a>
10006e80:	e0ed      	b.n	1000705e <__aeabi_dsub+0x346>
10006e82:	231f      	movs	r3, #31
10006e84:	1c29      	adds	r1, r5, #0
10006e86:	1b1c      	subs	r4, r3, r4
10006e88:	1c13      	adds	r3, r2, #0
10006e8a:	40a5      	lsls	r5, r4
10006e8c:	40a3      	lsls	r3, r4
10006e8e:	40f9      	lsrs	r1, r7
10006e90:	1e6c      	subs	r4, r5, #1
10006e92:	41a5      	sbcs	r5, r4
10006e94:	40fa      	lsrs	r2, r7
10006e96:	4319      	orrs	r1, r3
10006e98:	430d      	orrs	r5, r1
10006e9a:	1c17      	adds	r7, r2, #0
10006e9c:	2400      	movs	r4, #0
10006e9e:	e76d      	b.n	10006d7c <__aeabi_dsub+0x64>
10006ea0:	2380      	movs	r3, #128	; 0x80
10006ea2:	2601      	movs	r6, #1
10006ea4:	4642      	mov	r2, r8
10006ea6:	041b      	lsls	r3, r3, #16
10006ea8:	403b      	ands	r3, r7
10006eaa:	4016      	ands	r6, r2
10006eac:	2b00      	cmp	r3, #0
10006eae:	d000      	beq.n	10006eb2 <__aeabi_dsub+0x19a>
10006eb0:	e77b      	b.n	10006daa <__aeabi_dsub+0x92>
10006eb2:	4b74      	ldr	r3, [pc, #464]	; (10007084 <__aeabi_dsub+0x36c>)
10006eb4:	08ed      	lsrs	r5, r5, #3
10006eb6:	0778      	lsls	r0, r7, #29
10006eb8:	4305      	orrs	r5, r0
10006eba:	08fa      	lsrs	r2, r7, #3
10006ebc:	429c      	cmp	r4, r3
10006ebe:	d03b      	beq.n	10006f38 <__aeabi_dsub+0x220>
10006ec0:	0312      	lsls	r2, r2, #12
10006ec2:	0564      	lsls	r4, r4, #21
10006ec4:	0b12      	lsrs	r2, r2, #12
10006ec6:	0d64      	lsrs	r4, r4, #21
10006ec8:	e77e      	b.n	10006dc8 <__aeabi_dsub+0xb0>
10006eca:	1a23      	subs	r3, r4, r0
10006ecc:	469a      	mov	sl, r3
10006ece:	2b00      	cmp	r3, #0
10006ed0:	dc00      	bgt.n	10006ed4 <__aeabi_dsub+0x1bc>
10006ed2:	e0a5      	b.n	10007020 <__aeabi_dsub+0x308>
10006ed4:	2800      	cmp	r0, #0
10006ed6:	d044      	beq.n	10006f62 <__aeabi_dsub+0x24a>
10006ed8:	486a      	ldr	r0, [pc, #424]	; (10007084 <__aeabi_dsub+0x36c>)
10006eda:	4284      	cmp	r4, r0
10006edc:	d100      	bne.n	10006ee0 <__aeabi_dsub+0x1c8>
10006ede:	e74d      	b.n	10006d7c <__aeabi_dsub+0x64>
10006ee0:	2080      	movs	r0, #128	; 0x80
10006ee2:	0400      	lsls	r0, r0, #16
10006ee4:	4302      	orrs	r2, r0
10006ee6:	4653      	mov	r3, sl
10006ee8:	2b38      	cmp	r3, #56	; 0x38
10006eea:	dc00      	bgt.n	10006eee <__aeabi_dsub+0x1d6>
10006eec:	e11c      	b.n	10007128 <__aeabi_dsub+0x410>
10006eee:	9b01      	ldr	r3, [sp, #4]
10006ef0:	431a      	orrs	r2, r3
10006ef2:	1e51      	subs	r1, r2, #1
10006ef4:	418a      	sbcs	r2, r1
10006ef6:	b2d1      	uxtb	r1, r2
10006ef8:	2200      	movs	r2, #0
10006efa:	1949      	adds	r1, r1, r5
10006efc:	42a9      	cmp	r1, r5
10006efe:	4180      	sbcs	r0, r0
10006f00:	1c0d      	adds	r5, r1, #0
10006f02:	19d2      	adds	r2, r2, r7
10006f04:	4240      	negs	r0, r0
10006f06:	1817      	adds	r7, r2, r0
10006f08:	023b      	lsls	r3, r7, #8
10006f0a:	d546      	bpl.n	10006f9a <__aeabi_dsub+0x282>
10006f0c:	4b5d      	ldr	r3, [pc, #372]	; (10007084 <__aeabi_dsub+0x36c>)
10006f0e:	3401      	adds	r4, #1
10006f10:	429c      	cmp	r4, r3
10006f12:	d100      	bne.n	10006f16 <__aeabi_dsub+0x1fe>
10006f14:	e169      	b.n	100071ea <__aeabi_dsub+0x4d2>
10006f16:	2001      	movs	r0, #1
10006f18:	4a5b      	ldr	r2, [pc, #364]	; (10007088 <__aeabi_dsub+0x370>)
10006f1a:	086b      	lsrs	r3, r5, #1
10006f1c:	403a      	ands	r2, r7
10006f1e:	4028      	ands	r0, r5
10006f20:	4318      	orrs	r0, r3
10006f22:	07d5      	lsls	r5, r2, #31
10006f24:	4305      	orrs	r5, r0
10006f26:	0857      	lsrs	r7, r2, #1
10006f28:	e728      	b.n	10006d7c <__aeabi_dsub+0x64>
10006f2a:	1c13      	adds	r3, r2, #0
10006f2c:	9901      	ldr	r1, [sp, #4]
10006f2e:	430b      	orrs	r3, r1
10006f30:	d100      	bne.n	10006f34 <__aeabi_dsub+0x21c>
10006f32:	e711      	b.n	10006d58 <__aeabi_dsub+0x40>
10006f34:	464b      	mov	r3, r9
10006f36:	e713      	b.n	10006d60 <__aeabi_dsub+0x48>
10006f38:	1c2b      	adds	r3, r5, #0
10006f3a:	4313      	orrs	r3, r2
10006f3c:	d051      	beq.n	10006fe2 <__aeabi_dsub+0x2ca>
10006f3e:	2380      	movs	r3, #128	; 0x80
10006f40:	031b      	lsls	r3, r3, #12
10006f42:	431a      	orrs	r2, r3
10006f44:	0312      	lsls	r2, r2, #12
10006f46:	0b12      	lsrs	r2, r2, #12
10006f48:	e73e      	b.n	10006dc8 <__aeabi_dsub+0xb0>
10006f4a:	3e01      	subs	r6, #1
10006f4c:	2e00      	cmp	r6, #0
10006f4e:	d000      	beq.n	10006f52 <__aeabi_dsub+0x23a>
10006f50:	e080      	b.n	10007054 <__aeabi_dsub+0x33c>
10006f52:	1a69      	subs	r1, r5, r1
10006f54:	428d      	cmp	r5, r1
10006f56:	419b      	sbcs	r3, r3
10006f58:	1aba      	subs	r2, r7, r2
10006f5a:	425b      	negs	r3, r3
10006f5c:	1ad7      	subs	r7, r2, r3
10006f5e:	1c0d      	adds	r5, r1, #0
10006f60:	e76f      	b.n	10006e42 <__aeabi_dsub+0x12a>
10006f62:	1c10      	adds	r0, r2, #0
10006f64:	9b01      	ldr	r3, [sp, #4]
10006f66:	4318      	orrs	r0, r3
10006f68:	d100      	bne.n	10006f6c <__aeabi_dsub+0x254>
10006f6a:	e707      	b.n	10006d7c <__aeabi_dsub+0x64>
10006f6c:	2301      	movs	r3, #1
10006f6e:	425b      	negs	r3, r3
10006f70:	469c      	mov	ip, r3
10006f72:	44e2      	add	sl, ip
10006f74:	4653      	mov	r3, sl
10006f76:	2b00      	cmp	r3, #0
10006f78:	d000      	beq.n	10006f7c <__aeabi_dsub+0x264>
10006f7a:	e102      	b.n	10007182 <__aeabi_dsub+0x46a>
10006f7c:	9b01      	ldr	r3, [sp, #4]
10006f7e:	19d2      	adds	r2, r2, r7
10006f80:	1959      	adds	r1, r3, r5
10006f82:	42a9      	cmp	r1, r5
10006f84:	419b      	sbcs	r3, r3
10006f86:	425b      	negs	r3, r3
10006f88:	18d7      	adds	r7, r2, r3
10006f8a:	1c0d      	adds	r5, r1, #0
10006f8c:	e7bc      	b.n	10006f08 <__aeabi_dsub+0x1f0>
10006f8e:	4663      	mov	r3, ip
10006f90:	4303      	orrs	r3, r0
10006f92:	d100      	bne.n	10006f96 <__aeabi_dsub+0x27e>
10006f94:	e128      	b.n	100071e8 <__aeabi_dsub+0x4d0>
10006f96:	1c07      	adds	r7, r0, #0
10006f98:	4665      	mov	r5, ip
10006f9a:	076b      	lsls	r3, r5, #29
10006f9c:	d000      	beq.n	10006fa0 <__aeabi_dsub+0x288>
10006f9e:	e6f0      	b.n	10006d82 <__aeabi_dsub+0x6a>
10006fa0:	2601      	movs	r6, #1
10006fa2:	4643      	mov	r3, r8
10006fa4:	401e      	ands	r6, r3
10006fa6:	e784      	b.n	10006eb2 <__aeabi_dsub+0x19a>
10006fa8:	2e00      	cmp	r6, #0
10006faa:	d000      	beq.n	10006fae <__aeabi_dsub+0x296>
10006fac:	e081      	b.n	100070b2 <__aeabi_dsub+0x39a>
10006fae:	1c60      	adds	r0, r4, #1
10006fb0:	0540      	lsls	r0, r0, #21
10006fb2:	0d40      	lsrs	r0, r0, #21
10006fb4:	2801      	cmp	r0, #1
10006fb6:	dc00      	bgt.n	10006fba <__aeabi_dsub+0x2a2>
10006fb8:	e107      	b.n	100071ca <__aeabi_dsub+0x4b2>
10006fba:	9901      	ldr	r1, [sp, #4]
10006fbc:	1a68      	subs	r0, r5, r1
10006fbe:	4684      	mov	ip, r0
10006fc0:	4565      	cmp	r5, ip
10006fc2:	41b6      	sbcs	r6, r6
10006fc4:	1ab8      	subs	r0, r7, r2
10006fc6:	4276      	negs	r6, r6
10006fc8:	1b86      	subs	r6, r0, r6
10006fca:	0230      	lsls	r0, r6, #8
10006fcc:	d400      	bmi.n	10006fd0 <__aeabi_dsub+0x2b8>
10006fce:	e0a1      	b.n	10007114 <__aeabi_dsub+0x3fc>
10006fd0:	468c      	mov	ip, r1
10006fd2:	1b4d      	subs	r5, r1, r5
10006fd4:	45ac      	cmp	ip, r5
10006fd6:	4189      	sbcs	r1, r1
10006fd8:	1bd2      	subs	r2, r2, r7
10006fda:	4249      	negs	r1, r1
10006fdc:	1a56      	subs	r6, r2, r1
10006fde:	4698      	mov	r8, r3
10006fe0:	e734      	b.n	10006e4c <__aeabi_dsub+0x134>
10006fe2:	2200      	movs	r2, #0
10006fe4:	2500      	movs	r5, #0
10006fe6:	e6ef      	b.n	10006dc8 <__aeabi_dsub+0xb0>
10006fe8:	1c28      	adds	r0, r5, #0
10006fea:	f7fc fe8f 	bl	10003d0c <__clzsi2>
10006fee:	3020      	adds	r0, #32
10006ff0:	1c03      	adds	r3, r0, #0
10006ff2:	3b08      	subs	r3, #8
10006ff4:	2b1f      	cmp	r3, #31
10006ff6:	dc00      	bgt.n	10006ffa <__aeabi_dsub+0x2e2>
10006ff8:	e733      	b.n	10006e62 <__aeabi_dsub+0x14a>
10006ffa:	1c02      	adds	r2, r0, #0
10006ffc:	3a28      	subs	r2, #40	; 0x28
10006ffe:	4095      	lsls	r5, r2
10007000:	1c2a      	adds	r2, r5, #0
10007002:	2500      	movs	r5, #0
10007004:	429c      	cmp	r4, r3
10007006:	dc00      	bgt.n	1000700a <__aeabi_dsub+0x2f2>
10007008:	e736      	b.n	10006e78 <__aeabi_dsub+0x160>
1000700a:	4f1f      	ldr	r7, [pc, #124]	; (10007088 <__aeabi_dsub+0x370>)
1000700c:	1ae4      	subs	r4, r4, r3
1000700e:	4017      	ands	r7, r2
10007010:	e6b4      	b.n	10006d7c <__aeabi_dsub+0x64>
10007012:	9b01      	ldr	r3, [sp, #4]
10007014:	431a      	orrs	r2, r3
10007016:	1e51      	subs	r1, r2, #1
10007018:	418a      	sbcs	r2, r1
1000701a:	b2d3      	uxtb	r3, r2
1000701c:	2200      	movs	r2, #0
1000701e:	e709      	b.n	10006e34 <__aeabi_dsub+0x11c>
10007020:	2b00      	cmp	r3, #0
10007022:	d000      	beq.n	10007026 <__aeabi_dsub+0x30e>
10007024:	e101      	b.n	1000722a <__aeabi_dsub+0x512>
10007026:	1c60      	adds	r0, r4, #1
10007028:	0543      	lsls	r3, r0, #21
1000702a:	0d5b      	lsrs	r3, r3, #21
1000702c:	2b01      	cmp	r3, #1
1000702e:	dc00      	bgt.n	10007032 <__aeabi_dsub+0x31a>
10007030:	e0b0      	b.n	10007194 <__aeabi_dsub+0x47c>
10007032:	4b14      	ldr	r3, [pc, #80]	; (10007084 <__aeabi_dsub+0x36c>)
10007034:	4298      	cmp	r0, r3
10007036:	d100      	bne.n	1000703a <__aeabi_dsub+0x322>
10007038:	e11e      	b.n	10007278 <__aeabi_dsub+0x560>
1000703a:	9b01      	ldr	r3, [sp, #4]
1000703c:	19d2      	adds	r2, r2, r7
1000703e:	1959      	adds	r1, r3, r5
10007040:	42a9      	cmp	r1, r5
10007042:	419b      	sbcs	r3, r3
10007044:	425b      	negs	r3, r3
10007046:	18d2      	adds	r2, r2, r3
10007048:	0849      	lsrs	r1, r1, #1
1000704a:	07d5      	lsls	r5, r2, #31
1000704c:	430d      	orrs	r5, r1
1000704e:	0857      	lsrs	r7, r2, #1
10007050:	1c04      	adds	r4, r0, #0
10007052:	e693      	b.n	10006d7c <__aeabi_dsub+0x64>
10007054:	4b0b      	ldr	r3, [pc, #44]	; (10007084 <__aeabi_dsub+0x36c>)
10007056:	429c      	cmp	r4, r3
10007058:	d000      	beq.n	1000705c <__aeabi_dsub+0x344>
1000705a:	e6d3      	b.n	10006e04 <__aeabi_dsub+0xec>
1000705c:	e68e      	b.n	10006d7c <__aeabi_dsub+0x64>
1000705e:	1c21      	adds	r1, r4, #0
10007060:	1c13      	adds	r3, r2, #0
10007062:	391f      	subs	r1, #31
10007064:	40cb      	lsrs	r3, r1
10007066:	1c19      	adds	r1, r3, #0
10007068:	2f20      	cmp	r7, #32
1000706a:	d100      	bne.n	1000706e <__aeabi_dsub+0x356>
1000706c:	e08e      	b.n	1000718c <__aeabi_dsub+0x474>
1000706e:	233f      	movs	r3, #63	; 0x3f
10007070:	1b1c      	subs	r4, r3, r4
10007072:	40a2      	lsls	r2, r4
10007074:	4315      	orrs	r5, r2
10007076:	1e6a      	subs	r2, r5, #1
10007078:	4195      	sbcs	r5, r2
1000707a:	2700      	movs	r7, #0
1000707c:	430d      	orrs	r5, r1
1000707e:	2400      	movs	r4, #0
10007080:	e78b      	b.n	10006f9a <__aeabi_dsub+0x282>
10007082:	46c0      	nop			; (mov r8, r8)
10007084:	000007ff 	.word	0x000007ff
10007088:	ff7fffff 	.word	0xff7fffff
1000708c:	800fffff 	.word	0x800fffff
10007090:	1c33      	adds	r3, r6, #0
10007092:	1c10      	adds	r0, r2, #0
10007094:	3b20      	subs	r3, #32
10007096:	40d8      	lsrs	r0, r3
10007098:	2e20      	cmp	r6, #32
1000709a:	d079      	beq.n	10007190 <__aeabi_dsub+0x478>
1000709c:	2340      	movs	r3, #64	; 0x40
1000709e:	1b9b      	subs	r3, r3, r6
100070a0:	409a      	lsls	r2, r3
100070a2:	1c13      	adds	r3, r2, #0
100070a4:	9a01      	ldr	r2, [sp, #4]
100070a6:	4313      	orrs	r3, r2
100070a8:	1e59      	subs	r1, r3, #1
100070aa:	418b      	sbcs	r3, r1
100070ac:	2200      	movs	r2, #0
100070ae:	4303      	orrs	r3, r0
100070b0:	e6c0      	b.n	10006e34 <__aeabi_dsub+0x11c>
100070b2:	2c00      	cmp	r4, #0
100070b4:	d053      	beq.n	1000715e <__aeabi_dsub+0x446>
100070b6:	4cc7      	ldr	r4, [pc, #796]	; (100073d4 <__aeabi_dsub+0x6bc>)
100070b8:	42a0      	cmp	r0, r4
100070ba:	d100      	bne.n	100070be <__aeabi_dsub+0x3a6>
100070bc:	e0b0      	b.n	10007220 <__aeabi_dsub+0x508>
100070be:	2480      	movs	r4, #128	; 0x80
100070c0:	4271      	negs	r1, r6
100070c2:	4689      	mov	r9, r1
100070c4:	0424      	lsls	r4, r4, #16
100070c6:	4327      	orrs	r7, r4
100070c8:	4649      	mov	r1, r9
100070ca:	2938      	cmp	r1, #56	; 0x38
100070cc:	dd00      	ble.n	100070d0 <__aeabi_dsub+0x3b8>
100070ce:	e0cd      	b.n	1000726c <__aeabi_dsub+0x554>
100070d0:	291f      	cmp	r1, #31
100070d2:	dd00      	ble.n	100070d6 <__aeabi_dsub+0x3be>
100070d4:	e159      	b.n	1000738a <__aeabi_dsub+0x672>
100070d6:	2420      	movs	r4, #32
100070d8:	1c3e      	adds	r6, r7, #0
100070da:	1a61      	subs	r1, r4, r1
100070dc:	408e      	lsls	r6, r1
100070de:	468a      	mov	sl, r1
100070e0:	46b0      	mov	r8, r6
100070e2:	4649      	mov	r1, r9
100070e4:	1c2e      	adds	r6, r5, #0
100070e6:	40ce      	lsrs	r6, r1
100070e8:	4651      	mov	r1, sl
100070ea:	46b4      	mov	ip, r6
100070ec:	408d      	lsls	r5, r1
100070ee:	4664      	mov	r4, ip
100070f0:	4646      	mov	r6, r8
100070f2:	4649      	mov	r1, r9
100070f4:	4326      	orrs	r6, r4
100070f6:	1e6c      	subs	r4, r5, #1
100070f8:	41a5      	sbcs	r5, r4
100070fa:	40cf      	lsrs	r7, r1
100070fc:	4335      	orrs	r5, r6
100070fe:	9901      	ldr	r1, [sp, #4]
10007100:	1bd7      	subs	r7, r2, r7
10007102:	468c      	mov	ip, r1
10007104:	1b4d      	subs	r5, r1, r5
10007106:	45ac      	cmp	ip, r5
10007108:	4192      	sbcs	r2, r2
1000710a:	4252      	negs	r2, r2
1000710c:	1abf      	subs	r7, r7, r2
1000710e:	1c04      	adds	r4, r0, #0
10007110:	4698      	mov	r8, r3
10007112:	e696      	b.n	10006e42 <__aeabi_dsub+0x12a>
10007114:	4663      	mov	r3, ip
10007116:	4665      	mov	r5, ip
10007118:	4333      	orrs	r3, r6
1000711a:	d000      	beq.n	1000711e <__aeabi_dsub+0x406>
1000711c:	e696      	b.n	10006e4c <__aeabi_dsub+0x134>
1000711e:	2600      	movs	r6, #0
10007120:	2700      	movs	r7, #0
10007122:	2400      	movs	r4, #0
10007124:	2500      	movs	r5, #0
10007126:	e6c4      	b.n	10006eb2 <__aeabi_dsub+0x19a>
10007128:	2b1f      	cmp	r3, #31
1000712a:	dc61      	bgt.n	100071f0 <__aeabi_dsub+0x4d8>
1000712c:	2020      	movs	r0, #32
1000712e:	1ac3      	subs	r3, r0, r3
10007130:	469b      	mov	fp, r3
10007132:	1c13      	adds	r3, r2, #0
10007134:	4659      	mov	r1, fp
10007136:	408b      	lsls	r3, r1
10007138:	4651      	mov	r1, sl
1000713a:	4699      	mov	r9, r3
1000713c:	9b01      	ldr	r3, [sp, #4]
1000713e:	40cb      	lsrs	r3, r1
10007140:	469c      	mov	ip, r3
10007142:	464b      	mov	r3, r9
10007144:	4660      	mov	r0, ip
10007146:	4303      	orrs	r3, r0
10007148:	469c      	mov	ip, r3
1000714a:	465b      	mov	r3, fp
1000714c:	9901      	ldr	r1, [sp, #4]
1000714e:	4099      	lsls	r1, r3
10007150:	4663      	mov	r3, ip
10007152:	1e48      	subs	r0, r1, #1
10007154:	4181      	sbcs	r1, r0
10007156:	4319      	orrs	r1, r3
10007158:	4653      	mov	r3, sl
1000715a:	40da      	lsrs	r2, r3
1000715c:	e6cd      	b.n	10006efa <__aeabi_dsub+0x1e2>
1000715e:	1c3c      	adds	r4, r7, #0
10007160:	432c      	orrs	r4, r5
10007162:	d05d      	beq.n	10007220 <__aeabi_dsub+0x508>
10007164:	43f1      	mvns	r1, r6
10007166:	4689      	mov	r9, r1
10007168:	2900      	cmp	r1, #0
1000716a:	d155      	bne.n	10007218 <__aeabi_dsub+0x500>
1000716c:	9901      	ldr	r1, [sp, #4]
1000716e:	1bd2      	subs	r2, r2, r7
10007170:	468c      	mov	ip, r1
10007172:	1b4d      	subs	r5, r1, r5
10007174:	45ac      	cmp	ip, r5
10007176:	4189      	sbcs	r1, r1
10007178:	4249      	negs	r1, r1
1000717a:	1a57      	subs	r7, r2, r1
1000717c:	1c04      	adds	r4, r0, #0
1000717e:	4698      	mov	r8, r3
10007180:	e65f      	b.n	10006e42 <__aeabi_dsub+0x12a>
10007182:	4894      	ldr	r0, [pc, #592]	; (100073d4 <__aeabi_dsub+0x6bc>)
10007184:	4284      	cmp	r4, r0
10007186:	d000      	beq.n	1000718a <__aeabi_dsub+0x472>
10007188:	e6ad      	b.n	10006ee6 <__aeabi_dsub+0x1ce>
1000718a:	e5f7      	b.n	10006d7c <__aeabi_dsub+0x64>
1000718c:	2200      	movs	r2, #0
1000718e:	e771      	b.n	10007074 <__aeabi_dsub+0x35c>
10007190:	2300      	movs	r3, #0
10007192:	e787      	b.n	100070a4 <__aeabi_dsub+0x38c>
10007194:	1c3b      	adds	r3, r7, #0
10007196:	432b      	orrs	r3, r5
10007198:	2c00      	cmp	r4, #0
1000719a:	d000      	beq.n	1000719e <__aeabi_dsub+0x486>
1000719c:	e0da      	b.n	10007354 <__aeabi_dsub+0x63c>
1000719e:	2b00      	cmp	r3, #0
100071a0:	d100      	bne.n	100071a4 <__aeabi_dsub+0x48c>
100071a2:	e113      	b.n	100073cc <__aeabi_dsub+0x6b4>
100071a4:	1c13      	adds	r3, r2, #0
100071a6:	9901      	ldr	r1, [sp, #4]
100071a8:	430b      	orrs	r3, r1
100071aa:	d100      	bne.n	100071ae <__aeabi_dsub+0x496>
100071ac:	e5e6      	b.n	10006d7c <__aeabi_dsub+0x64>
100071ae:	1949      	adds	r1, r1, r5
100071b0:	42a9      	cmp	r1, r5
100071b2:	419b      	sbcs	r3, r3
100071b4:	19d2      	adds	r2, r2, r7
100071b6:	425b      	negs	r3, r3
100071b8:	18d7      	adds	r7, r2, r3
100071ba:	023b      	lsls	r3, r7, #8
100071bc:	d400      	bmi.n	100071c0 <__aeabi_dsub+0x4a8>
100071be:	e121      	b.n	10007404 <__aeabi_dsub+0x6ec>
100071c0:	4b85      	ldr	r3, [pc, #532]	; (100073d8 <__aeabi_dsub+0x6c0>)
100071c2:	1c0d      	adds	r5, r1, #0
100071c4:	401f      	ands	r7, r3
100071c6:	1c04      	adds	r4, r0, #0
100071c8:	e5d8      	b.n	10006d7c <__aeabi_dsub+0x64>
100071ca:	1c38      	adds	r0, r7, #0
100071cc:	4328      	orrs	r0, r5
100071ce:	2c00      	cmp	r4, #0
100071d0:	d140      	bne.n	10007254 <__aeabi_dsub+0x53c>
100071d2:	2800      	cmp	r0, #0
100071d4:	d000      	beq.n	100071d8 <__aeabi_dsub+0x4c0>
100071d6:	e083      	b.n	100072e0 <__aeabi_dsub+0x5c8>
100071d8:	1c10      	adds	r0, r2, #0
100071da:	9901      	ldr	r1, [sp, #4]
100071dc:	4308      	orrs	r0, r1
100071de:	d003      	beq.n	100071e8 <__aeabi_dsub+0x4d0>
100071e0:	1c17      	adds	r7, r2, #0
100071e2:	1c0d      	adds	r5, r1, #0
100071e4:	4698      	mov	r8, r3
100071e6:	e5c9      	b.n	10006d7c <__aeabi_dsub+0x64>
100071e8:	2600      	movs	r6, #0
100071ea:	2700      	movs	r7, #0
100071ec:	2500      	movs	r5, #0
100071ee:	e660      	b.n	10006eb2 <__aeabi_dsub+0x19a>
100071f0:	4650      	mov	r0, sl
100071f2:	1c13      	adds	r3, r2, #0
100071f4:	3820      	subs	r0, #32
100071f6:	40c3      	lsrs	r3, r0
100071f8:	1c18      	adds	r0, r3, #0
100071fa:	4653      	mov	r3, sl
100071fc:	2b20      	cmp	r3, #32
100071fe:	d100      	bne.n	10007202 <__aeabi_dsub+0x4ea>
10007200:	e0c1      	b.n	10007386 <__aeabi_dsub+0x66e>
10007202:	2340      	movs	r3, #64	; 0x40
10007204:	4651      	mov	r1, sl
10007206:	1a5b      	subs	r3, r3, r1
10007208:	409a      	lsls	r2, r3
1000720a:	9901      	ldr	r1, [sp, #4]
1000720c:	4311      	orrs	r1, r2
1000720e:	1e4a      	subs	r2, r1, #1
10007210:	4191      	sbcs	r1, r2
10007212:	2200      	movs	r2, #0
10007214:	4301      	orrs	r1, r0
10007216:	e670      	b.n	10006efa <__aeabi_dsub+0x1e2>
10007218:	4c6e      	ldr	r4, [pc, #440]	; (100073d4 <__aeabi_dsub+0x6bc>)
1000721a:	42a0      	cmp	r0, r4
1000721c:	d000      	beq.n	10007220 <__aeabi_dsub+0x508>
1000721e:	e753      	b.n	100070c8 <__aeabi_dsub+0x3b0>
10007220:	1c17      	adds	r7, r2, #0
10007222:	9d01      	ldr	r5, [sp, #4]
10007224:	1c04      	adds	r4, r0, #0
10007226:	4698      	mov	r8, r3
10007228:	e5a8      	b.n	10006d7c <__aeabi_dsub+0x64>
1000722a:	2c00      	cmp	r4, #0
1000722c:	d128      	bne.n	10007280 <__aeabi_dsub+0x568>
1000722e:	1c3c      	adds	r4, r7, #0
10007230:	432c      	orrs	r4, r5
10007232:	d100      	bne.n	10007236 <__aeabi_dsub+0x51e>
10007234:	e08a      	b.n	1000734c <__aeabi_dsub+0x634>
10007236:	43db      	mvns	r3, r3
10007238:	469a      	mov	sl, r3
1000723a:	2b00      	cmp	r3, #0
1000723c:	d000      	beq.n	10007240 <__aeabi_dsub+0x528>
1000723e:	e082      	b.n	10007346 <__aeabi_dsub+0x62e>
10007240:	9b01      	ldr	r3, [sp, #4]
10007242:	19d2      	adds	r2, r2, r7
10007244:	469c      	mov	ip, r3
10007246:	4465      	add	r5, ip
10007248:	429d      	cmp	r5, r3
1000724a:	4189      	sbcs	r1, r1
1000724c:	4249      	negs	r1, r1
1000724e:	1857      	adds	r7, r2, r1
10007250:	1c04      	adds	r4, r0, #0
10007252:	e659      	b.n	10006f08 <__aeabi_dsub+0x1f0>
10007254:	2800      	cmp	r0, #0
10007256:	d15b      	bne.n	10007310 <__aeabi_dsub+0x5f8>
10007258:	1c10      	adds	r0, r2, #0
1000725a:	9901      	ldr	r1, [sp, #4]
1000725c:	4308      	orrs	r0, r1
1000725e:	d100      	bne.n	10007262 <__aeabi_dsub+0x54a>
10007260:	e0a4      	b.n	100073ac <__aeabi_dsub+0x694>
10007262:	1c17      	adds	r7, r2, #0
10007264:	1c0d      	adds	r5, r1, #0
10007266:	4698      	mov	r8, r3
10007268:	4c5a      	ldr	r4, [pc, #360]	; (100073d4 <__aeabi_dsub+0x6bc>)
1000726a:	e587      	b.n	10006d7c <__aeabi_dsub+0x64>
1000726c:	433d      	orrs	r5, r7
1000726e:	1e6f      	subs	r7, r5, #1
10007270:	41bd      	sbcs	r5, r7
10007272:	2700      	movs	r7, #0
10007274:	b2ed      	uxtb	r5, r5
10007276:	e742      	b.n	100070fe <__aeabi_dsub+0x3e6>
10007278:	1c04      	adds	r4, r0, #0
1000727a:	2700      	movs	r7, #0
1000727c:	2500      	movs	r5, #0
1000727e:	e618      	b.n	10006eb2 <__aeabi_dsub+0x19a>
10007280:	4c54      	ldr	r4, [pc, #336]	; (100073d4 <__aeabi_dsub+0x6bc>)
10007282:	42a0      	cmp	r0, r4
10007284:	d062      	beq.n	1000734c <__aeabi_dsub+0x634>
10007286:	4653      	mov	r3, sl
10007288:	2480      	movs	r4, #128	; 0x80
1000728a:	425b      	negs	r3, r3
1000728c:	469a      	mov	sl, r3
1000728e:	0424      	lsls	r4, r4, #16
10007290:	4327      	orrs	r7, r4
10007292:	4653      	mov	r3, sl
10007294:	2b38      	cmp	r3, #56	; 0x38
10007296:	dd00      	ble.n	1000729a <__aeabi_dsub+0x582>
10007298:	e08e      	b.n	100073b8 <__aeabi_dsub+0x6a0>
1000729a:	2b1f      	cmp	r3, #31
1000729c:	dd00      	ble.n	100072a0 <__aeabi_dsub+0x588>
1000729e:	e09d      	b.n	100073dc <__aeabi_dsub+0x6c4>
100072a0:	2420      	movs	r4, #32
100072a2:	1ae3      	subs	r3, r4, r3
100072a4:	469b      	mov	fp, r3
100072a6:	1c3b      	adds	r3, r7, #0
100072a8:	4659      	mov	r1, fp
100072aa:	408b      	lsls	r3, r1
100072ac:	4651      	mov	r1, sl
100072ae:	4699      	mov	r9, r3
100072b0:	1c2b      	adds	r3, r5, #0
100072b2:	40cb      	lsrs	r3, r1
100072b4:	469c      	mov	ip, r3
100072b6:	464b      	mov	r3, r9
100072b8:	4664      	mov	r4, ip
100072ba:	4323      	orrs	r3, r4
100072bc:	469c      	mov	ip, r3
100072be:	465b      	mov	r3, fp
100072c0:	409d      	lsls	r5, r3
100072c2:	4663      	mov	r3, ip
100072c4:	1e6c      	subs	r4, r5, #1
100072c6:	41a5      	sbcs	r5, r4
100072c8:	40cf      	lsrs	r7, r1
100072ca:	431d      	orrs	r5, r3
100072cc:	9b01      	ldr	r3, [sp, #4]
100072ce:	18bf      	adds	r7, r7, r2
100072d0:	469c      	mov	ip, r3
100072d2:	4465      	add	r5, ip
100072d4:	429d      	cmp	r5, r3
100072d6:	4192      	sbcs	r2, r2
100072d8:	4252      	negs	r2, r2
100072da:	18bf      	adds	r7, r7, r2
100072dc:	1c04      	adds	r4, r0, #0
100072de:	e613      	b.n	10006f08 <__aeabi_dsub+0x1f0>
100072e0:	1c10      	adds	r0, r2, #0
100072e2:	9901      	ldr	r1, [sp, #4]
100072e4:	4308      	orrs	r0, r1
100072e6:	d100      	bne.n	100072ea <__aeabi_dsub+0x5d2>
100072e8:	e548      	b.n	10006d7c <__aeabi_dsub+0x64>
100072ea:	1a68      	subs	r0, r5, r1
100072ec:	4684      	mov	ip, r0
100072ee:	4285      	cmp	r5, r0
100072f0:	4180      	sbcs	r0, r0
100072f2:	1abe      	subs	r6, r7, r2
100072f4:	4240      	negs	r0, r0
100072f6:	1a30      	subs	r0, r6, r0
100072f8:	0206      	lsls	r6, r0, #8
100072fa:	d400      	bmi.n	100072fe <__aeabi_dsub+0x5e6>
100072fc:	e647      	b.n	10006f8e <__aeabi_dsub+0x276>
100072fe:	468c      	mov	ip, r1
10007300:	1b4d      	subs	r5, r1, r5
10007302:	45ac      	cmp	ip, r5
10007304:	4189      	sbcs	r1, r1
10007306:	1bd2      	subs	r2, r2, r7
10007308:	4249      	negs	r1, r1
1000730a:	1a57      	subs	r7, r2, r1
1000730c:	4698      	mov	r8, r3
1000730e:	e535      	b.n	10006d7c <__aeabi_dsub+0x64>
10007310:	1c10      	adds	r0, r2, #0
10007312:	9901      	ldr	r1, [sp, #4]
10007314:	4308      	orrs	r0, r1
10007316:	d034      	beq.n	10007382 <__aeabi_dsub+0x66a>
10007318:	2480      	movs	r4, #128	; 0x80
1000731a:	0778      	lsls	r0, r7, #29
1000731c:	08ed      	lsrs	r5, r5, #3
1000731e:	08ff      	lsrs	r7, r7, #3
10007320:	0324      	lsls	r4, r4, #12
10007322:	4328      	orrs	r0, r5
10007324:	4227      	tst	r7, r4
10007326:	d008      	beq.n	1000733a <__aeabi_dsub+0x622>
10007328:	08d6      	lsrs	r6, r2, #3
1000732a:	4226      	tst	r6, r4
1000732c:	d105      	bne.n	1000733a <__aeabi_dsub+0x622>
1000732e:	08c9      	lsrs	r1, r1, #3
10007330:	0752      	lsls	r2, r2, #29
10007332:	430a      	orrs	r2, r1
10007334:	1c10      	adds	r0, r2, #0
10007336:	1c37      	adds	r7, r6, #0
10007338:	4698      	mov	r8, r3
1000733a:	00ff      	lsls	r7, r7, #3
1000733c:	0f42      	lsrs	r2, r0, #29
1000733e:	4317      	orrs	r7, r2
10007340:	00c5      	lsls	r5, r0, #3
10007342:	4c24      	ldr	r4, [pc, #144]	; (100073d4 <__aeabi_dsub+0x6bc>)
10007344:	e51a      	b.n	10006d7c <__aeabi_dsub+0x64>
10007346:	4c23      	ldr	r4, [pc, #140]	; (100073d4 <__aeabi_dsub+0x6bc>)
10007348:	42a0      	cmp	r0, r4
1000734a:	d1a2      	bne.n	10007292 <__aeabi_dsub+0x57a>
1000734c:	1c17      	adds	r7, r2, #0
1000734e:	9d01      	ldr	r5, [sp, #4]
10007350:	1c04      	adds	r4, r0, #0
10007352:	e513      	b.n	10006d7c <__aeabi_dsub+0x64>
10007354:	2b00      	cmp	r3, #0
10007356:	d035      	beq.n	100073c4 <__aeabi_dsub+0x6ac>
10007358:	1c13      	adds	r3, r2, #0
1000735a:	9901      	ldr	r1, [sp, #4]
1000735c:	430b      	orrs	r3, r1
1000735e:	d010      	beq.n	10007382 <__aeabi_dsub+0x66a>
10007360:	2480      	movs	r4, #128	; 0x80
10007362:	0778      	lsls	r0, r7, #29
10007364:	08ed      	lsrs	r5, r5, #3
10007366:	08ff      	lsrs	r7, r7, #3
10007368:	0324      	lsls	r4, r4, #12
1000736a:	4328      	orrs	r0, r5
1000736c:	4227      	tst	r7, r4
1000736e:	d0e4      	beq.n	1000733a <__aeabi_dsub+0x622>
10007370:	08d3      	lsrs	r3, r2, #3
10007372:	4223      	tst	r3, r4
10007374:	d1e1      	bne.n	1000733a <__aeabi_dsub+0x622>
10007376:	08c9      	lsrs	r1, r1, #3
10007378:	0752      	lsls	r2, r2, #29
1000737a:	430a      	orrs	r2, r1
1000737c:	1c10      	adds	r0, r2, #0
1000737e:	1c1f      	adds	r7, r3, #0
10007380:	e7db      	b.n	1000733a <__aeabi_dsub+0x622>
10007382:	4c14      	ldr	r4, [pc, #80]	; (100073d4 <__aeabi_dsub+0x6bc>)
10007384:	e4fa      	b.n	10006d7c <__aeabi_dsub+0x64>
10007386:	2200      	movs	r2, #0
10007388:	e73f      	b.n	1000720a <__aeabi_dsub+0x4f2>
1000738a:	464c      	mov	r4, r9
1000738c:	1c3e      	adds	r6, r7, #0
1000738e:	3c20      	subs	r4, #32
10007390:	40e6      	lsrs	r6, r4
10007392:	4649      	mov	r1, r9
10007394:	1c34      	adds	r4, r6, #0
10007396:	2920      	cmp	r1, #32
10007398:	d032      	beq.n	10007400 <__aeabi_dsub+0x6e8>
1000739a:	2640      	movs	r6, #64	; 0x40
1000739c:	1a76      	subs	r6, r6, r1
1000739e:	40b7      	lsls	r7, r6
100073a0:	433d      	orrs	r5, r7
100073a2:	1e6f      	subs	r7, r5, #1
100073a4:	41bd      	sbcs	r5, r7
100073a6:	2700      	movs	r7, #0
100073a8:	4325      	orrs	r5, r4
100073aa:	e6a8      	b.n	100070fe <__aeabi_dsub+0x3e6>
100073ac:	2780      	movs	r7, #128	; 0x80
100073ae:	2600      	movs	r6, #0
100073b0:	03ff      	lsls	r7, r7, #15
100073b2:	4c08      	ldr	r4, [pc, #32]	; (100073d4 <__aeabi_dsub+0x6bc>)
100073b4:	2500      	movs	r5, #0
100073b6:	e57c      	b.n	10006eb2 <__aeabi_dsub+0x19a>
100073b8:	433d      	orrs	r5, r7
100073ba:	1e6f      	subs	r7, r5, #1
100073bc:	41bd      	sbcs	r5, r7
100073be:	2700      	movs	r7, #0
100073c0:	b2ed      	uxtb	r5, r5
100073c2:	e783      	b.n	100072cc <__aeabi_dsub+0x5b4>
100073c4:	1c17      	adds	r7, r2, #0
100073c6:	9d01      	ldr	r5, [sp, #4]
100073c8:	4c02      	ldr	r4, [pc, #8]	; (100073d4 <__aeabi_dsub+0x6bc>)
100073ca:	e4d7      	b.n	10006d7c <__aeabi_dsub+0x64>
100073cc:	1c17      	adds	r7, r2, #0
100073ce:	9d01      	ldr	r5, [sp, #4]
100073d0:	e4d4      	b.n	10006d7c <__aeabi_dsub+0x64>
100073d2:	46c0      	nop			; (mov r8, r8)
100073d4:	000007ff 	.word	0x000007ff
100073d8:	ff7fffff 	.word	0xff7fffff
100073dc:	4654      	mov	r4, sl
100073de:	1c3b      	adds	r3, r7, #0
100073e0:	3c20      	subs	r4, #32
100073e2:	40e3      	lsrs	r3, r4
100073e4:	1c1c      	adds	r4, r3, #0
100073e6:	4653      	mov	r3, sl
100073e8:	2b20      	cmp	r3, #32
100073ea:	d00d      	beq.n	10007408 <__aeabi_dsub+0x6f0>
100073ec:	2340      	movs	r3, #64	; 0x40
100073ee:	4651      	mov	r1, sl
100073f0:	1a5b      	subs	r3, r3, r1
100073f2:	409f      	lsls	r7, r3
100073f4:	433d      	orrs	r5, r7
100073f6:	1e6f      	subs	r7, r5, #1
100073f8:	41bd      	sbcs	r5, r7
100073fa:	2700      	movs	r7, #0
100073fc:	4325      	orrs	r5, r4
100073fe:	e765      	b.n	100072cc <__aeabi_dsub+0x5b4>
10007400:	2700      	movs	r7, #0
10007402:	e7cd      	b.n	100073a0 <__aeabi_dsub+0x688>
10007404:	1c0d      	adds	r5, r1, #0
10007406:	e5c8      	b.n	10006f9a <__aeabi_dsub+0x282>
10007408:	2700      	movs	r7, #0
1000740a:	e7f3      	b.n	100073f4 <__aeabi_dsub+0x6dc>

1000740c <__aeabi_d2iz>:
1000740c:	030b      	lsls	r3, r1, #12
1000740e:	b530      	push	{r4, r5, lr}
10007410:	4c13      	ldr	r4, [pc, #76]	; (10007460 <__aeabi_d2iz+0x54>)
10007412:	0b1a      	lsrs	r2, r3, #12
10007414:	004b      	lsls	r3, r1, #1
10007416:	1c05      	adds	r5, r0, #0
10007418:	0d5b      	lsrs	r3, r3, #21
1000741a:	0fc9      	lsrs	r1, r1, #31
1000741c:	2000      	movs	r0, #0
1000741e:	42a3      	cmp	r3, r4
10007420:	dd10      	ble.n	10007444 <__aeabi_d2iz+0x38>
10007422:	4810      	ldr	r0, [pc, #64]	; (10007464 <__aeabi_d2iz+0x58>)
10007424:	4283      	cmp	r3, r0
10007426:	dc0e      	bgt.n	10007446 <__aeabi_d2iz+0x3a>
10007428:	2080      	movs	r0, #128	; 0x80
1000742a:	4c0f      	ldr	r4, [pc, #60]	; (10007468 <__aeabi_d2iz+0x5c>)
1000742c:	0340      	lsls	r0, r0, #13
1000742e:	4302      	orrs	r2, r0
10007430:	1ae4      	subs	r4, r4, r3
10007432:	2c1f      	cmp	r4, #31
10007434:	dd0a      	ble.n	1000744c <__aeabi_d2iz+0x40>
10007436:	480d      	ldr	r0, [pc, #52]	; (1000746c <__aeabi_d2iz+0x60>)
10007438:	1ac3      	subs	r3, r0, r3
1000743a:	40da      	lsrs	r2, r3
1000743c:	1c13      	adds	r3, r2, #0
1000743e:	4248      	negs	r0, r1
10007440:	4043      	eors	r3, r0
10007442:	1858      	adds	r0, r3, r1
10007444:	bd30      	pop	{r4, r5, pc}
10007446:	4b0a      	ldr	r3, [pc, #40]	; (10007470 <__aeabi_d2iz+0x64>)
10007448:	18c8      	adds	r0, r1, r3
1000744a:	e7fb      	b.n	10007444 <__aeabi_d2iz+0x38>
1000744c:	1c28      	adds	r0, r5, #0
1000744e:	40e0      	lsrs	r0, r4
10007450:	4c08      	ldr	r4, [pc, #32]	; (10007474 <__aeabi_d2iz+0x68>)
10007452:	46a4      	mov	ip, r4
10007454:	4463      	add	r3, ip
10007456:	409a      	lsls	r2, r3
10007458:	1c13      	adds	r3, r2, #0
1000745a:	4303      	orrs	r3, r0
1000745c:	e7ef      	b.n	1000743e <__aeabi_d2iz+0x32>
1000745e:	46c0      	nop			; (mov r8, r8)
10007460:	000003fe 	.word	0x000003fe
10007464:	0000041d 	.word	0x0000041d
10007468:	00000433 	.word	0x00000433
1000746c:	00000413 	.word	0x00000413
10007470:	7fffffff 	.word	0x7fffffff
10007474:	fffffbed 	.word	0xfffffbed

10007478 <__aeabi_i2d>:
10007478:	b538      	push	{r3, r4, r5, lr}
1000747a:	1e04      	subs	r4, r0, #0
1000747c:	d016      	beq.n	100074ac <__aeabi_i2d+0x34>
1000747e:	0fc5      	lsrs	r5, r0, #31
10007480:	d000      	beq.n	10007484 <__aeabi_i2d+0xc>
10007482:	4244      	negs	r4, r0
10007484:	1c20      	adds	r0, r4, #0
10007486:	f7fc fc41 	bl	10003d0c <__clzsi2>
1000748a:	4b17      	ldr	r3, [pc, #92]	; (100074e8 <__aeabi_i2d+0x70>)
1000748c:	1a1b      	subs	r3, r3, r0
1000748e:	280a      	cmp	r0, #10
10007490:	dc21      	bgt.n	100074d6 <__aeabi_i2d+0x5e>
10007492:	1c02      	adds	r2, r0, #0
10007494:	1c21      	adds	r1, r4, #0
10007496:	3215      	adds	r2, #21
10007498:	4091      	lsls	r1, r2
1000749a:	1c0a      	adds	r2, r1, #0
1000749c:	210b      	movs	r1, #11
1000749e:	1a08      	subs	r0, r1, r0
100074a0:	40c4      	lsrs	r4, r0
100074a2:	055b      	lsls	r3, r3, #21
100074a4:	0324      	lsls	r4, r4, #12
100074a6:	0b24      	lsrs	r4, r4, #12
100074a8:	0d5b      	lsrs	r3, r3, #21
100074aa:	e003      	b.n	100074b4 <__aeabi_i2d+0x3c>
100074ac:	2500      	movs	r5, #0
100074ae:	2300      	movs	r3, #0
100074b0:	2400      	movs	r4, #0
100074b2:	2200      	movs	r2, #0
100074b4:	2100      	movs	r1, #0
100074b6:	1c10      	adds	r0, r2, #0
100074b8:	0324      	lsls	r4, r4, #12
100074ba:	0d0a      	lsrs	r2, r1, #20
100074bc:	0512      	lsls	r2, r2, #20
100074be:	0b24      	lsrs	r4, r4, #12
100074c0:	4314      	orrs	r4, r2
100074c2:	4a0a      	ldr	r2, [pc, #40]	; (100074ec <__aeabi_i2d+0x74>)
100074c4:	051b      	lsls	r3, r3, #20
100074c6:	4014      	ands	r4, r2
100074c8:	431c      	orrs	r4, r3
100074ca:	0064      	lsls	r4, r4, #1
100074cc:	07ed      	lsls	r5, r5, #31
100074ce:	0864      	lsrs	r4, r4, #1
100074d0:	432c      	orrs	r4, r5
100074d2:	1c21      	adds	r1, r4, #0
100074d4:	bd38      	pop	{r3, r4, r5, pc}
100074d6:	380b      	subs	r0, #11
100074d8:	4084      	lsls	r4, r0
100074da:	055b      	lsls	r3, r3, #21
100074dc:	0324      	lsls	r4, r4, #12
100074de:	0b24      	lsrs	r4, r4, #12
100074e0:	0d5b      	lsrs	r3, r3, #21
100074e2:	2200      	movs	r2, #0
100074e4:	e7e6      	b.n	100074b4 <__aeabi_i2d+0x3c>
100074e6:	46c0      	nop			; (mov r8, r8)
100074e8:	0000041e 	.word	0x0000041e
100074ec:	800fffff 	.word	0x800fffff

100074f0 <__aeabi_ui2d>:
100074f0:	b510      	push	{r4, lr}
100074f2:	1e04      	subs	r4, r0, #0
100074f4:	d010      	beq.n	10007518 <__aeabi_ui2d+0x28>
100074f6:	f7fc fc09 	bl	10003d0c <__clzsi2>
100074fa:	4a14      	ldr	r2, [pc, #80]	; (1000754c <__aeabi_ui2d+0x5c>)
100074fc:	1a12      	subs	r2, r2, r0
100074fe:	280a      	cmp	r0, #10
10007500:	dc1a      	bgt.n	10007538 <__aeabi_ui2d+0x48>
10007502:	230b      	movs	r3, #11
10007504:	1c21      	adds	r1, r4, #0
10007506:	1a1b      	subs	r3, r3, r0
10007508:	40d9      	lsrs	r1, r3
1000750a:	3015      	adds	r0, #21
1000750c:	030b      	lsls	r3, r1, #12
1000750e:	0552      	lsls	r2, r2, #21
10007510:	4084      	lsls	r4, r0
10007512:	0b1b      	lsrs	r3, r3, #12
10007514:	0d52      	lsrs	r2, r2, #21
10007516:	e001      	b.n	1000751c <__aeabi_ui2d+0x2c>
10007518:	2200      	movs	r2, #0
1000751a:	2300      	movs	r3, #0
1000751c:	2100      	movs	r1, #0
1000751e:	031b      	lsls	r3, r3, #12
10007520:	1c20      	adds	r0, r4, #0
10007522:	0b1c      	lsrs	r4, r3, #12
10007524:	0d0b      	lsrs	r3, r1, #20
10007526:	051b      	lsls	r3, r3, #20
10007528:	4323      	orrs	r3, r4
1000752a:	4c09      	ldr	r4, [pc, #36]	; (10007550 <__aeabi_ui2d+0x60>)
1000752c:	0512      	lsls	r2, r2, #20
1000752e:	4023      	ands	r3, r4
10007530:	4313      	orrs	r3, r2
10007532:	005b      	lsls	r3, r3, #1
10007534:	0859      	lsrs	r1, r3, #1
10007536:	bd10      	pop	{r4, pc}
10007538:	1c03      	adds	r3, r0, #0
1000753a:	3b0b      	subs	r3, #11
1000753c:	409c      	lsls	r4, r3
1000753e:	0552      	lsls	r2, r2, #21
10007540:	0323      	lsls	r3, r4, #12
10007542:	0b1b      	lsrs	r3, r3, #12
10007544:	0d52      	lsrs	r2, r2, #21
10007546:	2400      	movs	r4, #0
10007548:	e7e8      	b.n	1000751c <__aeabi_ui2d+0x2c>
1000754a:	46c0      	nop			; (mov r8, r8)
1000754c:	0000041e 	.word	0x0000041e
10007550:	800fffff 	.word	0x800fffff
10007554:	10001af2 	.word	0x10001af2
10007558:	10001af2 	.word	0x10001af2
1000755c:	10001afc 	.word	0x10001afc
10007560:	10001afc 	.word	0x10001afc
10007564:	10001b2a 	.word	0x10001b2a
10007568:	10001b2a 	.word	0x10001b2a
1000756c:	10001b2a 	.word	0x10001b2a
10007570:	10001b2a 	.word	0x10001b2a
10007574:	10001b06 	.word	0x10001b06
10007578:	10001b12 	.word	0x10001b12
1000757c:	10001b1e 	.word	0x10001b1e
10007580:	10001b1e 	.word	0x10001b1e

10007584 <PWM_CCU4_LED_STATUS_timer_handle>:
	...

1000758c <PWM_CCU4_LED_STATUS_event0_config>:
1000758c:	00010000                                ....

10007590 <PWM_CCU4_LED_STATUS_event1_config>:
10007590:	00010000                                ....

10007594 <PWM_CCU4_LED_STATUS_event2_config>:
10007594:	00010000                                ....

10007598 <PWM_CCU4_LED_STATUS_config_handle>:
10007598:	f9ff0001 0000e600 00000000 00000000     ................
100075a8:	00000000 1000758c 10007590 10007594     .....u...u...u..
	...
100075c4:	01000000 00000000 04000000 10007584     .............u..
	...
100075e4:	20000548                                H.. 

100075e8 <global_config>:
	...

100075fc <IO_USB_SI>:
100075fc:	40040200 00000080 00010000 00000000     ...@............

1000760c <IO_USB_OE>:
1000760c:	40040000 00000080 00010000 00000009     ...@............

1000761c <IO_LED_R_STATUS>:
1000761c:	40040000 000000a0 00010000 00000006     ...@............

1000762c <IO_SW_USB>:
1000762c:	40040000 00000010 00000000 00000008     ...@............

1000763c <IO_SW_UP>:
1000763c:	40040200 00000010 00000000 00000007     ...@............

1000764c <IO_SW_DOWN>:
1000764c:	40040200 00000010 00000000 00000009     ...@............

1000765c <IO_USBPWR_2>:
1000765c:	40040000 00000080 00010000 00000005     ...@............

1000766c <IO_USBPWR_1>:
1000766c:	40040200 00000080 00010000 0000000a     ...@............

1000767c <IO_RELAY>:
1000767c:	40040000 00000080 00010000 00000007     ...@............

1000768c <IO_LED_USB2>:
1000768c:	40040000 00000080 00010000 00000000     ...@............

1000769c <IO_LED_USB1>:
1000769c:	40040200 00000080 00010000 0000000b     ...@............
100076ac:	00000100 00010000 00000000              ............

100076b8 <global_iclass_config>:
100076b8:	0000001f                                ....

100076bc <global_result_intr_handle>:
100076bc:	0000000f 00000003                       ........

100076c4 <backgnd_config>:
100076c4:	00000005 00000000 00000000 100030c6     .............0..
100076d4:	100030d4 100030e0 10003110 10003162     .0...0...1..b1..
100076e4:	4e490043 6e690046 414e0066 616e004e     C.INF.inf.NAN.na
100076f4:	0030006e 69666e49 7974696e 4e614e00     n.0.Infinity.NaN
10007704:	534f5000 2e005849 00000000              .POSIX......

10007710 <__mprec_tens>:
10007710:	00000000 3ff00000 00000000 40240000     .......?......$@
10007720:	00000000 40590000 00000000 408f4000     ......Y@.....@.@
10007730:	00000000 40c38800 00000000 40f86a00     .......@.....j.@
10007740:	00000000 412e8480 00000000 416312d0     .......A......cA
10007750:	00000000 4197d784 00000000 41cdcd65     .......A....e..A
10007760:	20000000 4202a05f e8000000 42374876     ... _..B....vH7B
10007770:	a2000000 426d1a94 e5400000 42a2309c     ......mB..@..0.B
10007780:	1e900000 42d6bcc4 26340000 430c6bf5     .......B..4&.k.C
10007790:	37e08000 4341c379 85d8a000 43763457     ...7y.AC....W4vC
100077a0:	674ec800 43abc16d 60913d00 43e158e4     ..Ngm..C.=.`.X.C
100077b0:	78b58c40 4415af1d d6e2ef50 444b1ae4     @..x...DP.....KD
100077c0:	064dd592 4480f0cf c7e14af6 44b52d02     ..M....D.J...-.D
100077d0:	79d99db4 44ea7843                       ...yCx.D

100077d8 <__mprec_bigtens>:
100077d8:	37e08000 4341c379 b5056e17 4693b8b5     ...7y.AC.n.....F
100077e8:	e93ff9f5 4d384f03 f9301d32 5a827748     ..?..O8M2.0.Hw.Z
100077f8:	7f73bf3c 75154fdd                       <.s..O.u

10007800 <p05.5277>:
10007800:	00000005 00000019 0000007d 1000613c     ........}...<a..
10007810:	1000602a 10006110 10006016 10006110     *`...a...`...a..
10007820:	1000611a 10006110 10006016 1000602a     .a...a...`..*`..
10007830:	1000602a 1000611a 10006016 10006020     *`...a...`.. `..
10007840:	10006020 10006020 10006382 100069d0      `.. `...c...i..
10007850:	100069ae 100069ae 100069a2 10006896     .i...i...i...h..
10007860:	10006896 10006996 100069a2 10006896     .h...i...i...h..
10007870:	10006996 10006896 100069a2 1000689a     .i...h...i...h..
10007880:	1000689a 1000689a 10006bb0              .h...h...k..

Disassembly of section .VENEER_Code:

2000000c <HardFault_Veneer>:
    
    .align 1
    
    .globl HardFault_Veneer
HardFault_Veneer:
    LDR R0, =HardFault_Handler
2000000c:	482c      	ldr	r0, [pc, #176]	; (200000c0 <CCU40_3_Veneer+0x20>)
    MOV PC,R0
2000000e:	4687      	mov	pc, r0
	...

2000002c <SVC_Veneer>:
    .long 0
    
/* ======================================================================== */
    .globl SVC_Veneer
SVC_Veneer:
    LDR R0, =SVC_Handler
2000002c:	4825      	ldr	r0, [pc, #148]	; (200000c4 <CCU40_3_Veneer+0x24>)
    MOV PC,R0
2000002e:	4687      	mov	pc, r0
	...

20000038 <PendSV_Veneer>:
    .long 0
    .long 0
/* ======================================================================== */
    .globl PendSV_Veneer
PendSV_Veneer:
    LDR R0, =PendSV_Handler
20000038:	4823      	ldr	r0, [pc, #140]	; (200000c8 <CCU40_3_Veneer+0x28>)
    MOV PC,R0
2000003a:	4687      	mov	pc, r0

2000003c <SysTick_Veneer>:
/* ======================================================================== */
    .globl SysTick_Veneer 
SysTick_Veneer:
    LDR R0, =SysTick_Handler
2000003c:	4823      	ldr	r0, [pc, #140]	; (200000cc <CCU40_3_Veneer+0x2c>)
    MOV PC,R0
2000003e:	4687      	mov	pc, r0

20000040 <SCU_0_Veneer>:
/* ======================================================================== */
    .globl SCU_0_Veneer 
SCU_0_Veneer:
    LDR R0, =SCU_0_IRQHandler
20000040:	4823      	ldr	r0, [pc, #140]	; (200000d0 <CCU40_3_Veneer+0x30>)
    MOV PC,R0
20000042:	4687      	mov	pc, r0

20000044 <SCU_1_Veneer>:
/* ======================================================================== */
    .globl SCU_1_Veneer 
SCU_1_Veneer:
    LDR R0, =SCU_1_IRQHandler
20000044:	4823      	ldr	r0, [pc, #140]	; (200000d4 <CCU40_3_Veneer+0x34>)
    MOV PC,R0
20000046:	4687      	mov	pc, r0

20000048 <SCU_2_Veneer>:
/* ======================================================================== */
    .globl SCU_2_Veneer
SCU_2_Veneer:
    LDR R0, =SCU_2_IRQHandler
20000048:	4823      	ldr	r0, [pc, #140]	; (200000d8 <CCU40_3_Veneer+0x38>)
    MOV PC,R0
2000004a:	4687      	mov	pc, r0

2000004c <SCU_3_Veneer>:
/* ======================================================================== */
    .globl SCU_3_Veneer 
SCU_3_Veneer:
    LDR R0, =ERU0_0_IRQHandler
2000004c:	4823      	ldr	r0, [pc, #140]	; (200000dc <CCU40_3_Veneer+0x3c>)
    MOV PC,R0
2000004e:	4687      	mov	pc, r0

20000050 <SCU_4_Veneer>:
/* ======================================================================== */
    .globl SCU_4_Veneer 
SCU_4_Veneer:
    LDR R0, =ERU0_1_IRQHandler
20000050:	4823      	ldr	r0, [pc, #140]	; (200000e0 <CCU40_3_Veneer+0x40>)
    MOV PC,R0
20000052:	4687      	mov	pc, r0

20000054 <SCU_5_Veneer>:
/* ======================================================================== */
    .globl SCU_5_Veneer 
SCU_5_Veneer:
    LDR R0, =ERU0_2_IRQHandler
20000054:	4823      	ldr	r0, [pc, #140]	; (200000e4 <CCU40_3_Veneer+0x44>)
    MOV PC,R0
20000056:	4687      	mov	pc, r0

20000058 <SCU_6_Veneer>:
/* ======================================================================== */
    .globl SCU_6_Veneer 
SCU_6_Veneer:
    LDR R0, =ERU0_3_IRQHandler
20000058:	4823      	ldr	r0, [pc, #140]	; (200000e8 <CCU40_3_Veneer+0x48>)
    MOV PC,R0
2000005a:	4687      	mov	pc, r0
	...

20000064 <USIC0_0_Veneer>:
    .long 0
    .long 0
/* ======================================================================== */
    .globl USIC0_0_Veneer
USIC0_0_Veneer:
    LDR R0, =USIC0_0_IRQHandler
20000064:	4821      	ldr	r0, [pc, #132]	; (200000ec <CCU40_3_Veneer+0x4c>)
    MOV PC,R0
20000066:	4687      	mov	pc, r0

20000068 <USIC0_1_Veneer>:
/* ======================================================================== */
    .globl USIC0_1_Veneer
USIC0_1_Veneer:
    LDR R0, =USIC0_1_IRQHandler
20000068:	4821      	ldr	r0, [pc, #132]	; (200000f0 <CCU40_3_Veneer+0x50>)
    MOV PC,R0
2000006a:	4687      	mov	pc, r0

2000006c <USIC0_2_Veneer>:
/* ======================================================================== */
    .globl USIC0_2_Veneer
USIC0_2_Veneer:
    LDR R0, =USIC0_2_IRQHandler
2000006c:	4821      	ldr	r0, [pc, #132]	; (200000f4 <CCU40_3_Veneer+0x54>)
    MOV PC,R0
2000006e:	4687      	mov	pc, r0

20000070 <USIC0_3_Veneer>:
/* ======================================================================== */
    .globl USIC0_3_Veneer
USIC0_3_Veneer:
    LDR R0, =USIC0_3_IRQHandler
20000070:	4821      	ldr	r0, [pc, #132]	; (200000f8 <CCU40_3_Veneer+0x58>)
    MOV PC,R0
20000072:	4687      	mov	pc, r0

20000074 <USIC0_4_Veneer>:
/* ======================================================================== */
    .globl USIC0_4_Veneer
USIC0_4_Veneer:
    LDR R0, =USIC0_4_IRQHandler
20000074:	4821      	ldr	r0, [pc, #132]	; (200000fc <CCU40_3_Veneer+0x5c>)
    MOV PC,R0
20000076:	4687      	mov	pc, r0

20000078 <USIC0_5_Veneer>:
/* ======================================================================== */
    .globl USIC0_5_Veneer
USIC0_5_Veneer:
    LDR R0, =USIC0_5_IRQHandler
20000078:	4821      	ldr	r0, [pc, #132]	; (20000100 <CCU40_3_Veneer+0x60>)
    MOV PC,R0
2000007a:	4687      	mov	pc, r0

2000007c <VADC0_C0_0_Veneer>:
/* ======================================================================== */
    .globl VADC0_C0_0_Veneer 
VADC0_C0_0_Veneer:
    LDR R0, =VADC0_C0_0_IRQHandler
2000007c:	4821      	ldr	r0, [pc, #132]	; (20000104 <CCU40_3_Veneer+0x64>)
    MOV PC,R0
2000007e:	4687      	mov	pc, r0

20000080 <VADC0_C0_1_Veneer>:
/* ======================================================================== */
    .globl VADC0_C0_1_Veneer
VADC0_C0_1_Veneer:
    LDR R0, =VADC0_C0_1_IRQHandler
20000080:	4821      	ldr	r0, [pc, #132]	; (20000108 <CCU40_3_Veneer+0x68>)
    MOV PC,R0
20000082:	4687      	mov	pc, r0
	...

20000094 <CCU40_0_Veneer>:
    .long 0
    .long 0
/* ======================================================================== */
    .globl CCU40_0_Veneer
CCU40_0_Veneer:
    LDR R0, =CCU40_0_IRQHandler
20000094:	481d      	ldr	r0, [pc, #116]	; (2000010c <CCU40_3_Veneer+0x6c>)
    MOV PC,R0
20000096:	4687      	mov	pc, r0

20000098 <CCU40_1_Veneer>:
/* ======================================================================== */
    .globl CCU40_1_Veneer
CCU40_1_Veneer:
    LDR R0, =CCU40_1_IRQHandler
20000098:	481d      	ldr	r0, [pc, #116]	; (20000110 <CCU40_3_Veneer+0x70>)
    MOV PC,R0
2000009a:	4687      	mov	pc, r0

2000009c <CCU40_2_Veneer>:
/* ======================================================================== */
    .globl CCU40_2_Veneer
CCU40_2_Veneer:
    LDR R0, =CCU40_2_IRQHandler
2000009c:	481d      	ldr	r0, [pc, #116]	; (20000114 <CCU40_3_Veneer+0x74>)
    MOV PC,R0
2000009e:	4687      	mov	pc, r0

200000a0 <CCU40_3_Veneer>:
/* ======================================================================== */
    .globl CCU40_3_Veneer
CCU40_3_Veneer:
    LDR R0, =CCU40_3_IRQHandler
200000a0:	481d      	ldr	r0, [pc, #116]	; (20000118 <CCU40_3_Veneer+0x78>)
    MOV PC,R0
200000a2:	4687      	mov	pc, r0
	...
    
    .align 1
    
    .globl HardFault_Veneer
HardFault_Veneer:
    LDR R0, =HardFault_Handler
200000c0:	10001099 	.word	0x10001099
    .long 0
    
/* ======================================================================== */
    .globl SVC_Veneer
SVC_Veneer:
    LDR R0, =SVC_Handler
200000c4:	10001099 	.word	0x10001099
    .long 0
    .long 0
/* ======================================================================== */
    .globl PendSV_Veneer
PendSV_Veneer:
    LDR R0, =PendSV_Handler
200000c8:	10001099 	.word	0x10001099
    MOV PC,R0
/* ======================================================================== */
    .globl SysTick_Veneer 
SysTick_Veneer:
    LDR R0, =SysTick_Handler
200000cc:	10002215 	.word	0x10002215
    MOV PC,R0
/* ======================================================================== */
    .globl SCU_0_Veneer 
SCU_0_Veneer:
    LDR R0, =SCU_0_IRQHandler
200000d0:	10001099 	.word	0x10001099
    MOV PC,R0
/* ======================================================================== */
    .globl SCU_1_Veneer 
SCU_1_Veneer:
    LDR R0, =SCU_1_IRQHandler
200000d4:	10001099 	.word	0x10001099
    MOV PC,R0
/* ======================================================================== */
    .globl SCU_2_Veneer
SCU_2_Veneer:
    LDR R0, =SCU_2_IRQHandler
200000d8:	10001099 	.word	0x10001099
    MOV PC,R0
/* ======================================================================== */
    .globl SCU_3_Veneer 
SCU_3_Veneer:
    LDR R0, =ERU0_0_IRQHandler
200000dc:	10001099 	.word	0x10001099
    MOV PC,R0
/* ======================================================================== */
    .globl SCU_4_Veneer 
SCU_4_Veneer:
    LDR R0, =ERU0_1_IRQHandler
200000e0:	10001099 	.word	0x10001099
    MOV PC,R0
/* ======================================================================== */
    .globl SCU_5_Veneer 
SCU_5_Veneer:
    LDR R0, =ERU0_2_IRQHandler
200000e4:	10001099 	.word	0x10001099
    MOV PC,R0
/* ======================================================================== */
    .globl SCU_6_Veneer 
SCU_6_Veneer:
    LDR R0, =ERU0_3_IRQHandler
200000e8:	10001099 	.word	0x10001099
    .long 0
    .long 0
/* ======================================================================== */
    .globl USIC0_0_Veneer
USIC0_0_Veneer:
    LDR R0, =USIC0_0_IRQHandler
200000ec:	10001099 	.word	0x10001099
    MOV PC,R0
/* ======================================================================== */
    .globl USIC0_1_Veneer
USIC0_1_Veneer:
    LDR R0, =USIC0_1_IRQHandler
200000f0:	10001099 	.word	0x10001099
    MOV PC,R0
/* ======================================================================== */
    .globl USIC0_2_Veneer
USIC0_2_Veneer:
    LDR R0, =USIC0_2_IRQHandler
200000f4:	10001099 	.word	0x10001099
    MOV PC,R0
/* ======================================================================== */
    .globl USIC0_3_Veneer
USIC0_3_Veneer:
    LDR R0, =USIC0_3_IRQHandler
200000f8:	10001099 	.word	0x10001099
    MOV PC,R0
/* ======================================================================== */
    .globl USIC0_4_Veneer
USIC0_4_Veneer:
    LDR R0, =USIC0_4_IRQHandler
200000fc:	10001099 	.word	0x10001099
    MOV PC,R0
/* ======================================================================== */
    .globl USIC0_5_Veneer
USIC0_5_Veneer:
    LDR R0, =USIC0_5_IRQHandler
20000100:	10001099 	.word	0x10001099
    MOV PC,R0
/* ======================================================================== */
    .globl VADC0_C0_0_Veneer 
VADC0_C0_0_Veneer:
    LDR R0, =VADC0_C0_0_IRQHandler
20000104:	100039bd 	.word	0x100039bd
    MOV PC,R0
/* ======================================================================== */
    .globl VADC0_C0_1_Veneer
VADC0_C0_1_Veneer:
    LDR R0, =VADC0_C0_1_IRQHandler
20000108:	10001099 	.word	0x10001099
    .long 0
    .long 0
/* ======================================================================== */
    .globl CCU40_0_Veneer
CCU40_0_Veneer:
    LDR R0, =CCU40_0_IRQHandler
2000010c:	10001099 	.word	0x10001099
    MOV PC,R0
/* ======================================================================== */
    .globl CCU40_1_Veneer
CCU40_1_Veneer:
    LDR R0, =CCU40_1_IRQHandler
20000110:	10001099 	.word	0x10001099
    MOV PC,R0
/* ======================================================================== */
    .globl CCU40_2_Veneer
CCU40_2_Veneer:
    LDR R0, =CCU40_2_IRQHandler
20000114:	10001099 	.word	0x10001099
    MOV PC,R0
/* ======================================================================== */
    .globl CCU40_3_Veneer
CCU40_3_Veneer:
    LDR R0, =CCU40_3_IRQHandler
20000118:	10001099 	.word	0x10001099
