   1              	 .cpu cortex-m0
   2              	 .fpu softvfp
   3              	 .eabi_attribute 20,1
   4              	 .eabi_attribute 21,1
   5              	 .eabi_attribute 23,3
   6              	 .eabi_attribute 24,1
   7              	 .eabi_attribute 25,1
   8              	 .eabi_attribute 26,1
   9              	 .eabi_attribute 30,6
  10              	 .eabi_attribute 34,0
  11              	 .eabi_attribute 18,4
  12              	 .code 16
  13              	 .file "e_eeprom_xmc1.c"
  14              	 .text
  15              	.Ltext0:
  16              	 .cfi_sections .debug_frame
  17              	 .section .text.XMC_FLASH_ReadWord,"ax",%progbits
  18              	 .align 2
  19              	 .code 16
  20              	 .thumb_func
  22              	XMC_FLASH_ReadWord:
  23              	.LFB42:
  24              	 .file 1 "C:/Workspaces/DAVE_WS/USB_Changer/Libraries/XMCLib/inc/xmc1_flash.h"
   1:C:/Workspaces/DAVE_WS/USB_Changer/Libraries/XMCLib/inc\xmc1_flash.h **** /**
   2:C:/Workspaces/DAVE_WS/USB_Changer/Libraries/XMCLib/inc\xmc1_flash.h ****  * @file xmc1_flash.h
   3:C:/Workspaces/DAVE_WS/USB_Changer/Libraries/XMCLib/inc\xmc1_flash.h ****  * @date 2019-12-02
   4:C:/Workspaces/DAVE_WS/USB_Changer/Libraries/XMCLib/inc\xmc1_flash.h ****  *
   5:C:/Workspaces/DAVE_WS/USB_Changer/Libraries/XMCLib/inc\xmc1_flash.h ****  * @cond
   6:C:/Workspaces/DAVE_WS/USB_Changer/Libraries/XMCLib/inc\xmc1_flash.h ****  *****************************************************************************
   7:C:/Workspaces/DAVE_WS/USB_Changer/Libraries/XMCLib/inc\xmc1_flash.h ****  * XMClib v2.2.0 - XMC Peripheral Driver Library
   8:C:/Workspaces/DAVE_WS/USB_Changer/Libraries/XMCLib/inc\xmc1_flash.h ****  *
   9:C:/Workspaces/DAVE_WS/USB_Changer/Libraries/XMCLib/inc\xmc1_flash.h ****  * Copyright (c) 2015-2020, Infineon Technologies AG
  10:C:/Workspaces/DAVE_WS/USB_Changer/Libraries/XMCLib/inc\xmc1_flash.h ****  * All rights reserved.
  11:C:/Workspaces/DAVE_WS/USB_Changer/Libraries/XMCLib/inc\xmc1_flash.h ****  *
  12:C:/Workspaces/DAVE_WS/USB_Changer/Libraries/XMCLib/inc\xmc1_flash.h ****  * Boost Software License - Version 1.0 - August 17th, 2003
  13:C:/Workspaces/DAVE_WS/USB_Changer/Libraries/XMCLib/inc\xmc1_flash.h ****  *
  14:C:/Workspaces/DAVE_WS/USB_Changer/Libraries/XMCLib/inc\xmc1_flash.h ****  * Permission is hereby granted, free of charge, to any person or organization
  15:C:/Workspaces/DAVE_WS/USB_Changer/Libraries/XMCLib/inc\xmc1_flash.h ****  * obtaining a copy of the software and accompanying documentation covered by
  16:C:/Workspaces/DAVE_WS/USB_Changer/Libraries/XMCLib/inc\xmc1_flash.h ****  * this license (the "Software") to use, reproduce, display, distribute,
  17:C:/Workspaces/DAVE_WS/USB_Changer/Libraries/XMCLib/inc\xmc1_flash.h ****  * execute, and transmit the Software, and to prepare derivative works of the
  18:C:/Workspaces/DAVE_WS/USB_Changer/Libraries/XMCLib/inc\xmc1_flash.h ****  * Software, and to permit third-parties to whom the Software is furnished to
  19:C:/Workspaces/DAVE_WS/USB_Changer/Libraries/XMCLib/inc\xmc1_flash.h ****  * do so, all subject to the following:
  20:C:/Workspaces/DAVE_WS/USB_Changer/Libraries/XMCLib/inc\xmc1_flash.h ****  *
  21:C:/Workspaces/DAVE_WS/USB_Changer/Libraries/XMCLib/inc\xmc1_flash.h ****  * The copyright notices in the Software and this entire statement, including
  22:C:/Workspaces/DAVE_WS/USB_Changer/Libraries/XMCLib/inc\xmc1_flash.h ****  * the above license grant, this restriction and the following disclaimer,
  23:C:/Workspaces/DAVE_WS/USB_Changer/Libraries/XMCLib/inc\xmc1_flash.h ****  * must be included in all copies of the Software, in whole or in part, and
  24:C:/Workspaces/DAVE_WS/USB_Changer/Libraries/XMCLib/inc\xmc1_flash.h ****  * all derivative works of the Software, unless such copies or derivative
  25:C:/Workspaces/DAVE_WS/USB_Changer/Libraries/XMCLib/inc\xmc1_flash.h ****  * works are solely in the form of machine-executable object code generated by
  26:C:/Workspaces/DAVE_WS/USB_Changer/Libraries/XMCLib/inc\xmc1_flash.h ****  * a source language processor.
  27:C:/Workspaces/DAVE_WS/USB_Changer/Libraries/XMCLib/inc\xmc1_flash.h ****  *
  28:C:/Workspaces/DAVE_WS/USB_Changer/Libraries/XMCLib/inc\xmc1_flash.h ****  * THE SOFTWARE IS PROVIDED "AS IS", WITHOUT WARRANTY OF ANY KIND, EXPRESS OR
  29:C:/Workspaces/DAVE_WS/USB_Changer/Libraries/XMCLib/inc\xmc1_flash.h ****  * IMPLIED, INCLUDING BUT NOT LIMITED TO THE WARRANTIES OF MERCHANTABILITY,
  30:C:/Workspaces/DAVE_WS/USB_Changer/Libraries/XMCLib/inc\xmc1_flash.h ****  * FITNESS FOR A PARTICULAR PURPOSE, TITLE AND NON-INFRINGEMENT. IN NO EVENT
  31:C:/Workspaces/DAVE_WS/USB_Changer/Libraries/XMCLib/inc\xmc1_flash.h ****  * SHALL THE COPYRIGHT HOLDERS OR ANYONE DISTRIBUTING THE SOFTWARE BE LIABLE
  32:C:/Workspaces/DAVE_WS/USB_Changer/Libraries/XMCLib/inc\xmc1_flash.h ****  * FOR ANY DAMAGES OR OTHER LIABILITY, WHETHER IN CONTRACT, TORT OR OTHERWISE,
  33:C:/Workspaces/DAVE_WS/USB_Changer/Libraries/XMCLib/inc\xmc1_flash.h ****  * ARISING FROM, OUT OF OR IN CONNECTION WITH THE SOFTWARE OR THE USE OR OTHER
  34:C:/Workspaces/DAVE_WS/USB_Changer/Libraries/XMCLib/inc\xmc1_flash.h ****  * DEALINGS IN THE SOFTWARE.
  35:C:/Workspaces/DAVE_WS/USB_Changer/Libraries/XMCLib/inc\xmc1_flash.h ****  *
  36:C:/Workspaces/DAVE_WS/USB_Changer/Libraries/XMCLib/inc\xmc1_flash.h ****  * To improve the quality of the software, users are encouraged to share
  37:C:/Workspaces/DAVE_WS/USB_Changer/Libraries/XMCLib/inc\xmc1_flash.h ****  * modifications, enhancements or bug fixes with Infineon Technologies AG
  38:C:/Workspaces/DAVE_WS/USB_Changer/Libraries/XMCLib/inc\xmc1_flash.h ****  * at XMCSupport@infineon.com.
  39:C:/Workspaces/DAVE_WS/USB_Changer/Libraries/XMCLib/inc\xmc1_flash.h ****  *****************************************************************************
  40:C:/Workspaces/DAVE_WS/USB_Changer/Libraries/XMCLib/inc\xmc1_flash.h ****  *
  41:C:/Workspaces/DAVE_WS/USB_Changer/Libraries/XMCLib/inc\xmc1_flash.h ****  * Change History
  42:C:/Workspaces/DAVE_WS/USB_Changer/Libraries/XMCLib/inc\xmc1_flash.h ****  * --------------
  43:C:/Workspaces/DAVE_WS/USB_Changer/Libraries/XMCLib/inc\xmc1_flash.h ****  *
  44:C:/Workspaces/DAVE_WS/USB_Changer/Libraries/XMCLib/inc\xmc1_flash.h ****  * 2014-12-10:
  45:C:/Workspaces/DAVE_WS/USB_Changer/Libraries/XMCLib/inc\xmc1_flash.h ****  *     - Initial <br>
  46:C:/Workspaces/DAVE_WS/USB_Changer/Libraries/XMCLib/inc\xmc1_flash.h ****  * 2015-02-20:
  47:C:/Workspaces/DAVE_WS/USB_Changer/Libraries/XMCLib/inc\xmc1_flash.h ****  *     - Updated for Documentation related changes<br>
  48:C:/Workspaces/DAVE_WS/USB_Changer/Libraries/XMCLib/inc\xmc1_flash.h ****  * 2015-06-20:
  49:C:/Workspaces/DAVE_WS/USB_Changer/Libraries/XMCLib/inc\xmc1_flash.h ****  *     - Removed version macros and declaration of GetDriverVersion API
  50:C:/Workspaces/DAVE_WS/USB_Changer/Libraries/XMCLib/inc\xmc1_flash.h ****  * 2019-05-04:
  51:C:/Workspaces/DAVE_WS/USB_Changer/Libraries/XMCLib/inc\xmc1_flash.h ****  *     - Moved definitions of XMC_FLASH_ProgramPage() and XMC_FLASH_EraseSector() from xmc_flash.h
  52:C:/Workspaces/DAVE_WS/USB_Changer/Libraries/XMCLib/inc\xmc1_flash.h ****  *     - Changed XMC_FLASH_ProgramPage() and XMC_FLASH_EraseSector() to return status of operation
  53:C:/Workspaces/DAVE_WS/USB_Changer/Libraries/XMCLib/inc\xmc1_flash.h ****  *     - Changed XMC_FLASH_ErasePages(), XMC_FLASH_ErasePage(), XMC_FLASH_ProgramVerifyPage() to re
  54:C:/Workspaces/DAVE_WS/USB_Changer/Libraries/XMCLib/inc\xmc1_flash.h ****  * 2019-12-02:
  55:C:/Workspaces/DAVE_WS/USB_Changer/Libraries/XMCLib/inc\xmc1_flash.h ****  *     - Fix including XMC1000_RomFunctionTable.h following the convention: angle brackets are used
  56:C:/Workspaces/DAVE_WS/USB_Changer/Libraries/XMCLib/inc\xmc1_flash.h ****  *
  57:C:/Workspaces/DAVE_WS/USB_Changer/Libraries/XMCLib/inc\xmc1_flash.h ****  * @endcond
  58:C:/Workspaces/DAVE_WS/USB_Changer/Libraries/XMCLib/inc\xmc1_flash.h ****  *
  59:C:/Workspaces/DAVE_WS/USB_Changer/Libraries/XMCLib/inc\xmc1_flash.h ****  */
  60:C:/Workspaces/DAVE_WS/USB_Changer/Libraries/XMCLib/inc\xmc1_flash.h **** 
  61:C:/Workspaces/DAVE_WS/USB_Changer/Libraries/XMCLib/inc\xmc1_flash.h **** #ifndef XMC1_FLASH_H
  62:C:/Workspaces/DAVE_WS/USB_Changer/Libraries/XMCLib/inc\xmc1_flash.h **** #define XMC1_FLASH_H
  63:C:/Workspaces/DAVE_WS/USB_Changer/Libraries/XMCLib/inc\xmc1_flash.h **** 
  64:C:/Workspaces/DAVE_WS/USB_Changer/Libraries/XMCLib/inc\xmc1_flash.h **** /**************************************************************************************************
  65:C:/Workspaces/DAVE_WS/USB_Changer/Libraries/XMCLib/inc\xmc1_flash.h ****  * HEADER FILES
  66:C:/Workspaces/DAVE_WS/USB_Changer/Libraries/XMCLib/inc\xmc1_flash.h ****  **************************************************************************************************
  67:C:/Workspaces/DAVE_WS/USB_Changer/Libraries/XMCLib/inc\xmc1_flash.h **** 
  68:C:/Workspaces/DAVE_WS/USB_Changer/Libraries/XMCLib/inc\xmc1_flash.h **** #include "xmc_common.h"
  69:C:/Workspaces/DAVE_WS/USB_Changer/Libraries/XMCLib/inc\xmc1_flash.h **** 
  70:C:/Workspaces/DAVE_WS/USB_Changer/Libraries/XMCLib/inc\xmc1_flash.h **** #if UC_FAMILY == XMC1
  71:C:/Workspaces/DAVE_WS/USB_Changer/Libraries/XMCLib/inc\xmc1_flash.h **** 
  72:C:/Workspaces/DAVE_WS/USB_Changer/Libraries/XMCLib/inc\xmc1_flash.h **** #include "XMC1000_RomFunctionTable.h"
  73:C:/Workspaces/DAVE_WS/USB_Changer/Libraries/XMCLib/inc\xmc1_flash.h **** 
  74:C:/Workspaces/DAVE_WS/USB_Changer/Libraries/XMCLib/inc\xmc1_flash.h **** /**
  75:C:/Workspaces/DAVE_WS/USB_Changer/Libraries/XMCLib/inc\xmc1_flash.h **** * @addtogroup XMClib XMC Peripheral Library
  76:C:/Workspaces/DAVE_WS/USB_Changer/Libraries/XMCLib/inc\xmc1_flash.h **** * @{
  77:C:/Workspaces/DAVE_WS/USB_Changer/Libraries/XMCLib/inc\xmc1_flash.h **** */
  78:C:/Workspaces/DAVE_WS/USB_Changer/Libraries/XMCLib/inc\xmc1_flash.h **** 
  79:C:/Workspaces/DAVE_WS/USB_Changer/Libraries/XMCLib/inc\xmc1_flash.h **** /**
  80:C:/Workspaces/DAVE_WS/USB_Changer/Libraries/XMCLib/inc\xmc1_flash.h **** * @addtogroup FLASH
  81:C:/Workspaces/DAVE_WS/USB_Changer/Libraries/XMCLib/inc\xmc1_flash.h **** * @{
  82:C:/Workspaces/DAVE_WS/USB_Changer/Libraries/XMCLib/inc\xmc1_flash.h **** */
  83:C:/Workspaces/DAVE_WS/USB_Changer/Libraries/XMCLib/inc\xmc1_flash.h **** 
  84:C:/Workspaces/DAVE_WS/USB_Changer/Libraries/XMCLib/inc\xmc1_flash.h **** /**************************************************************************************************
  85:C:/Workspaces/DAVE_WS/USB_Changer/Libraries/XMCLib/inc\xmc1_flash.h ****  * MACROS
  86:C:/Workspaces/DAVE_WS/USB_Changer/Libraries/XMCLib/inc\xmc1_flash.h ****  **************************************************************************************************
  87:C:/Workspaces/DAVE_WS/USB_Changer/Libraries/XMCLib/inc\xmc1_flash.h **** 
  88:C:/Workspaces/DAVE_WS/USB_Changer/Libraries/XMCLib/inc\xmc1_flash.h **** #define XMC_FLASH_PAGES_PER_SECTOR (16U)    /**< Number of pages in a sector. A page consists of 16
  89:C:/Workspaces/DAVE_WS/USB_Changer/Libraries/XMCLib/inc\xmc1_flash.h **** #define XMC_FLASH_BLOCKS_PER_PAGE  (16U)    /**< Number of blocks in a page. A block consists of 4 
  90:C:/Workspaces/DAVE_WS/USB_Changer/Libraries/XMCLib/inc\xmc1_flash.h **** 
  91:C:/Workspaces/DAVE_WS/USB_Changer/Libraries/XMCLib/inc\xmc1_flash.h **** #define XMC_FLASH_BYTES_PER_SECTOR (4096U)  /**< Number of bytes in a sector. (16 pages * 256 bytes
  92:C:/Workspaces/DAVE_WS/USB_Changer/Libraries/XMCLib/inc\xmc1_flash.h **** #define XMC_FLASH_BYTES_PER_PAGE   (256U)   /**< Number of bytes in a page. (16 blocks * 16 bytes =
  93:C:/Workspaces/DAVE_WS/USB_Changer/Libraries/XMCLib/inc\xmc1_flash.h **** #define XMC_FLASH_BYTES_PER_BLOCK  (16U)    /**< Number of bytes in a block. (128 bits = 16 bytes)*
  94:C:/Workspaces/DAVE_WS/USB_Changer/Libraries/XMCLib/inc\xmc1_flash.h **** 
  95:C:/Workspaces/DAVE_WS/USB_Changer/Libraries/XMCLib/inc\xmc1_flash.h **** #define XMC_FLASH_WORDS_PER_SECTOR (1024U)  /**< Number of words in a sector. (16 pages * 64 words 
  96:C:/Workspaces/DAVE_WS/USB_Changer/Libraries/XMCLib/inc\xmc1_flash.h **** #define XMC_FLASH_WORDS_PER_PAGE   (64U)    /**< Number of words in a page. (16 blocks * 4 words = 
  97:C:/Workspaces/DAVE_WS/USB_Changer/Libraries/XMCLib/inc\xmc1_flash.h **** #define XMC_FLASH_WORDS_PER_BLOCK  (4U)     /**< Number of words in a block. (128 bit / 32 bit = 4 
  98:C:/Workspaces/DAVE_WS/USB_Changer/Libraries/XMCLib/inc\xmc1_flash.h **** 
  99:C:/Workspaces/DAVE_WS/USB_Changer/Libraries/XMCLib/inc\xmc1_flash.h **** #define FLASH_BLOCK_ADDR_MASK      (15U)    /*   Bitwise AND with block address is done to check th
 100:C:/Workspaces/DAVE_WS/USB_Changer/Libraries/XMCLib/inc\xmc1_flash.h ****                                                  Applicable to XMC_FLASH_WriteBlocks() and XMC_FLAS
 101:C:/Workspaces/DAVE_WS/USB_Changer/Libraries/XMCLib/inc\xmc1_flash.h ****                                                  APIs.*/
 102:C:/Workspaces/DAVE_WS/USB_Changer/Libraries/XMCLib/inc\xmc1_flash.h **** #define FLASH_PAGE_ADDR_MASK       (255U)   /*   Bitwise AND with page address is done to check the
 103:C:/Workspaces/DAVE_WS/USB_Changer/Libraries/XMCLib/inc\xmc1_flash.h ****                                                  Applicable to XMC_FLASH_ErasePages() API.*/
 104:C:/Workspaces/DAVE_WS/USB_Changer/Libraries/XMCLib/inc\xmc1_flash.h **** #define FLASH_SECTOR_ADDR_MASK     (4095U)  /*   Bitwise AND with sector address is done to check t
 105:C:/Workspaces/DAVE_WS/USB_Changer/Libraries/XMCLib/inc\xmc1_flash.h ****                                                  Applicable to XMC_FLASH_EraseSector API.*/
 106:C:/Workspaces/DAVE_WS/USB_Changer/Libraries/XMCLib/inc\xmc1_flash.h **** 
 107:C:/Workspaces/DAVE_WS/USB_Changer/Libraries/XMCLib/inc\xmc1_flash.h **** #define XMC_FLASH_BASE             (0x10001000U) /**< Starting address of flash for XMC1 family of 
 108:C:/Workspaces/DAVE_WS/USB_Changer/Libraries/XMCLib/inc\xmc1_flash.h **** 
 109:C:/Workspaces/DAVE_WS/USB_Changer/Libraries/XMCLib/inc\xmc1_flash.h **** /**************************************************************************************************
 110:C:/Workspaces/DAVE_WS/USB_Changer/Libraries/XMCLib/inc\xmc1_flash.h ****  * ENUMS
 111:C:/Workspaces/DAVE_WS/USB_Changer/Libraries/XMCLib/inc\xmc1_flash.h ****  **************************************************************************************************
 112:C:/Workspaces/DAVE_WS/USB_Changer/Libraries/XMCLib/inc\xmc1_flash.h **** /**
 113:C:/Workspaces/DAVE_WS/USB_Changer/Libraries/XMCLib/inc\xmc1_flash.h ****  *  Defines the status of flash, to verify the flash related API calls. Use type \a XMC_FLASH_STATU
 114:C:/Workspaces/DAVE_WS/USB_Changer/Libraries/XMCLib/inc\xmc1_flash.h ****  *  The members defines the respective masked status bits of \a NVMSTATUS register.
 115:C:/Workspaces/DAVE_WS/USB_Changer/Libraries/XMCLib/inc\xmc1_flash.h ****  */
 116:C:/Workspaces/DAVE_WS/USB_Changer/Libraries/XMCLib/inc\xmc1_flash.h **** typedef enum XMC_FLASH_STATUS
 117:C:/Workspaces/DAVE_WS/USB_Changer/Libraries/XMCLib/inc\xmc1_flash.h **** {
 118:C:/Workspaces/DAVE_WS/USB_Changer/Libraries/XMCLib/inc\xmc1_flash.h ****   XMC_FLASH_STATUS_OK                   = 0U,                          /**< Flash related operation
 119:C:/Workspaces/DAVE_WS/USB_Changer/Libraries/XMCLib/inc\xmc1_flash.h ****                                                                             completed*/
 120:C:/Workspaces/DAVE_WS/USB_Changer/Libraries/XMCLib/inc\xmc1_flash.h ****   XMC_FLASH_STATUS_BUSY                 = NVM_NVMSTATUS_BUSY_Msk,  /**< Cannot execute the flash re
 121:C:/Workspaces/DAVE_WS/USB_Changer/Libraries/XMCLib/inc\xmc1_flash.h ****                                                                             another operation is in
 122:C:/Workspaces/DAVE_WS/USB_Changer/Libraries/XMCLib/inc\xmc1_flash.h ****   XMC_FLASH_STATUS_SLEEP_MODE           = NVM_NVMSTATUS_SLEEP_Msk,     /**< Flash is in sleep mode*
 123:C:/Workspaces/DAVE_WS/USB_Changer/Libraries/XMCLib/inc\xmc1_flash.h ****   XMC_FLASH_STATUS_VERIFY_ERROR         = NVM_NVMSTATUS_VERR_Msk,      /**< Flash reported a verifi
 124:C:/Workspaces/DAVE_WS/USB_Changer/Libraries/XMCLib/inc\xmc1_flash.h ****   XMC_FLASH_STATUS_ECC1_READ_ERROR      = NVM_NVMSTATUS_ECC1READ_Msk,  /**< Flash reports a single 
 125:C:/Workspaces/DAVE_WS/USB_Changer/Libraries/XMCLib/inc\xmc1_flash.h ****                                                                             is automatically correc
 126:C:/Workspaces/DAVE_WS/USB_Changer/Libraries/XMCLib/inc\xmc1_flash.h ****   XMC_FLASH_STATUS_ECC2_READ_ERROR      = NVM_NVMSTATUS_ECC2READ_Msk,  /**< Flash reported at least
 127:C:/Workspaces/DAVE_WS/USB_Changer/Libraries/XMCLib/inc\xmc1_flash.h ****   XMC_FLASH_STATUS_WRITE_PROTOCOL_ERROR = NVM_NVMSTATUS_WRPERR_Msk,  /**< Write/Verify operation on
 128:C:/Workspaces/DAVE_WS/USB_Changer/Libraries/XMCLib/inc\xmc1_flash.h ****                                                                             failed due to protocol 
 129:C:/Workspaces/DAVE_WS/USB_Changer/Libraries/XMCLib/inc\xmc1_flash.h ****                                                                             protected sectors*/
 130:C:/Workspaces/DAVE_WS/USB_Changer/Libraries/XMCLib/inc\xmc1_flash.h **** } XMC_FLASH_STATUS_t;
 131:C:/Workspaces/DAVE_WS/USB_Changer/Libraries/XMCLib/inc\xmc1_flash.h **** 
 132:C:/Workspaces/DAVE_WS/USB_Changer/Libraries/XMCLib/inc\xmc1_flash.h **** /**
 133:C:/Workspaces/DAVE_WS/USB_Changer/Libraries/XMCLib/inc\xmc1_flash.h ****  *  Defines NVM ready interrupt event. Use type \a XMC_FLASH_EVENT_t for this enum.
 134:C:/Workspaces/DAVE_WS/USB_Changer/Libraries/XMCLib/inc\xmc1_flash.h ****  */
 135:C:/Workspaces/DAVE_WS/USB_Changer/Libraries/XMCLib/inc\xmc1_flash.h **** typedef enum XMC_FLASH_EVENT
 136:C:/Workspaces/DAVE_WS/USB_Changer/Libraries/XMCLib/inc\xmc1_flash.h **** {
 137:C:/Workspaces/DAVE_WS/USB_Changer/Libraries/XMCLib/inc\xmc1_flash.h ****   XMC_FLASH_EVENT_READY = NVM_NVMCONF_INT_ON_Msk  /**< Generates the NVM ready interrupts on flash 
 138:C:/Workspaces/DAVE_WS/USB_Changer/Libraries/XMCLib/inc\xmc1_flash.h **** } XMC_FLASH_EVENT_t;
 139:C:/Workspaces/DAVE_WS/USB_Changer/Libraries/XMCLib/inc\xmc1_flash.h **** 
 140:C:/Workspaces/DAVE_WS/USB_Changer/Libraries/XMCLib/inc\xmc1_flash.h **** /**
 141:C:/Workspaces/DAVE_WS/USB_Changer/Libraries/XMCLib/inc\xmc1_flash.h ****  *  Defines hard read levels for strict data verification. Use type \a XMC_FLASH_HARDREAD_LEVEL_t f
 142:C:/Workspaces/DAVE_WS/USB_Changer/Libraries/XMCLib/inc\xmc1_flash.h ****  *  These \a hardread levels provide some margin to ensure that the data is really programmed with 
 143:C:/Workspaces/DAVE_WS/USB_Changer/Libraries/XMCLib/inc\xmc1_flash.h ****  *  levels for written and erased bits.
 144:C:/Workspaces/DAVE_WS/USB_Changer/Libraries/XMCLib/inc\xmc1_flash.h ****  */
 145:C:/Workspaces/DAVE_WS/USB_Changer/Libraries/XMCLib/inc\xmc1_flash.h **** typedef enum XMC_FLASH_HARDREAD_LEVEL
 146:C:/Workspaces/DAVE_WS/USB_Changer/Libraries/XMCLib/inc\xmc1_flash.h **** {
 147:C:/Workspaces/DAVE_WS/USB_Changer/Libraries/XMCLib/inc\xmc1_flash.h ****   XMC_FLASH_HARDREAD_LEVEL_NORMAL  = (uint16_t)0x0, /**< No \a hardread level verification enabled 
 148:C:/Workspaces/DAVE_WS/USB_Changer/Libraries/XMCLib/inc\xmc1_flash.h ****   XMC_FLASH_HARDREAD_LEVEL_WRITTEN = (uint16_t)0x1, /**< Enables strict margin compare for written 
 149:C:/Workspaces/DAVE_WS/USB_Changer/Libraries/XMCLib/inc\xmc1_flash.h ****   XMC_FLASH_HARDREAD_LEVEL_ERASED  = (uint16_t)0x2  /**< Enables strict margin compare for erased d
 150:C:/Workspaces/DAVE_WS/USB_Changer/Libraries/XMCLib/inc\xmc1_flash.h **** } XMC_FLASH_HARDREAD_LEVEL_t;
 151:C:/Workspaces/DAVE_WS/USB_Changer/Libraries/XMCLib/inc\xmc1_flash.h **** 
 152:C:/Workspaces/DAVE_WS/USB_Changer/Libraries/XMCLib/inc\xmc1_flash.h **** /**************************************************************************************************
 153:C:/Workspaces/DAVE_WS/USB_Changer/Libraries/XMCLib/inc\xmc1_flash.h ****  * API PROTOTYPES
 154:C:/Workspaces/DAVE_WS/USB_Changer/Libraries/XMCLib/inc\xmc1_flash.h ****  **************************************************************************************************
 155:C:/Workspaces/DAVE_WS/USB_Changer/Libraries/XMCLib/inc\xmc1_flash.h **** 
 156:C:/Workspaces/DAVE_WS/USB_Changer/Libraries/XMCLib/inc\xmc1_flash.h **** #ifdef __cplusplus
 157:C:/Workspaces/DAVE_WS/USB_Changer/Libraries/XMCLib/inc\xmc1_flash.h **** extern "C" {
 158:C:/Workspaces/DAVE_WS/USB_Changer/Libraries/XMCLib/inc\xmc1_flash.h **** #endif
 159:C:/Workspaces/DAVE_WS/USB_Changer/Libraries/XMCLib/inc\xmc1_flash.h **** 
 160:C:/Workspaces/DAVE_WS/USB_Changer/Libraries/XMCLib/inc\xmc1_flash.h **** /**
 161:C:/Workspaces/DAVE_WS/USB_Changer/Libraries/XMCLib/inc\xmc1_flash.h ****  *
 162:C:/Workspaces/DAVE_WS/USB_Changer/Libraries/XMCLib/inc\xmc1_flash.h ****  * @param address    Pointer to the starting address of flash page from where the programming start
 163:C:/Workspaces/DAVE_WS/USB_Changer/Libraries/XMCLib/inc\xmc1_flash.h ****  * @param data       Pointer to the source address where targeted data is located.
 164:C:/Workspaces/DAVE_WS/USB_Changer/Libraries/XMCLib/inc\xmc1_flash.h ****  *
 165:C:/Workspaces/DAVE_WS/USB_Changer/Libraries/XMCLib/inc\xmc1_flash.h ****  * @return Status of operation (NVM_STATUS)
 166:C:/Workspaces/DAVE_WS/USB_Changer/Libraries/XMCLib/inc\xmc1_flash.h ****  *
 167:C:/Workspaces/DAVE_WS/USB_Changer/Libraries/XMCLib/inc\xmc1_flash.h ****  * \par<b>Description:</b><br>
 168:C:/Workspaces/DAVE_WS/USB_Changer/Libraries/XMCLib/inc\xmc1_flash.h ****  * Programs a single flash page associated with the specified \a address.\n\n XMC1000 Flash can be 
 169:C:/Workspaces/DAVE_WS/USB_Changer/Libraries/XMCLib/inc\xmc1_flash.h ****  * page (256 bytes) using this API. It calls the Flash Firmware routine \a XMC1000_NvmProgVerify(un
 170:C:/Workspaces/DAVE_WS/USB_Changer/Libraries/XMCLib/inc\xmc1_flash.h ****  * to perform the programming. Refer XMC1000 reference manual of for more details on flash firmware
 171:C:/Workspaces/DAVE_WS/USB_Changer/Libraries/XMCLib/inc\xmc1_flash.h ****  * (Section 25.3). Call XMC_FLASH_GetStatus() API after calling this API, to verify the programming
 172:C:/Workspaces/DAVE_WS/USB_Changer/Libraries/XMCLib/inc\xmc1_flash.h ****  *
 173:C:/Workspaces/DAVE_WS/USB_Changer/Libraries/XMCLib/inc\xmc1_flash.h ****  * \par<b>Note:</b><br>
 174:C:/Workspaces/DAVE_WS/USB_Changer/Libraries/XMCLib/inc\xmc1_flash.h ****  * Flash will be busy state during write is ongoing, hence no operations allowed until it completes
 175:C:/Workspaces/DAVE_WS/USB_Changer/Libraries/XMCLib/inc\xmc1_flash.h ****  *
 176:C:/Workspaces/DAVE_WS/USB_Changer/Libraries/XMCLib/inc\xmc1_flash.h ****  * \par<b>Related APIs:</b><BR>
 177:C:/Workspaces/DAVE_WS/USB_Changer/Libraries/XMCLib/inc\xmc1_flash.h ****  * None
 178:C:/Workspaces/DAVE_WS/USB_Changer/Libraries/XMCLib/inc\xmc1_flash.h ****  *
 179:C:/Workspaces/DAVE_WS/USB_Changer/Libraries/XMCLib/inc\xmc1_flash.h ****  */
 180:C:/Workspaces/DAVE_WS/USB_Changer/Libraries/XMCLib/inc\xmc1_flash.h **** int32_t XMC_FLASH_ProgramPage(uint32_t *address, const uint32_t *data);
 181:C:/Workspaces/DAVE_WS/USB_Changer/Libraries/XMCLib/inc\xmc1_flash.h **** 
 182:C:/Workspaces/DAVE_WS/USB_Changer/Libraries/XMCLib/inc\xmc1_flash.h **** /**
 183:C:/Workspaces/DAVE_WS/USB_Changer/Libraries/XMCLib/inc\xmc1_flash.h ****  *
 184:C:/Workspaces/DAVE_WS/USB_Changer/Libraries/XMCLib/inc\xmc1_flash.h ****  * @param address Pointer to the starting address of the page to be erased.
 185:C:/Workspaces/DAVE_WS/USB_Changer/Libraries/XMCLib/inc\xmc1_flash.h ****  *
 186:C:/Workspaces/DAVE_WS/USB_Changer/Libraries/XMCLib/inc\xmc1_flash.h ****  * @return Status of operation (NVM_STATUS)
 187:C:/Workspaces/DAVE_WS/USB_Changer/Libraries/XMCLib/inc\xmc1_flash.h ****  *
 188:C:/Workspaces/DAVE_WS/USB_Changer/Libraries/XMCLib/inc\xmc1_flash.h ****  * \par<b>Description:</b><br>
 189:C:/Workspaces/DAVE_WS/USB_Changer/Libraries/XMCLib/inc\xmc1_flash.h ****  * Erases a complete sector starting from the \a address specified.\n\n  XMC1000 Flash can be erase
 190:C:/Workspaces/DAVE_WS/USB_Changer/Libraries/XMCLib/inc\xmc1_flash.h ****  * of one page = 16 blocks of 16 Bytes = 256 Bytes using this API. It internally calls XMC_FLASH_Er
 191:C:/Workspaces/DAVE_WS/USB_Changer/Libraries/XMCLib/inc\xmc1_flash.h ****  * times starting from the first page of the sector.. Call XMC_FLASH_GetStatus() API after calling 
 192:C:/Workspaces/DAVE_WS/USB_Changer/Libraries/XMCLib/inc\xmc1_flash.h ****  * to verify the erase operation.\n
 193:C:/Workspaces/DAVE_WS/USB_Changer/Libraries/XMCLib/inc\xmc1_flash.h ****  *
 194:C:/Workspaces/DAVE_WS/USB_Changer/Libraries/XMCLib/inc\xmc1_flash.h ****  * \par<b>Related APIs:</b><BR>
 195:C:/Workspaces/DAVE_WS/USB_Changer/Libraries/XMCLib/inc\xmc1_flash.h ****  * XMC_FLASH_ErasePages() \n\n\n
 196:C:/Workspaces/DAVE_WS/USB_Changer/Libraries/XMCLib/inc\xmc1_flash.h ****  */
 197:C:/Workspaces/DAVE_WS/USB_Changer/Libraries/XMCLib/inc\xmc1_flash.h **** int32_t XMC_FLASH_EraseSector(uint32_t *address);
 198:C:/Workspaces/DAVE_WS/USB_Changer/Libraries/XMCLib/inc\xmc1_flash.h **** 
 199:C:/Workspaces/DAVE_WS/USB_Changer/Libraries/XMCLib/inc\xmc1_flash.h **** /**
 200:C:/Workspaces/DAVE_WS/USB_Changer/Libraries/XMCLib/inc\xmc1_flash.h ****  *
 201:C:/Workspaces/DAVE_WS/USB_Changer/Libraries/XMCLib/inc\xmc1_flash.h ****  * @param address   Pointer to the starting address of the flash page from where the erase starts
 202:C:/Workspaces/DAVE_WS/USB_Changer/Libraries/XMCLib/inc\xmc1_flash.h ****  * @param num_pages Number of pages to be erased.<BR> Range: [1 to (flash size / 256)]
 203:C:/Workspaces/DAVE_WS/USB_Changer/Libraries/XMCLib/inc\xmc1_flash.h ****  *
 204:C:/Workspaces/DAVE_WS/USB_Changer/Libraries/XMCLib/inc\xmc1_flash.h ****  * @return Status of operation (NVM_STATUS)
 205:C:/Workspaces/DAVE_WS/USB_Changer/Libraries/XMCLib/inc\xmc1_flash.h ****  *
 206:C:/Workspaces/DAVE_WS/USB_Changer/Libraries/XMCLib/inc\xmc1_flash.h ****  * \par<b>Description:</b><BR>
 207:C:/Workspaces/DAVE_WS/USB_Changer/Libraries/XMCLib/inc\xmc1_flash.h ****  * Erases a set of flash memory pages.<BR><BR>
 208:C:/Workspaces/DAVE_WS/USB_Changer/Libraries/XMCLib/inc\xmc1_flash.h ****  * Erase starts from the  specified \a address.
 209:C:/Workspaces/DAVE_WS/USB_Changer/Libraries/XMCLib/inc\xmc1_flash.h ****  * It erases a maximum number of \a num_pages flash pages. The maximum erasable pages are limited t
 210:C:/Workspaces/DAVE_WS/USB_Changer/Libraries/XMCLib/inc\xmc1_flash.h ****  * microcontroller flash size. It sets NVMPROG register to continuous page erase mode before erase 
 211:C:/Workspaces/DAVE_WS/USB_Changer/Libraries/XMCLib/inc\xmc1_flash.h ****  * it action back to normal state on completion. Call XMC_FLASH_GetStatus() after calling this API 
 212:C:/Workspaces/DAVE_WS/USB_Changer/Libraries/XMCLib/inc\xmc1_flash.h ****  * operation.\n
 213:C:/Workspaces/DAVE_WS/USB_Changer/Libraries/XMCLib/inc\xmc1_flash.h ****  *
 214:C:/Workspaces/DAVE_WS/USB_Changer/Libraries/XMCLib/inc\xmc1_flash.h ****  * \par<b>Note:</b><BR>
 215:C:/Workspaces/DAVE_WS/USB_Changer/Libraries/XMCLib/inc\xmc1_flash.h ****  * Flash will be in busy state during erase operation. Hence no operations on flash are allowed unt
 216:C:/Workspaces/DAVE_WS/USB_Changer/Libraries/XMCLib/inc\xmc1_flash.h ****  *
 217:C:/Workspaces/DAVE_WS/USB_Changer/Libraries/XMCLib/inc\xmc1_flash.h ****  * \par<b>Related APIs:</b><BR>
 218:C:/Workspaces/DAVE_WS/USB_Changer/Libraries/XMCLib/inc\xmc1_flash.h ****  * XMC_FLASH_EraseSector(), XMC_FLASH_ErasePage() \n\n\n
 219:C:/Workspaces/DAVE_WS/USB_Changer/Libraries/XMCLib/inc\xmc1_flash.h ****  *
 220:C:/Workspaces/DAVE_WS/USB_Changer/Libraries/XMCLib/inc\xmc1_flash.h ****  * \par<b>Related APIs:</b><BR>
 221:C:/Workspaces/DAVE_WS/USB_Changer/Libraries/XMCLib/inc\xmc1_flash.h ****  * None
 222:C:/Workspaces/DAVE_WS/USB_Changer/Libraries/XMCLib/inc\xmc1_flash.h ****  *
 223:C:/Workspaces/DAVE_WS/USB_Changer/Libraries/XMCLib/inc\xmc1_flash.h ****  */
 224:C:/Workspaces/DAVE_WS/USB_Changer/Libraries/XMCLib/inc\xmc1_flash.h **** int32_t XMC_FLASH_ErasePages(uint32_t *address, uint32_t num_pages);
 225:C:/Workspaces/DAVE_WS/USB_Changer/Libraries/XMCLib/inc\xmc1_flash.h **** 
 226:C:/Workspaces/DAVE_WS/USB_Changer/Libraries/XMCLib/inc\xmc1_flash.h **** /**
 227:C:/Workspaces/DAVE_WS/USB_Changer/Libraries/XMCLib/inc\xmc1_flash.h ****  *
 228:C:/Workspaces/DAVE_WS/USB_Changer/Libraries/XMCLib/inc\xmc1_flash.h ****  * @param address    Pointer to the starting address of flash block from where the write starts.
 229:C:/Workspaces/DAVE_WS/USB_Changer/Libraries/XMCLib/inc\xmc1_flash.h ****  * @param data       Pointer to the source address where targeted data blocks are located.
 230:C:/Workspaces/DAVE_WS/USB_Changer/Libraries/XMCLib/inc\xmc1_flash.h ****  * @param num_blocks Maximum number of flash block writes needed.<BR> Range:  [1 to (flash size / 1
 231:C:/Workspaces/DAVE_WS/USB_Changer/Libraries/XMCLib/inc\xmc1_flash.h ****  * @param verify     If \a true, hardware verification after block write is enabled else disabled.
 232:C:/Workspaces/DAVE_WS/USB_Changer/Libraries/XMCLib/inc\xmc1_flash.h ****  *
 233:C:/Workspaces/DAVE_WS/USB_Changer/Libraries/XMCLib/inc\xmc1_flash.h ****  * @return None
 234:C:/Workspaces/DAVE_WS/USB_Changer/Libraries/XMCLib/inc\xmc1_flash.h ****  *
 235:C:/Workspaces/DAVE_WS/USB_Changer/Libraries/XMCLib/inc\xmc1_flash.h ****  * \par<b>Description:</b><br>
 236:C:/Workspaces/DAVE_WS/USB_Changer/Libraries/XMCLib/inc\xmc1_flash.h ****  * Writes a set of data blocks into the flash.\n\n Minimum possible writable area is 16 byte block.
 237:C:/Workspaces/DAVE_WS/USB_Changer/Libraries/XMCLib/inc\xmc1_flash.h ****  * register to continuous block write mode before write and resets it action back to normal state o
 238:C:/Workspaces/DAVE_WS/USB_Changer/Libraries/XMCLib/inc\xmc1_flash.h ****  * Call XMC_FLASH_GetStatus() API after calling this API to verify the erase operation.
 239:C:/Workspaces/DAVE_WS/USB_Changer/Libraries/XMCLib/inc\xmc1_flash.h ****  *
 240:C:/Workspaces/DAVE_WS/USB_Changer/Libraries/XMCLib/inc\xmc1_flash.h ****  * \par<b>Note</b><br>
 241:C:/Workspaces/DAVE_WS/USB_Changer/Libraries/XMCLib/inc\xmc1_flash.h ****  * Flash will be busy state during write is ongoing, hence no operations allowed until it completes
 242:C:/Workspaces/DAVE_WS/USB_Changer/Libraries/XMCLib/inc\xmc1_flash.h ****  *
 243:C:/Workspaces/DAVE_WS/USB_Changer/Libraries/XMCLib/inc\xmc1_flash.h ****  * \par<b>Related APIs:</b><BR>
 244:C:/Workspaces/DAVE_WS/USB_Changer/Libraries/XMCLib/inc\xmc1_flash.h ****  * None
 245:C:/Workspaces/DAVE_WS/USB_Changer/Libraries/XMCLib/inc\xmc1_flash.h ****  *
 246:C:/Workspaces/DAVE_WS/USB_Changer/Libraries/XMCLib/inc\xmc1_flash.h ****  */
 247:C:/Workspaces/DAVE_WS/USB_Changer/Libraries/XMCLib/inc\xmc1_flash.h **** void XMC_FLASH_WriteBlocks(uint32_t *address, const uint32_t *data, uint32_t num_blocks, bool verif
 248:C:/Workspaces/DAVE_WS/USB_Changer/Libraries/XMCLib/inc\xmc1_flash.h **** 
 249:C:/Workspaces/DAVE_WS/USB_Changer/Libraries/XMCLib/inc\xmc1_flash.h **** /**
 250:C:/Workspaces/DAVE_WS/USB_Changer/Libraries/XMCLib/inc\xmc1_flash.h ****  *
 251:C:/Workspaces/DAVE_WS/USB_Changer/Libraries/XMCLib/inc\xmc1_flash.h ****  * @param address    Pointer to the starting address of flash block from where the verification sta
 252:C:/Workspaces/DAVE_WS/USB_Changer/Libraries/XMCLib/inc\xmc1_flash.h ****  * @param data       Pointer to the source address where targeted data blocks are located.
 253:C:/Workspaces/DAVE_WS/USB_Changer/Libraries/XMCLib/inc\xmc1_flash.h ****  * @param num_blocks Maximum number of flash blocks writes needed.<BR> Range:  [1 to (flash size / 
 254:C:/Workspaces/DAVE_WS/USB_Changer/Libraries/XMCLib/inc\xmc1_flash.h ****  *
 255:C:/Workspaces/DAVE_WS/USB_Changer/Libraries/XMCLib/inc\xmc1_flash.h ****  * @return None
 256:C:/Workspaces/DAVE_WS/USB_Changer/Libraries/XMCLib/inc\xmc1_flash.h ****  *
 257:C:/Workspaces/DAVE_WS/USB_Changer/Libraries/XMCLib/inc\xmc1_flash.h ****  * \par<b>Description:</b><br>
 258:C:/Workspaces/DAVE_WS/USB_Changer/Libraries/XMCLib/inc\xmc1_flash.h ****  * Performs verification of written data blocks.\n\n After calling XMC_FLASH_WriteBlocks() API, cal
 259:C:/Workspaces/DAVE_WS/USB_Changer/Libraries/XMCLib/inc\xmc1_flash.h ****  * verify the correctness of written blocks. It sets the \a NVMPROG register into continuous block 
 260:C:/Workspaces/DAVE_WS/USB_Changer/Libraries/XMCLib/inc\xmc1_flash.h ****  * write and resets it action back to normal state on completion. It reads back the written data bl
 261:C:/Workspaces/DAVE_WS/USB_Changer/Libraries/XMCLib/inc\xmc1_flash.h ****  * and verify the values against the internal buffer values. Calling XMC_FLASH_GetStatus() API afte
 262:C:/Workspaces/DAVE_WS/USB_Changer/Libraries/XMCLib/inc\xmc1_flash.h ****  * validates the result of verification.
 263:C:/Workspaces/DAVE_WS/USB_Changer/Libraries/XMCLib/inc\xmc1_flash.h ****  *
 264:C:/Workspaces/DAVE_WS/USB_Changer/Libraries/XMCLib/inc\xmc1_flash.h ****  * \par<b>Related APIs:</b><BR>
 265:C:/Workspaces/DAVE_WS/USB_Changer/Libraries/XMCLib/inc\xmc1_flash.h ****  * None
 266:C:/Workspaces/DAVE_WS/USB_Changer/Libraries/XMCLib/inc\xmc1_flash.h ****  *
 267:C:/Workspaces/DAVE_WS/USB_Changer/Libraries/XMCLib/inc\xmc1_flash.h ****  */
 268:C:/Workspaces/DAVE_WS/USB_Changer/Libraries/XMCLib/inc\xmc1_flash.h **** void XMC_FLASH_VerifyBlocks(uint32_t *address, const uint32_t *data, uint32_t num_blocks);
 269:C:/Workspaces/DAVE_WS/USB_Changer/Libraries/XMCLib/inc\xmc1_flash.h **** 
 270:C:/Workspaces/DAVE_WS/USB_Changer/Libraries/XMCLib/inc\xmc1_flash.h **** 
 271:C:/Workspaces/DAVE_WS/USB_Changer/Libraries/XMCLib/inc\xmc1_flash.h **** /**
 272:C:/Workspaces/DAVE_WS/USB_Changer/Libraries/XMCLib/inc\xmc1_flash.h ****  *
 273:C:/Workspaces/DAVE_WS/USB_Changer/Libraries/XMCLib/inc\xmc1_flash.h ****  * @param  address    Pointer to the starting address of flash block from where the read starts.
 274:C:/Workspaces/DAVE_WS/USB_Changer/Libraries/XMCLib/inc\xmc1_flash.h ****  * @param  data       Pointer to the destination address, where the read data blocks to be stored.
 275:C:/Workspaces/DAVE_WS/USB_Changer/Libraries/XMCLib/inc\xmc1_flash.h ****  * @param  num_blocks Number of blocks to be read.<BR> Range:  [1 to (flash size / 16)]
 276:C:/Workspaces/DAVE_WS/USB_Changer/Libraries/XMCLib/inc\xmc1_flash.h ****  *
 277:C:/Workspaces/DAVE_WS/USB_Changer/Libraries/XMCLib/inc\xmc1_flash.h ****  * @return None
 278:C:/Workspaces/DAVE_WS/USB_Changer/Libraries/XMCLib/inc\xmc1_flash.h ****  *
 279:C:/Workspaces/DAVE_WS/USB_Changer/Libraries/XMCLib/inc\xmc1_flash.h ****  * \par<b>Description:</b><br>
 280:C:/Workspaces/DAVE_WS/USB_Changer/Libraries/XMCLib/inc\xmc1_flash.h ****  * Reads multiple blocks from flash in one shot, starting from the \a address specified.\n\n The re
 281:C:/Workspaces/DAVE_WS/USB_Changer/Libraries/XMCLib/inc\xmc1_flash.h ****  * into the locations starting from the \a data address. Calling XMC_FLASH_GetStatus() API after ca
 282:C:/Workspaces/DAVE_WS/USB_Changer/Libraries/XMCLib/inc\xmc1_flash.h ****  * verifies the read operation.
 283:C:/Workspaces/DAVE_WS/USB_Changer/Libraries/XMCLib/inc\xmc1_flash.h ****  *
 284:C:/Workspaces/DAVE_WS/USB_Changer/Libraries/XMCLib/inc\xmc1_flash.h ****  * \par<b>Related APIs:</b><BR>
 285:C:/Workspaces/DAVE_WS/USB_Changer/Libraries/XMCLib/inc\xmc1_flash.h ****  * None
 286:C:/Workspaces/DAVE_WS/USB_Changer/Libraries/XMCLib/inc\xmc1_flash.h ****  *
 287:C:/Workspaces/DAVE_WS/USB_Changer/Libraries/XMCLib/inc\xmc1_flash.h ****  */
 288:C:/Workspaces/DAVE_WS/USB_Changer/Libraries/XMCLib/inc\xmc1_flash.h **** void XMC_FLASH_ReadBlocks(uint32_t *address, uint32_t *data, uint32_t num_blocks);
 289:C:/Workspaces/DAVE_WS/USB_Changer/Libraries/XMCLib/inc\xmc1_flash.h **** 
 290:C:/Workspaces/DAVE_WS/USB_Changer/Libraries/XMCLib/inc\xmc1_flash.h **** 
 291:C:/Workspaces/DAVE_WS/USB_Changer/Libraries/XMCLib/inc\xmc1_flash.h **** /**
 292:C:/Workspaces/DAVE_WS/USB_Changer/Libraries/XMCLib/inc\xmc1_flash.h ****  *
 293:C:/Workspaces/DAVE_WS/USB_Changer/Libraries/XMCLib/inc\xmc1_flash.h ****  * @param address Pointer to the flash word address from where the read is expected
 294:C:/Workspaces/DAVE_WS/USB_Changer/Libraries/XMCLib/inc\xmc1_flash.h ****  *
 295:C:/Workspaces/DAVE_WS/USB_Changer/Libraries/XMCLib/inc\xmc1_flash.h ****  * @return <BR>
 296:C:/Workspaces/DAVE_WS/USB_Changer/Libraries/XMCLib/inc\xmc1_flash.h ****  *   a 32bit data word stored in the specified \a address.
 297:C:/Workspaces/DAVE_WS/USB_Changer/Libraries/XMCLib/inc\xmc1_flash.h ****  *
 298:C:/Workspaces/DAVE_WS/USB_Changer/Libraries/XMCLib/inc\xmc1_flash.h ****  * \par<b>Description:</b><br>
 299:C:/Workspaces/DAVE_WS/USB_Changer/Libraries/XMCLib/inc\xmc1_flash.h ****  * Reads a single word from the specified flash\a address.\n\n Calling XMC_FLASH_GetStatus() API af
 300:C:/Workspaces/DAVE_WS/USB_Changer/Libraries/XMCLib/inc\xmc1_flash.h ****  * API returns the read status.
 301:C:/Workspaces/DAVE_WS/USB_Changer/Libraries/XMCLib/inc\xmc1_flash.h ****  *
 302:C:/Workspaces/DAVE_WS/USB_Changer/Libraries/XMCLib/inc\xmc1_flash.h ****  * \par<b>Related APIs:</b><BR>
 303:C:/Workspaces/DAVE_WS/USB_Changer/Libraries/XMCLib/inc\xmc1_flash.h ****  * XMC_FLASH_ReadBlocks()
 304:C:/Workspaces/DAVE_WS/USB_Changer/Libraries/XMCLib/inc\xmc1_flash.h ****  *
 305:C:/Workspaces/DAVE_WS/USB_Changer/Libraries/XMCLib/inc\xmc1_flash.h ****  */
 306:C:/Workspaces/DAVE_WS/USB_Changer/Libraries/XMCLib/inc\xmc1_flash.h **** __STATIC_INLINE uint32_t XMC_FLASH_ReadWord(const uint32_t *const address)
 307:C:/Workspaces/DAVE_WS/USB_Changer/Libraries/XMCLib/inc\xmc1_flash.h **** {
  25              	 .loc 1 307 0
  26              	 .cfi_startproc
  27 0000 80B5     	 push {r7,lr}
  28              	.LCFI0:
  29              	 .cfi_def_cfa_offset 8
  30              	 .cfi_offset 7,-8
  31              	 .cfi_offset 14,-4
  32 0002 82B0     	 sub sp,sp,#8
  33              	.LCFI1:
  34              	 .cfi_def_cfa_offset 16
  35 0004 00AF     	 add r7,sp,#0
  36              	.LCFI2:
  37              	 .cfi_def_cfa_register 7
  38 0006 7860     	 str r0,[r7,#4]
 308:C:/Workspaces/DAVE_WS/USB_Changer/Libraries/XMCLib/inc\xmc1_flash.h ****   return *address;
  39              	 .loc 1 308 0
  40 0008 7B68     	 ldr r3,[r7,#4]
  41 000a 1B68     	 ldr r3,[r3]
 309:C:/Workspaces/DAVE_WS/USB_Changer/Libraries/XMCLib/inc\xmc1_flash.h **** }
  42              	 .loc 1 309 0
  43 000c 181C     	 mov r0,r3
  44 000e BD46     	 mov sp,r7
  45 0010 02B0     	 add sp,sp,#8
  46              	 
  47 0012 80BD     	 pop {r7,pc}
  48              	 .cfi_endproc
  49              	.LFE42:
  51              	 .section .text.XMC_FLASH_SetHardReadLevel,"ax",%progbits
  52              	 .align 2
  53              	 .code 16
  54              	 .thumb_func
  56              	XMC_FLASH_SetHardReadLevel:
  57              	.LFB47:
 310:C:/Workspaces/DAVE_WS/USB_Changer/Libraries/XMCLib/inc\xmc1_flash.h **** 
 311:C:/Workspaces/DAVE_WS/USB_Changer/Libraries/XMCLib/inc\xmc1_flash.h **** /**
 312:C:/Workspaces/DAVE_WS/USB_Changer/Libraries/XMCLib/inc\xmc1_flash.h ****  *
 313:C:/Workspaces/DAVE_WS/USB_Changer/Libraries/XMCLib/inc\xmc1_flash.h ****  * @param address Pointer to the starting address of the page to be erased
 314:C:/Workspaces/DAVE_WS/USB_Changer/Libraries/XMCLib/inc\xmc1_flash.h ****  *
 315:C:/Workspaces/DAVE_WS/USB_Changer/Libraries/XMCLib/inc\xmc1_flash.h ****  * @return Status of operation (NVM_STATUS)
 316:C:/Workspaces/DAVE_WS/USB_Changer/Libraries/XMCLib/inc\xmc1_flash.h ****  *
 317:C:/Workspaces/DAVE_WS/USB_Changer/Libraries/XMCLib/inc\xmc1_flash.h ****  * \par<b>Description:</b><br>
 318:C:/Workspaces/DAVE_WS/USB_Changer/Libraries/XMCLib/inc\xmc1_flash.h ****  * Erases a single flash page associated to the specified \a address.\n\n XMC1000 Flash can be eras
 319:C:/Workspaces/DAVE_WS/USB_Changer/Libraries/XMCLib/inc\xmc1_flash.h ****  * of one page = 16 blocks of 16 Bytes = 256 Bytes using this API. It internally calls the Flash Fi
 320:C:/Workspaces/DAVE_WS/USB_Changer/Libraries/XMCLib/inc\xmc1_flash.h ****  * \a XMC1000_NvmErasePage(unsigned long pageAddr) to perform the erase operation. Refer XMC1000 re
 321:C:/Workspaces/DAVE_WS/USB_Changer/Libraries/XMCLib/inc\xmc1_flash.h ****  * for more details on flash firmware routines (Section 25.3). Call XMC_FLASH_GetStatus() API after
 322:C:/Workspaces/DAVE_WS/USB_Changer/Libraries/XMCLib/inc\xmc1_flash.h ****  * to verify the erase operation.\n
 323:C:/Workspaces/DAVE_WS/USB_Changer/Libraries/XMCLib/inc\xmc1_flash.h ****  *
 324:C:/Workspaces/DAVE_WS/USB_Changer/Libraries/XMCLib/inc\xmc1_flash.h ****  * \par<b>Related APIs:</b><BR>
 325:C:/Workspaces/DAVE_WS/USB_Changer/Libraries/XMCLib/inc\xmc1_flash.h ****  * XMC_FLASH_ErasePages() \n\n\n
 326:C:/Workspaces/DAVE_WS/USB_Changer/Libraries/XMCLib/inc\xmc1_flash.h ****  */
 327:C:/Workspaces/DAVE_WS/USB_Changer/Libraries/XMCLib/inc\xmc1_flash.h **** int32_t XMC_FLASH_ErasePage(uint32_t *address);
 328:C:/Workspaces/DAVE_WS/USB_Changer/Libraries/XMCLib/inc\xmc1_flash.h **** 
 329:C:/Workspaces/DAVE_WS/USB_Changer/Libraries/XMCLib/inc\xmc1_flash.h **** /**
 330:C:/Workspaces/DAVE_WS/USB_Changer/Libraries/XMCLib/inc\xmc1_flash.h ****  *
 331:C:/Workspaces/DAVE_WS/USB_Changer/Libraries/XMCLib/inc\xmc1_flash.h ****  * @param address    Pointer to the starting address of flash page from where the programming start
 332:C:/Workspaces/DAVE_WS/USB_Changer/Libraries/XMCLib/inc\xmc1_flash.h ****  * @param data       Pointer to the source address where targeted data blocks are located.
 333:C:/Workspaces/DAVE_WS/USB_Changer/Libraries/XMCLib/inc\xmc1_flash.h ****  *
 334:C:/Workspaces/DAVE_WS/USB_Changer/Libraries/XMCLib/inc\xmc1_flash.h ****  * @return Status of operation (NVM_STATUS)
 335:C:/Workspaces/DAVE_WS/USB_Changer/Libraries/XMCLib/inc\xmc1_flash.h ****  *
 336:C:/Workspaces/DAVE_WS/USB_Changer/Libraries/XMCLib/inc\xmc1_flash.h ****  * \par<b>Description:</b><br>
 337:C:/Workspaces/DAVE_WS/USB_Changer/Libraries/XMCLib/inc\xmc1_flash.h ****  * Erases, programs and verifies a single flash page starting from the \a address specified.\n\n XM
 338:C:/Workspaces/DAVE_WS/USB_Changer/Libraries/XMCLib/inc\xmc1_flash.h ****  * programmed with granularity of one page = 16 blocks of 16 Bytes = 256 Bytes using this API. It i
 339:C:/Workspaces/DAVE_WS/USB_Changer/Libraries/XMCLib/inc\xmc1_flash.h ****  * Flash Firmware routine \a XMC1000_NvmProgVerify(unsigned long pageAddr) to perform the programmi
 340:C:/Workspaces/DAVE_WS/USB_Changer/Libraries/XMCLib/inc\xmc1_flash.h ****  * reference manual of for more details on flash firmware routines (Section 25.3). Call XMC_FLASH_G
 341:C:/Workspaces/DAVE_WS/USB_Changer/Libraries/XMCLib/inc\xmc1_flash.h ****  * calling this API, to verify the erase operation.
 342:C:/Workspaces/DAVE_WS/USB_Changer/Libraries/XMCLib/inc\xmc1_flash.h ****  *
 343:C:/Workspaces/DAVE_WS/USB_Changer/Libraries/XMCLib/inc\xmc1_flash.h ****  * \par<b>Related APIs:</b><BR>
 344:C:/Workspaces/DAVE_WS/USB_Changer/Libraries/XMCLib/inc\xmc1_flash.h ****  * None
 345:C:/Workspaces/DAVE_WS/USB_Changer/Libraries/XMCLib/inc\xmc1_flash.h ****  *
 346:C:/Workspaces/DAVE_WS/USB_Changer/Libraries/XMCLib/inc\xmc1_flash.h ****  */
 347:C:/Workspaces/DAVE_WS/USB_Changer/Libraries/XMCLib/inc\xmc1_flash.h **** int32_t XMC_FLASH_ProgramVerifyPage(uint32_t *address, const uint32_t *data);
 348:C:/Workspaces/DAVE_WS/USB_Changer/Libraries/XMCLib/inc\xmc1_flash.h **** 
 349:C:/Workspaces/DAVE_WS/USB_Changer/Libraries/XMCLib/inc\xmc1_flash.h **** /**
 350:C:/Workspaces/DAVE_WS/USB_Changer/Libraries/XMCLib/inc\xmc1_flash.h ****  *
 351:C:/Workspaces/DAVE_WS/USB_Changer/Libraries/XMCLib/inc\xmc1_flash.h ****  * @param None
 352:C:/Workspaces/DAVE_WS/USB_Changer/Libraries/XMCLib/inc\xmc1_flash.h ****  *
 353:C:/Workspaces/DAVE_WS/USB_Changer/Libraries/XMCLib/inc\xmc1_flash.h ****  * @return None
 354:C:/Workspaces/DAVE_WS/USB_Changer/Libraries/XMCLib/inc\xmc1_flash.h ****  *
 355:C:/Workspaces/DAVE_WS/USB_Changer/Libraries/XMCLib/inc\xmc1_flash.h ****  * \par<b>Description:</b><br>
 356:C:/Workspaces/DAVE_WS/USB_Changer/Libraries/XMCLib/inc\xmc1_flash.h ****  * Enables the flash to enter into sleep mode by resetting the NVMCONF register NVM_ON bit.\n\n Fla
 357:C:/Workspaces/DAVE_WS/USB_Changer/Libraries/XMCLib/inc\xmc1_flash.h ****  * sleep mode on any flash operation completion ready event trigger. To disable the sleep mode any 
 358:C:/Workspaces/DAVE_WS/USB_Changer/Libraries/XMCLib/inc\xmc1_flash.h ****  * call the API XMC_FLASH_ExitSleepMode().\n
 359:C:/Workspaces/DAVE_WS/USB_Changer/Libraries/XMCLib/inc\xmc1_flash.h ****  *
 360:C:/Workspaces/DAVE_WS/USB_Changer/Libraries/XMCLib/inc\xmc1_flash.h ****  * \par<b>Related APIs:</b><BR>
 361:C:/Workspaces/DAVE_WS/USB_Changer/Libraries/XMCLib/inc\xmc1_flash.h ****  * XMC_FLASH_ExitSleepMode()\n\n\n
 362:C:/Workspaces/DAVE_WS/USB_Changer/Libraries/XMCLib/inc\xmc1_flash.h ****  *
 363:C:/Workspaces/DAVE_WS/USB_Changer/Libraries/XMCLib/inc\xmc1_flash.h ****  */
 364:C:/Workspaces/DAVE_WS/USB_Changer/Libraries/XMCLib/inc\xmc1_flash.h **** __STATIC_INLINE void XMC_FLASH_EnterSleepMode(void)
 365:C:/Workspaces/DAVE_WS/USB_Changer/Libraries/XMCLib/inc\xmc1_flash.h **** {
 366:C:/Workspaces/DAVE_WS/USB_Changer/Libraries/XMCLib/inc\xmc1_flash.h ****   NVM->NVMCONF &= (uint16_t)(~(uint32_t)NVM_NVMCONF_NVM_ON_Msk);
 367:C:/Workspaces/DAVE_WS/USB_Changer/Libraries/XMCLib/inc\xmc1_flash.h **** }
 368:C:/Workspaces/DAVE_WS/USB_Changer/Libraries/XMCLib/inc\xmc1_flash.h **** 
 369:C:/Workspaces/DAVE_WS/USB_Changer/Libraries/XMCLib/inc\xmc1_flash.h **** /**
 370:C:/Workspaces/DAVE_WS/USB_Changer/Libraries/XMCLib/inc\xmc1_flash.h ****  *
 371:C:/Workspaces/DAVE_WS/USB_Changer/Libraries/XMCLib/inc\xmc1_flash.h ****  * @param None
 372:C:/Workspaces/DAVE_WS/USB_Changer/Libraries/XMCLib/inc\xmc1_flash.h ****  *
 373:C:/Workspaces/DAVE_WS/USB_Changer/Libraries/XMCLib/inc\xmc1_flash.h ****  * @return None
 374:C:/Workspaces/DAVE_WS/USB_Changer/Libraries/XMCLib/inc\xmc1_flash.h ****  *
 375:C:/Workspaces/DAVE_WS/USB_Changer/Libraries/XMCLib/inc\xmc1_flash.h ****  * \par<b>Description:</b><br>
 376:C:/Workspaces/DAVE_WS/USB_Changer/Libraries/XMCLib/inc\xmc1_flash.h ****  * Enables the flash to exit from sleep mode by setting the NVMCONF register NVM_ON bit.\n\n Callin
 377:C:/Workspaces/DAVE_WS/USB_Changer/Libraries/XMCLib/inc\xmc1_flash.h ****  * XMC_FLASH_EnterSleepMode() allows the flash to renter into sleep mode.\n
 378:C:/Workspaces/DAVE_WS/USB_Changer/Libraries/XMCLib/inc\xmc1_flash.h ****  *
 379:C:/Workspaces/DAVE_WS/USB_Changer/Libraries/XMCLib/inc\xmc1_flash.h ****  * \par<b>Related APIs:</b><BR>
 380:C:/Workspaces/DAVE_WS/USB_Changer/Libraries/XMCLib/inc\xmc1_flash.h ****  * XMC_FLASH_EnterSleepMode()\n\n\n
 381:C:/Workspaces/DAVE_WS/USB_Changer/Libraries/XMCLib/inc\xmc1_flash.h ****  *
 382:C:/Workspaces/DAVE_WS/USB_Changer/Libraries/XMCLib/inc\xmc1_flash.h ****  */
 383:C:/Workspaces/DAVE_WS/USB_Changer/Libraries/XMCLib/inc\xmc1_flash.h **** __STATIC_INLINE void XMC_FLASH_ExitSleepMode(void)
 384:C:/Workspaces/DAVE_WS/USB_Changer/Libraries/XMCLib/inc\xmc1_flash.h **** {
 385:C:/Workspaces/DAVE_WS/USB_Changer/Libraries/XMCLib/inc\xmc1_flash.h ****   NVM->NVMCONF |= (uint16_t)NVM_NVMCONF_NVM_ON_Msk;
 386:C:/Workspaces/DAVE_WS/USB_Changer/Libraries/XMCLib/inc\xmc1_flash.h **** }
 387:C:/Workspaces/DAVE_WS/USB_Changer/Libraries/XMCLib/inc\xmc1_flash.h **** 
 388:C:/Workspaces/DAVE_WS/USB_Changer/Libraries/XMCLib/inc\xmc1_flash.h **** 
 389:C:/Workspaces/DAVE_WS/USB_Changer/Libraries/XMCLib/inc\xmc1_flash.h **** /**
 390:C:/Workspaces/DAVE_WS/USB_Changer/Libraries/XMCLib/inc\xmc1_flash.h ****  *
 391:C:/Workspaces/DAVE_WS/USB_Changer/Libraries/XMCLib/inc\xmc1_flash.h ****  * @param sector Flash sector number for which the address extraction is needed<BR> Range:  [0 to 5
 392:C:/Workspaces/DAVE_WS/USB_Changer/Libraries/XMCLib/inc\xmc1_flash.h ****  *
 393:C:/Workspaces/DAVE_WS/USB_Changer/Libraries/XMCLib/inc\xmc1_flash.h ****  * @return uint32_t Starting address of the sector specified<BR> Range:  [0x10001000 to 0x10032000]
 394:C:/Workspaces/DAVE_WS/USB_Changer/Libraries/XMCLib/inc\xmc1_flash.h ****  *
 395:C:/Workspaces/DAVE_WS/USB_Changer/Libraries/XMCLib/inc\xmc1_flash.h ****  * \par<b>Description:</b><br>
 396:C:/Workspaces/DAVE_WS/USB_Changer/Libraries/XMCLib/inc\xmc1_flash.h ****  * Finds the starting address of the specified \a sector number.\n\n
 397:C:/Workspaces/DAVE_WS/USB_Changer/Libraries/XMCLib/inc\xmc1_flash.h ****  *
 398:C:/Workspaces/DAVE_WS/USB_Changer/Libraries/XMCLib/inc\xmc1_flash.h ****  * \par<b>Related APIs:</b><BR>
 399:C:/Workspaces/DAVE_WS/USB_Changer/Libraries/XMCLib/inc\xmc1_flash.h ****  * None
 400:C:/Workspaces/DAVE_WS/USB_Changer/Libraries/XMCLib/inc\xmc1_flash.h ****  *
 401:C:/Workspaces/DAVE_WS/USB_Changer/Libraries/XMCLib/inc\xmc1_flash.h ****  */
 402:C:/Workspaces/DAVE_WS/USB_Changer/Libraries/XMCLib/inc\xmc1_flash.h **** __STATIC_INLINE uint32_t XMC_FLASH_GetSectorAddress(uint32_t sector)
 403:C:/Workspaces/DAVE_WS/USB_Changer/Libraries/XMCLib/inc\xmc1_flash.h **** {
 404:C:/Workspaces/DAVE_WS/USB_Changer/Libraries/XMCLib/inc\xmc1_flash.h ****   return (XMC_FLASH_BASE + (XMC_FLASH_BYTES_PER_SECTOR * sector));
 405:C:/Workspaces/DAVE_WS/USB_Changer/Libraries/XMCLib/inc\xmc1_flash.h **** }
 406:C:/Workspaces/DAVE_WS/USB_Changer/Libraries/XMCLib/inc\xmc1_flash.h **** 
 407:C:/Workspaces/DAVE_WS/USB_Changer/Libraries/XMCLib/inc\xmc1_flash.h **** 
 408:C:/Workspaces/DAVE_WS/USB_Changer/Libraries/XMCLib/inc\xmc1_flash.h **** /**
 409:C:/Workspaces/DAVE_WS/USB_Changer/Libraries/XMCLib/inc\xmc1_flash.h ****  *
 410:C:/Workspaces/DAVE_WS/USB_Changer/Libraries/XMCLib/inc\xmc1_flash.h ****  * @param num_sectors    Number of sectors to be protected<BR> Range:  [0 to 51]
 411:C:/Workspaces/DAVE_WS/USB_Changer/Libraries/XMCLib/inc\xmc1_flash.h ****  *
 412:C:/Workspaces/DAVE_WS/USB_Changer/Libraries/XMCLib/inc\xmc1_flash.h ****  * @return None
 413:C:/Workspaces/DAVE_WS/USB_Changer/Libraries/XMCLib/inc\xmc1_flash.h ****  *
 414:C:/Workspaces/DAVE_WS/USB_Changer/Libraries/XMCLib/inc\xmc1_flash.h ****  * \par<b>Description:</b><br>
 415:C:/Workspaces/DAVE_WS/USB_Changer/Libraries/XMCLib/inc\xmc1_flash.h ****  * Protect the flash sectors starting from 0th sector to the specified \a num_sectors.\n\n It sets 
 416:C:/Workspaces/DAVE_WS/USB_Changer/Libraries/XMCLib/inc\xmc1_flash.h ****  * SECPROT field with the value specified in \a num_sectors. Changing the protection limit can be a
 417:C:/Workspaces/DAVE_WS/USB_Changer/Libraries/XMCLib/inc\xmc1_flash.h ****  * this API at runtime with a different value of \a num_sectors.\n\n
 418:C:/Workspaces/DAVE_WS/USB_Changer/Libraries/XMCLib/inc\xmc1_flash.h ****  *
 419:C:/Workspaces/DAVE_WS/USB_Changer/Libraries/XMCLib/inc\xmc1_flash.h ****  * \par<b>Related APIs:</b><BR>
 420:C:/Workspaces/DAVE_WS/USB_Changer/Libraries/XMCLib/inc\xmc1_flash.h ****  * None
 421:C:/Workspaces/DAVE_WS/USB_Changer/Libraries/XMCLib/inc\xmc1_flash.h ****  *
 422:C:/Workspaces/DAVE_WS/USB_Changer/Libraries/XMCLib/inc\xmc1_flash.h ****  */
 423:C:/Workspaces/DAVE_WS/USB_Changer/Libraries/XMCLib/inc\xmc1_flash.h **** __STATIC_INLINE void XMC_FLASH_SetSectorProtection(uint32_t num_sectors)
 424:C:/Workspaces/DAVE_WS/USB_Changer/Libraries/XMCLib/inc\xmc1_flash.h **** {
 425:C:/Workspaces/DAVE_WS/USB_Changer/Libraries/XMCLib/inc\xmc1_flash.h ****   NVM->NVMCONF &= (~(uint16_t)NVM_NVMCONF_SECPROT_Msk);
 426:C:/Workspaces/DAVE_WS/USB_Changer/Libraries/XMCLib/inc\xmc1_flash.h ****   NVM->NVMCONF |= (uint16_t)((uint16_t)num_sectors << NVM_NVMCONF_SECPROT_Pos);
 427:C:/Workspaces/DAVE_WS/USB_Changer/Libraries/XMCLib/inc\xmc1_flash.h **** }
 428:C:/Workspaces/DAVE_WS/USB_Changer/Libraries/XMCLib/inc\xmc1_flash.h **** 
 429:C:/Workspaces/DAVE_WS/USB_Changer/Libraries/XMCLib/inc\xmc1_flash.h **** 
 430:C:/Workspaces/DAVE_WS/USB_Changer/Libraries/XMCLib/inc\xmc1_flash.h **** /**
 431:C:/Workspaces/DAVE_WS/USB_Changer/Libraries/XMCLib/inc\xmc1_flash.h ****  *
 432:C:/Workspaces/DAVE_WS/USB_Changer/Libraries/XMCLib/inc\xmc1_flash.h ****  * @param level Hard read levels specified in \a XMC_FLASH_HARDREAD_LEVEL_t.
 433:C:/Workspaces/DAVE_WS/USB_Changer/Libraries/XMCLib/inc\xmc1_flash.h ****  *
 434:C:/Workspaces/DAVE_WS/USB_Changer/Libraries/XMCLib/inc\xmc1_flash.h ****  * @return None
 435:C:/Workspaces/DAVE_WS/USB_Changer/Libraries/XMCLib/inc\xmc1_flash.h ****  *
 436:C:/Workspaces/DAVE_WS/USB_Changer/Libraries/XMCLib/inc\xmc1_flash.h ****  * \par<b>Description:</b><br>
 437:C:/Workspaces/DAVE_WS/USB_Changer/Libraries/XMCLib/inc\xmc1_flash.h ****  * Sets the hard read level for verification process.\n\n It insists the flash to do a strict margi
 438:C:/Workspaces/DAVE_WS/USB_Changer/Libraries/XMCLib/inc\xmc1_flash.h ****  * with the written/erased data against the internal buffer. Sets the NVMCONF register HRLEV field 
 439:C:/Workspaces/DAVE_WS/USB_Changer/Libraries/XMCLib/inc\xmc1_flash.h ****  * value. This hardread level is used until the end of the verification sequence and, may not be ch
 440:C:/Workspaces/DAVE_WS/USB_Changer/Libraries/XMCLib/inc\xmc1_flash.h ****  *
 441:C:/Workspaces/DAVE_WS/USB_Changer/Libraries/XMCLib/inc\xmc1_flash.h ****  * \par<b>Related APIs:</b><BR>
 442:C:/Workspaces/DAVE_WS/USB_Changer/Libraries/XMCLib/inc\xmc1_flash.h ****  * None
 443:C:/Workspaces/DAVE_WS/USB_Changer/Libraries/XMCLib/inc\xmc1_flash.h ****  *
 444:C:/Workspaces/DAVE_WS/USB_Changer/Libraries/XMCLib/inc\xmc1_flash.h ****  */
 445:C:/Workspaces/DAVE_WS/USB_Changer/Libraries/XMCLib/inc\xmc1_flash.h **** __STATIC_INLINE void XMC_FLASH_SetHardReadLevel(XMC_FLASH_HARDREAD_LEVEL_t level)
 446:C:/Workspaces/DAVE_WS/USB_Changer/Libraries/XMCLib/inc\xmc1_flash.h **** {
  58              	 .loc 1 446 0
  59              	 .cfi_startproc
  60 0000 80B5     	 push {r7,lr}
  61              	.LCFI3:
  62              	 .cfi_def_cfa_offset 8
  63              	 .cfi_offset 7,-8
  64              	 .cfi_offset 14,-4
  65 0002 82B0     	 sub sp,sp,#8
  66              	.LCFI4:
  67              	 .cfi_def_cfa_offset 16
  68 0004 00AF     	 add r7,sp,#0
  69              	.LCFI5:
  70              	 .cfi_def_cfa_register 7
  71 0006 021C     	 mov r2,r0
  72 0008 FB1D     	 add r3,r7,#7
  73 000a 1A70     	 strb r2,[r3]
 447:C:/Workspaces/DAVE_WS/USB_Changer/Libraries/XMCLib/inc\xmc1_flash.h ****   NVM->NVMCONF &= (uint16_t)(~(uint16_t)NVM_NVMCONF_HRLEV_Msk);
  74              	 .loc 1 447 0
  75 000c 0B4A     	 ldr r2,.L4
  76 000e 0B4B     	 ldr r3,.L4
  77 0010 1B89     	 ldrh r3,[r3,#8]
  78 0012 9BB2     	 uxth r3,r3
  79 0014 0621     	 mov r1,#6
  80 0016 8B43     	 bic r3,r1
  81 0018 9BB2     	 uxth r3,r3
  82 001a 1381     	 strh r3,[r2,#8]
 448:C:/Workspaces/DAVE_WS/USB_Changer/Libraries/XMCLib/inc\xmc1_flash.h ****   NVM->NVMCONF |= (uint16_t)(level << (uint16_t)NVM_NVMCONF_HRLEV_Pos);
  83              	 .loc 1 448 0
  84 001c 0749     	 ldr r1,.L4
  85 001e 074B     	 ldr r3,.L4
  86 0020 1B89     	 ldrh r3,[r3,#8]
  87 0022 9AB2     	 uxth r2,r3
  88 0024 FB1D     	 add r3,r7,#7
  89 0026 1B78     	 ldrb r3,[r3]
  90 0028 9BB2     	 uxth r3,r3
  91 002a DB18     	 add r3,r3,r3
  92 002c 9BB2     	 uxth r3,r3
  93 002e 1343     	 orr r3,r2
  94 0030 9BB2     	 uxth r3,r3
  95 0032 0B81     	 strh r3,[r1,#8]
 449:C:/Workspaces/DAVE_WS/USB_Changer/Libraries/XMCLib/inc\xmc1_flash.h **** }
  96              	 .loc 1 449 0
  97 0034 BD46     	 mov sp,r7
  98 0036 02B0     	 add sp,sp,#8
  99              	 
 100 0038 80BD     	 pop {r7,pc}
 101              	.L5:
 102 003a C046     	 .align 2
 103              	.L4:
 104 003c 00000540 	 .word 1074069504
 105              	 .cfi_endproc
 106              	.LFE47:
 108              	 .section .text.E_EEPROM_XMC1_GetAppVersion,"ax",%progbits
 109              	 .align 2
 110              	 .global E_EEPROM_XMC1_GetAppVersion
 111              	 .code 16
 112              	 .thumb_func
 114              	E_EEPROM_XMC1_GetAppVersion:
 115              	.LFB49:
 116              	 .file 2 "../Dave/Generated/E_EEPROM_XMC1/e_eeprom_xmc1.c"
   1:../Dave/Generated/E_EEPROM_XMC1/e_eeprom_xmc1.c **** /**
   2:../Dave/Generated/E_EEPROM_XMC1/e_eeprom_xmc1.c ****  * @file e_eeprom_xmc1.c
   3:../Dave/Generated/E_EEPROM_XMC1/e_eeprom_xmc1.c ****  * @date 2018-08-08
   4:../Dave/Generated/E_EEPROM_XMC1/e_eeprom_xmc1.c ****  *
   5:../Dave/Generated/E_EEPROM_XMC1/e_eeprom_xmc1.c ****  * NOTE:
   6:../Dave/Generated/E_EEPROM_XMC1/e_eeprom_xmc1.c ****  * This file is generated by DAVE. Any manual modification done to this file will be lost when the 
   7:../Dave/Generated/E_EEPROM_XMC1/e_eeprom_xmc1.c ****  *
   8:../Dave/Generated/E_EEPROM_XMC1/e_eeprom_xmc1.c ****  * @cond
   9:../Dave/Generated/E_EEPROM_XMC1/e_eeprom_xmc1.c ****  **************************************************************************************************
  10:../Dave/Generated/E_EEPROM_XMC1/e_eeprom_xmc1.c ****  * E_EEPROM_XMC1 v4.1.14 - Emulates a portion of flash as an EEPROM for data storage.
  11:../Dave/Generated/E_EEPROM_XMC1/e_eeprom_xmc1.c ****  *
  12:../Dave/Generated/E_EEPROM_XMC1/e_eeprom_xmc1.c ****  * Copyright (c) 2015-2020, Infineon Technologies AG
  13:../Dave/Generated/E_EEPROM_XMC1/e_eeprom_xmc1.c ****  * All rights reserved.
  14:../Dave/Generated/E_EEPROM_XMC1/e_eeprom_xmc1.c ****  *
  15:../Dave/Generated/E_EEPROM_XMC1/e_eeprom_xmc1.c ****  * Redistribution and use in source and binary forms, with or without modification,are permitted pr
  16:../Dave/Generated/E_EEPROM_XMC1/e_eeprom_xmc1.c ****  * following conditions are met:
  17:../Dave/Generated/E_EEPROM_XMC1/e_eeprom_xmc1.c ****  *
  18:../Dave/Generated/E_EEPROM_XMC1/e_eeprom_xmc1.c ****  *   Redistributions of source code must retain the above copyright notice, this list of conditions
  19:../Dave/Generated/E_EEPROM_XMC1/e_eeprom_xmc1.c ****  *   disclaimer.
  20:../Dave/Generated/E_EEPROM_XMC1/e_eeprom_xmc1.c ****  *
  21:../Dave/Generated/E_EEPROM_XMC1/e_eeprom_xmc1.c ****  *   Redistributions in binary form must reproduce the above copyright notice, this list of conditi
  22:../Dave/Generated/E_EEPROM_XMC1/e_eeprom_xmc1.c ****  *   following disclaimer in the documentation and/or other materials provided with the distributio
  23:../Dave/Generated/E_EEPROM_XMC1/e_eeprom_xmc1.c ****  *
  24:../Dave/Generated/E_EEPROM_XMC1/e_eeprom_xmc1.c ****  *   Neither the name of the copyright holders nor the names of its contributors may be used to end
  25:../Dave/Generated/E_EEPROM_XMC1/e_eeprom_xmc1.c ****  *   products derived from this software without specific prior written permission.
  26:../Dave/Generated/E_EEPROM_XMC1/e_eeprom_xmc1.c ****  *
  27:../Dave/Generated/E_EEPROM_XMC1/e_eeprom_xmc1.c ****  * THIS SOFTWARE IS PROVIDED BY THE COPYRIGHT HOLDERS AND CONTRIBUTORS "AS IS" AND ANY EXPRESS OR I
  28:../Dave/Generated/E_EEPROM_XMC1/e_eeprom_xmc1.c ****  * INCLUDING, BUT NOT LIMITED TO, THE IMPLIED WARRANTIES OF MERCHANTABILITY AND FITNESS FOR A PARTI
  29:../Dave/Generated/E_EEPROM_XMC1/e_eeprom_xmc1.c ****  * DISCLAIMED. IN NO EVENT SHALL THE COPYRIGHT HOLDER OR CONTRIBUTORS BE LIABLE  FOR ANY DIRECT, IN
  30:../Dave/Generated/E_EEPROM_XMC1/e_eeprom_xmc1.c ****  * SPECIAL, EXEMPLARY, OR CONSEQUENTIAL DAMAGES (INCLUDING, BUT NOT LIMITED TO, PROCUREMENT OF SUBS
  31:../Dave/Generated/E_EEPROM_XMC1/e_eeprom_xmc1.c ****  * SERVICES; LOSS OF USE, DATA, OR PROFITS; OR BUSINESS INTERRUPTION) HOWEVER CAUSED AND ON ANY THE
  32:../Dave/Generated/E_EEPROM_XMC1/e_eeprom_xmc1.c ****  * WHETHER IN CONTRACT, STRICT LIABILITY,OR TORT (INCLUDING NEGLIGENCE OR OTHERWISE) ARISING IN ANY
  33:../Dave/Generated/E_EEPROM_XMC1/e_eeprom_xmc1.c ****  * USE OF THIS SOFTWARE, EVEN IF ADVISED OF THE POSSIBILITY OF SUCH DAMAGE.
  34:../Dave/Generated/E_EEPROM_XMC1/e_eeprom_xmc1.c ****  *
  35:../Dave/Generated/E_EEPROM_XMC1/e_eeprom_xmc1.c ****  * To improve the quality of the software, users are encouraged to share modifications, enhancement
  36:../Dave/Generated/E_EEPROM_XMC1/e_eeprom_xmc1.c ****  * with Infineon Technologies AG (dave@infineon.com).
  37:../Dave/Generated/E_EEPROM_XMC1/e_eeprom_xmc1.c ****  **************************************************************************************************
  38:../Dave/Generated/E_EEPROM_XMC1/e_eeprom_xmc1.c ****  *
  39:../Dave/Generated/E_EEPROM_XMC1/e_eeprom_xmc1.c ****  * Change History
  40:../Dave/Generated/E_EEPROM_XMC1/e_eeprom_xmc1.c ****  * --------------
  41:../Dave/Generated/E_EEPROM_XMC1/e_eeprom_xmc1.c ****  *
  42:../Dave/Generated/E_EEPROM_XMC1/e_eeprom_xmc1.c ****  * 2015-02-16:
  43:../Dave/Generated/E_EEPROM_XMC1/e_eeprom_xmc1.c ****  *     - Initial version<br>
  44:../Dave/Generated/E_EEPROM_XMC1/e_eeprom_xmc1.c ****  *
  45:../Dave/Generated/E_EEPROM_XMC1/e_eeprom_xmc1.c ****  * 2015-04-24:
  46:../Dave/Generated/E_EEPROM_XMC1/e_eeprom_xmc1.c ****  *     - E_EEPROM_XMC1_ReadBlockWithCRC API renamed to E_EEPROM_XMC1_VerifyBlockCrcStatus<br>
  47:../Dave/Generated/E_EEPROM_XMC1/e_eeprom_xmc1.c ****  *     - E_EEPROM_XMC1_OPERATION_STATUS_t enumeration parameter names changed and additional status
  48:../Dave/Generated/E_EEPROM_XMC1/e_eeprom_xmc1.c ****  *       E_EEPROM_XMC1_OPERATION_STATUS_NO_CRC_WRITTEN added.
  49:../Dave/Generated/E_EEPROM_XMC1/e_eeprom_xmc1.c ****  *
  50:../Dave/Generated/E_EEPROM_XMC1/e_eeprom_xmc1.c ****  * 2016-07-08:
  51:../Dave/Generated/E_EEPROM_XMC1/e_eeprom_xmc1.c ****  *     - Fixed incorrect case for an included header.<br>
  52:../Dave/Generated/E_EEPROM_XMC1/e_eeprom_xmc1.c ****  *
  53:../Dave/Generated/E_EEPROM_XMC1/e_eeprom_xmc1.c ****  * 2018-08-08:
  54:../Dave/Generated/E_EEPROM_XMC1/e_eeprom_xmc1.c ****  *     - Fixed issue E_EEPROM_XMC1_lGetPrevData() function to avoid that it can search beyond the e
  55:../Dave/Generated/E_EEPROM_XMC1/e_eeprom_xmc1.c ****  *
  56:../Dave/Generated/E_EEPROM_XMC1/e_eeprom_xmc1.c ****  * @endcond
  57:../Dave/Generated/E_EEPROM_XMC1/e_eeprom_xmc1.c ****  *
  58:../Dave/Generated/E_EEPROM_XMC1/e_eeprom_xmc1.c ****  */
  59:../Dave/Generated/E_EEPROM_XMC1/e_eeprom_xmc1.c **** 
  60:../Dave/Generated/E_EEPROM_XMC1/e_eeprom_xmc1.c **** /**************************************************************************************************
  61:../Dave/Generated/E_EEPROM_XMC1/e_eeprom_xmc1.c ****  * HEADER FILES
  62:../Dave/Generated/E_EEPROM_XMC1/e_eeprom_xmc1.c ****  **************************************************************************************************
  63:../Dave/Generated/E_EEPROM_XMC1/e_eeprom_xmc1.c **** 
  64:../Dave/Generated/E_EEPROM_XMC1/e_eeprom_xmc1.c **** #include "e_eeprom_xmc1.h"
  65:../Dave/Generated/E_EEPROM_XMC1/e_eeprom_xmc1.c **** 
  66:../Dave/Generated/E_EEPROM_XMC1/e_eeprom_xmc1.c **** /**************************************************************************************************
  67:../Dave/Generated/E_EEPROM_XMC1/e_eeprom_xmc1.c ****  * MACROS
  68:../Dave/Generated/E_EEPROM_XMC1/e_eeprom_xmc1.c ****  **************************************************************************************************
  69:../Dave/Generated/E_EEPROM_XMC1/e_eeprom_xmc1.c **** 
  70:../Dave/Generated/E_EEPROM_XMC1/e_eeprom_xmc1.c **** /* Define WEAK attribute */
  71:../Dave/Generated/E_EEPROM_XMC1/e_eeprom_xmc1.c **** #if !defined(__WEAK)
  72:../Dave/Generated/E_EEPROM_XMC1/e_eeprom_xmc1.c **** #if defined ( __CC_ARM )
  73:../Dave/Generated/E_EEPROM_XMC1/e_eeprom_xmc1.c **** #define __WEAK __attribute__ ((weak))
  74:../Dave/Generated/E_EEPROM_XMC1/e_eeprom_xmc1.c **** #elif defined ( __ICCARM__ )
  75:../Dave/Generated/E_EEPROM_XMC1/e_eeprom_xmc1.c **** #define __WEAK __weak
  76:../Dave/Generated/E_EEPROM_XMC1/e_eeprom_xmc1.c **** #elif defined ( __GNUC__ )
  77:../Dave/Generated/E_EEPROM_XMC1/e_eeprom_xmc1.c **** #define __WEAK __attribute__ ((weak))
  78:../Dave/Generated/E_EEPROM_XMC1/e_eeprom_xmc1.c **** #elif defined ( __TASKING__ )
  79:../Dave/Generated/E_EEPROM_XMC1/e_eeprom_xmc1.c **** #define __WEAK __attribute__ ((weak))
  80:../Dave/Generated/E_EEPROM_XMC1/e_eeprom_xmc1.c **** #endif
  81:../Dave/Generated/E_EEPROM_XMC1/e_eeprom_xmc1.c **** #endif
  82:../Dave/Generated/E_EEPROM_XMC1/e_eeprom_xmc1.c **** 
  83:../Dave/Generated/E_EEPROM_XMC1/e_eeprom_xmc1.c **** /* Garbage Collection procedure States */
  84:../Dave/Generated/E_EEPROM_XMC1/e_eeprom_xmc1.c **** #define E_EEPROM_XMC1_GC_UNINT             (0x0U)
  85:../Dave/Generated/E_EEPROM_XMC1/e_eeprom_xmc1.c **** #define E_EEPROM_XMC1_GC_COPY_START        (0x1U)
  86:../Dave/Generated/E_EEPROM_XMC1/e_eeprom_xmc1.c **** #define E_EEPROM_XMC1_GC_READ_NXTBLOCK     (0x2U)
  87:../Dave/Generated/E_EEPROM_XMC1/e_eeprom_xmc1.c **** #define E_EEPROM_XMC1_GC_ERASE_PREV_BANK   (0x3U)
  88:../Dave/Generated/E_EEPROM_XMC1/e_eeprom_xmc1.c **** #define E_EEPROM_XMC1_GC_REQUESTED         (0x4U)
  89:../Dave/Generated/E_EEPROM_XMC1/e_eeprom_xmc1.c **** #define E_EEPROM_XMC1_GC_COPY_WRITE        (0x5U)
  90:../Dave/Generated/E_EEPROM_XMC1/e_eeprom_xmc1.c **** #define E_EEPROM_XMC1_GC_COPY_END          (0x6U)
  91:../Dave/Generated/E_EEPROM_XMC1/e_eeprom_xmc1.c **** #define E_EEPROM_XMC1_GC_NEXT_BANK_VALID   (0x7U)
  92:../Dave/Generated/E_EEPROM_XMC1/e_eeprom_xmc1.c **** #define E_EEPROM_XMC1_GC_MARK_END_ERASE1   (0x8U)
  93:../Dave/Generated/E_EEPROM_XMC1/e_eeprom_xmc1.c **** #define E_EEPROM_XMC1_GC_FAIL              (0x9U)
  94:../Dave/Generated/E_EEPROM_XMC1/e_eeprom_xmc1.c **** #define E_EEPROM_XMC1_GC_IDLE              (0xAU)
  95:../Dave/Generated/E_EEPROM_XMC1/e_eeprom_xmc1.c **** 
  96:../Dave/Generated/E_EEPROM_XMC1/e_eeprom_xmc1.c **** /* Prepare DFLASH states states */
  97:../Dave/Generated/E_EEPROM_XMC1/e_eeprom_xmc1.c **** #define E_EEPROM_XMC1_PREPFLASH_FF         (0x1U)
  98:../Dave/Generated/E_EEPROM_XMC1/e_eeprom_xmc1.c **** #define E_EEPROM_XMC1_PREPFLASH_2F         (0x4U)
  99:../Dave/Generated/E_EEPROM_XMC1/e_eeprom_xmc1.c **** #define E_EEPROM_XMC1_PREPFLASH_2E         (0x5U)
 100:../Dave/Generated/E_EEPROM_XMC1/e_eeprom_xmc1.c **** 
 101:../Dave/Generated/E_EEPROM_XMC1/e_eeprom_xmc1.c **** 
 102:../Dave/Generated/E_EEPROM_XMC1/e_eeprom_xmc1.c **** /* Cache Update states */ 
 103:../Dave/Generated/E_EEPROM_XMC1/e_eeprom_xmc1.c **** #define E_EEPROM_XMC1_CACHE_IDLE           (0U)
 104:../Dave/Generated/E_EEPROM_XMC1/e_eeprom_xmc1.c **** #define E_EEPROM_XMC1_CACHE_EMPTY_BLOCK    (1U)
 105:../Dave/Generated/E_EEPROM_XMC1/e_eeprom_xmc1.c **** #define E_EEPROM_XMC1_CACHE_NEXT_BLK       (2U)
 106:../Dave/Generated/E_EEPROM_XMC1/e_eeprom_xmc1.c **** #define E_EEPROM_XMC1_CACHE_UPDATE_DONE    (4U)
 107:../Dave/Generated/E_EEPROM_XMC1/e_eeprom_xmc1.c **** 
 108:../Dave/Generated/E_EEPROM_XMC1/e_eeprom_xmc1.c **** /* Bank BLOCK values, used to store current status of the DFLASH */
 109:../Dave/Generated/E_EEPROM_XMC1/e_eeprom_xmc1.c **** #define E_EEPROM_XMC1_ALL_ONES             ((uint32_t)0xFFFFFFFFU)
 110:../Dave/Generated/E_EEPROM_XMC1/e_eeprom_xmc1.c **** #define E_EEPROM_XMC1_ALL_ZEROS            ((uint32_t)0x00000000U)
 111:../Dave/Generated/E_EEPROM_XMC1/e_eeprom_xmc1.c **** #define E_EEPROM_XMC1_START_BIT            (0x80U)
 112:../Dave/Generated/E_EEPROM_XMC1/e_eeprom_xmc1.c **** #define E_EEPROM_XMC1_VALID_BIT            (0x40U)
 113:../Dave/Generated/E_EEPROM_XMC1/e_eeprom_xmc1.c **** #define E_EEPROM_XMC1_CRC_BIT              (0x10U)
 114:../Dave/Generated/E_EEPROM_XMC1/e_eeprom_xmc1.c **** #define E_EEPROM_XMC1_VALID_MASK           ((uint32_t)(0x00004000U))
 115:../Dave/Generated/E_EEPROM_XMC1/e_eeprom_xmc1.c **** #define E_EEPROM_XMC1_CRC_MASK             ((uint32_t)(0x00001000U))
 116:../Dave/Generated/E_EEPROM_XMC1/e_eeprom_xmc1.c **** 
 117:../Dave/Generated/E_EEPROM_XMC1/e_eeprom_xmc1.c **** /* Internal Block status macros for implementation*/
 118:../Dave/Generated/E_EEPROM_XMC1/e_eeprom_xmc1.c **** #define E_EEPROM_XMC1_BLOCK1_DATA_SIZE     (12U)
 119:../Dave/Generated/E_EEPROM_XMC1/e_eeprom_xmc1.c **** #define E_EEPROM_XMC1_BLOCK2_DATA_SIZE     (14U)
 120:../Dave/Generated/E_EEPROM_XMC1/e_eeprom_xmc1.c **** #define E_EEPROM_XMC1_8BIT_ALL_ONE         (0xFFU)
 121:../Dave/Generated/E_EEPROM_XMC1/e_eeprom_xmc1.c **** #define E_EEPROM_XMC1_LOG_BLOCK_NOT_FOUND  ((uint32_t)(0xFFU))
 122:../Dave/Generated/E_EEPROM_XMC1/e_eeprom_xmc1.c **** #define E_EEPROM_XMC1_CRC_SHIFT            (16U)
 123:../Dave/Generated/E_EEPROM_XMC1/e_eeprom_xmc1.c **** #define E_EEPROM_XMC1_DUMMY_CRC            (0xA5A50000U)
 124:../Dave/Generated/E_EEPROM_XMC1/e_eeprom_xmc1.c **** #define E_EEPROM_XMC1_MASK_CRC             (0xFFFF0000U)
 125:../Dave/Generated/E_EEPROM_XMC1/e_eeprom_xmc1.c **** 
 126:../Dave/Generated/E_EEPROM_XMC1/e_eeprom_xmc1.c **** /* Bank BLOCK offsets */
 127:../Dave/Generated/E_EEPROM_XMC1/e_eeprom_xmc1.c **** #define E_EEPROM_XMC1_NEXT_VALID_OFFSET    (0U)
 128:../Dave/Generated/E_EEPROM_XMC1/e_eeprom_xmc1.c **** #define E_EEPROM_XMC1_BEGIN_OFFSET         (E_EEPROM_XMC1_FLASH_BLOCK_SIZE)
 129:../Dave/Generated/E_EEPROM_XMC1/e_eeprom_xmc1.c **** #define E_EEPROM_XMC1_END_OF_COPY_OFFSET   (E_EEPROM_XMC1_FLASH_BLOCK_SIZE * 2U)
 130:../Dave/Generated/E_EEPROM_XMC1/e_eeprom_xmc1.c **** #define E_EEPROM_XMC1_END_ERASE_OFFSET     (E_EEPROM_XMC1_FLASH_BLOCK_SIZE * 3U)
 131:../Dave/Generated/E_EEPROM_XMC1/e_eeprom_xmc1.c **** #define E_EEPROM_XMC1_DATA_BLOCK_OFFSET    (E_EEPROM_XMC1_FLASH_BLOCK_SIZE * 16U)
 132:../Dave/Generated/E_EEPROM_XMC1/e_eeprom_xmc1.c **** #define E_EEPROM_XMC1_BLOCK1_DATA_OFFSET   (4U)
 133:../Dave/Generated/E_EEPROM_XMC1/e_eeprom_xmc1.c **** #define E_EEPROM_XMC1_BLOCK2_DATA_OFFSET   (2U)
 134:../Dave/Generated/E_EEPROM_XMC1/e_eeprom_xmc1.c **** 
 135:../Dave/Generated/E_EEPROM_XMC1/e_eeprom_xmc1.c **** #define E_EEPROM_XMC1_BLOCK_WRITE_IDLE     (0U)
 136:../Dave/Generated/E_EEPROM_XMC1/e_eeprom_xmc1.c **** #define E_EEPROM_XMC1_FIRST_BLOCK_WRITE    (1U)
 137:../Dave/Generated/E_EEPROM_XMC1/e_eeprom_xmc1.c **** #define E_EEPROM_XMC1_NEXT_BLOCK_WRITE     (2U)
 138:../Dave/Generated/E_EEPROM_XMC1/e_eeprom_xmc1.c **** #define E_EEPROM_XMC1_LAST_BLOCK_WRITE     (3U)
 139:../Dave/Generated/E_EEPROM_XMC1/e_eeprom_xmc1.c **** 
 140:../Dave/Generated/E_EEPROM_XMC1/e_eeprom_xmc1.c **** /* States to monitor Garbage Collection completion, if it was interrupted earlier due to reset */
 141:../Dave/Generated/E_EEPROM_XMC1/e_eeprom_xmc1.c **** #define E_EEPROM_XMC1_INIT_NORMAL1         (0x2EU) /* Bank0 = VALID        BANK 1 = ERASED */
 142:../Dave/Generated/E_EEPROM_XMC1/e_eeprom_xmc1.c **** #define E_EEPROM_XMC1_INIT_DATA_COPY1      (0x2AU) /* Bank0 = VALID        BANK 1 = COPY ON-GOING *
 143:../Dave/Generated/E_EEPROM_XMC1/e_eeprom_xmc1.c **** #define E_EEPROM_XMC1_INIT_COPY_DONE2      (0x0AU) /* Bank0 = COPY COMPLETED  BANK 1 = COPY ON-GOIN
 144:../Dave/Generated/E_EEPROM_XMC1/e_eeprom_xmc1.c **** #define E_EEPROM_XMC1_INIT_NEXT_VALID2     (0x02U) /* Bank0 = COPY COMPLETED  BANK 1 = VALID */
 145:../Dave/Generated/E_EEPROM_XMC1/e_eeprom_xmc1.c **** #define E_EEPROM_XMC1_INIT_END_ERASE2      (0xF2U) /* Bank0 = ERASE ON-GOING  BANK 1 = VALID */
 146:../Dave/Generated/E_EEPROM_XMC1/e_eeprom_xmc1.c **** 
 147:../Dave/Generated/E_EEPROM_XMC1/e_eeprom_xmc1.c **** #define E_EEPROM_XMC1_INIT_NORMAL2         (0xE2U) /* Bank1 = VALID        BANK 0 = ERASED */
 148:../Dave/Generated/E_EEPROM_XMC1/e_eeprom_xmc1.c **** #define E_EEPROM_XMC1_INIT_DATA_COPY2      (0xA2U) /* Bank1 = VALID        BANK 0 = COPY ON-GOING *
 149:../Dave/Generated/E_EEPROM_XMC1/e_eeprom_xmc1.c **** #define E_EEPROM_XMC1_INIT_COPY_DONE1      (0xA0U) /* Bank1 = COPY COMPLETED  BANK 0 = COPY ON-GOIN
 150:../Dave/Generated/E_EEPROM_XMC1/e_eeprom_xmc1.c **** #define E_EEPROM_XMC1_INIT_NEXT_VALID1     (0x20U) /* Bank1 = COPY COMPLETED  BANK 0 = VALID */
 151:../Dave/Generated/E_EEPROM_XMC1/e_eeprom_xmc1.c **** #define E_EEPROM_XMC1_INIT_END_ERASE1      (0x2FU) /* Bank1 = ERASE ON-GOING  BANK 0 = VALID */
 152:../Dave/Generated/E_EEPROM_XMC1/e_eeprom_xmc1.c **** 
 153:../Dave/Generated/E_EEPROM_XMC1/e_eeprom_xmc1.c **** #define E_EEPROM_XMC1_INIT_ALL_ERASED      (0xFFU)
 154:../Dave/Generated/E_EEPROM_XMC1/e_eeprom_xmc1.c **** 
 155:../Dave/Generated/E_EEPROM_XMC1/e_eeprom_xmc1.c **** #define E_EEPROM_XMC1_INIT_STATE_2D        (0x2DU)
 156:../Dave/Generated/E_EEPROM_XMC1/e_eeprom_xmc1.c **** #define E_EEPROM_XMC1_INIT_STATE_D2        (0xD2U)
 157:../Dave/Generated/E_EEPROM_XMC1/e_eeprom_xmc1.c **** #define E_EEPROM_XMC1_INIT_STATE_AD        (0xADU)
 158:../Dave/Generated/E_EEPROM_XMC1/e_eeprom_xmc1.c **** #define E_EEPROM_XMC1_INIT_STATE_DA        (0xDAU)
 159:../Dave/Generated/E_EEPROM_XMC1/e_eeprom_xmc1.c **** #define E_EEPROM_XMC1_INIT_STATE_0D        (0x0DU)
 160:../Dave/Generated/E_EEPROM_XMC1/e_eeprom_xmc1.c **** #define E_EEPROM_XMC1_INIT_STATE_D0        (0xD0U)
 161:../Dave/Generated/E_EEPROM_XMC1/e_eeprom_xmc1.c **** #define E_EEPROM_XMC1_INIT_STATE_AF        (0xAFU)
 162:../Dave/Generated/E_EEPROM_XMC1/e_eeprom_xmc1.c **** #define E_EEPROM_XMC1_INIT_STATE_FA        (0xFAU)
 163:../Dave/Generated/E_EEPROM_XMC1/e_eeprom_xmc1.c **** #define E_EEPROM_XMC1_INIT_STATE_0F        (0x0FU)
 164:../Dave/Generated/E_EEPROM_XMC1/e_eeprom_xmc1.c **** #define E_EEPROM_XMC1_INIT_STATE_F0        (0xF0U)
 165:../Dave/Generated/E_EEPROM_XMC1/e_eeprom_xmc1.c **** 
 166:../Dave/Generated/E_EEPROM_XMC1/e_eeprom_xmc1.c **** #define E_EEPROM_XMC1_VALID_STATE          ((uint32_t)(0x20U))
 167:../Dave/Generated/E_EEPROM_XMC1/e_eeprom_xmc1.c **** #define E_EEPROM_XMC1_COPY_COMPLETED       ((uint32_t)(0x00U))
 168:../Dave/Generated/E_EEPROM_XMC1/e_eeprom_xmc1.c **** 
 169:../Dave/Generated/E_EEPROM_XMC1/e_eeprom_xmc1.c **** #define E_EEPROM_XMC1_MARKER_MAX_SHIFT     ((uint32_t)(4U))
 170:../Dave/Generated/E_EEPROM_XMC1/e_eeprom_xmc1.c **** #define E_EEPROM_XMC1_MAX_WORDS_IN_BLOCK   ((uint32_t)(4U))
 171:../Dave/Generated/E_EEPROM_XMC1/e_eeprom_xmc1.c **** #define E_EEPROM_XMC1_PAGE1_EXTRA_WORDS    ((uint8_t)(48U))
 172:../Dave/Generated/E_EEPROM_XMC1/e_eeprom_xmc1.c **** #define E_EEPROM_XMC1_MARKER_POSITION      ((uint32_t)0x80U)
 173:../Dave/Generated/E_EEPROM_XMC1/e_eeprom_xmc1.c **** 
 174:../Dave/Generated/E_EEPROM_XMC1/e_eeprom_xmc1.c **** /** Marker states on Init GC operation */
 175:../Dave/Generated/E_EEPROM_XMC1/e_eeprom_xmc1.c **** #define E_EEPROM_XMC1_MB_0                 ((uint32_t)0x00U)
 176:../Dave/Generated/E_EEPROM_XMC1/e_eeprom_xmc1.c **** #define E_EEPROM_XMC1_MB_1                 ((uint32_t)0x01U)
 177:../Dave/Generated/E_EEPROM_XMC1/e_eeprom_xmc1.c **** #define E_EEPROM_XMC1_MB_WRITTEN           ((uint32_t)0x00U)
 178:../Dave/Generated/E_EEPROM_XMC1/e_eeprom_xmc1.c **** #define E_EEPROM_XMC1_MB_ERASED            ((uint32_t)0x0FU)
 179:../Dave/Generated/E_EEPROM_XMC1/e_eeprom_xmc1.c **** #define E_EEPROM_XMC1_MB_DIRTY             ((uint32_t)0xDDU)
 180:../Dave/Generated/E_EEPROM_XMC1/e_eeprom_xmc1.c **** 
 181:../Dave/Generated/E_EEPROM_XMC1/e_eeprom_xmc1.c **** #define E_EEPROM_XMC1_BOTH_BANKS_VALID     ((uint32_t)0U) /* Both banks have clean markers */
 182:../Dave/Generated/E_EEPROM_XMC1/e_eeprom_xmc1.c **** #define E_EEPROM_XMC1_BANK0_INVALID        ((uint32_t)1U) /* Bank 0 is having dirty marker */
 183:../Dave/Generated/E_EEPROM_XMC1/e_eeprom_xmc1.c **** #define E_EEPROM_XMC1_BANK1_INVALID        ((uint32_t)2U) /* Bank 1 is having dirty marker */
 184:../Dave/Generated/E_EEPROM_XMC1/e_eeprom_xmc1.c **** #define E_EEPROM_XMC1_BOTH_BANKS_INVALID   ((uint32_t)3U) /* Both banks are having dirty markers */
 185:../Dave/Generated/E_EEPROM_XMC1/e_eeprom_xmc1.c **** 
 186:../Dave/Generated/E_EEPROM_XMC1/e_eeprom_xmc1.c **** #define E_EEPROM_XMC1_TWO_BYTES            ((uint32_t)0x02U)
 187:../Dave/Generated/E_EEPROM_XMC1/e_eeprom_xmc1.c **** #define E_EEPROM_XMC1_TWO_BIT_POS          ((uint32_t)0x02U)
 188:../Dave/Generated/E_EEPROM_XMC1/e_eeprom_xmc1.c **** #define E_EEPROM_XMC1_FOUR_BYTES           ((uint32_t)0x04U)
 189:../Dave/Generated/E_EEPROM_XMC1/e_eeprom_xmc1.c **** #define E_EEPROM_XMC1_EIGHT_BYTES          ((uint32_t)0x08U)
 190:../Dave/Generated/E_EEPROM_XMC1/e_eeprom_xmc1.c **** #define E_EEPROM_XMC1_EIGHT_BIT_POS        ((uint32_t)0x08U)
 191:../Dave/Generated/E_EEPROM_XMC1/e_eeprom_xmc1.c **** 
 192:../Dave/Generated/E_EEPROM_XMC1/e_eeprom_xmc1.c **** #define E_EEPROM_XMC1_EXECUTE_CACHE_UPDATE (0x0U)
 193:../Dave/Generated/E_EEPROM_XMC1/e_eeprom_xmc1.c **** #define E_EEPROM_XMC1_EXECUTE_PREP_FLASH   (0x1U)
 194:../Dave/Generated/E_EEPROM_XMC1/e_eeprom_xmc1.c **** #define E_EEPROM_XMC1_EXECUTE_GC_STATE     (0x2U)
 195:../Dave/Generated/E_EEPROM_XMC1/e_eeprom_xmc1.c **** 
 196:../Dave/Generated/E_EEPROM_XMC1/e_eeprom_xmc1.c **** /**************************************************************************************************
 197:../Dave/Generated/E_EEPROM_XMC1/e_eeprom_xmc1.c ****  * LOCAL DATA
 198:../Dave/Generated/E_EEPROM_XMC1/e_eeprom_xmc1.c ****  **************************************************************************************************
 199:../Dave/Generated/E_EEPROM_XMC1/e_eeprom_xmc1.c **** 
 200:../Dave/Generated/E_EEPROM_XMC1/e_eeprom_xmc1.c **** /**************************************************************************************************
 201:../Dave/Generated/E_EEPROM_XMC1/e_eeprom_xmc1.c ****  * LOCAL ROUTINES
 202:../Dave/Generated/E_EEPROM_XMC1/e_eeprom_xmc1.c ****  **************************************************************************************************
 203:../Dave/Generated/E_EEPROM_XMC1/e_eeprom_xmc1.c **** 
 204:../Dave/Generated/E_EEPROM_XMC1/e_eeprom_xmc1.c **** static void E_EEPROM_XMC1_lWriteSingleBlock(uint32_t const address, const uint32_t *const data);
 205:../Dave/Generated/E_EEPROM_XMC1/e_eeprom_xmc1.c **** static void E_EEPROM_XMC1_lReadSingleBlock(uint32_t const address, uint32_t *const data);
 206:../Dave/Generated/E_EEPROM_XMC1/e_eeprom_xmc1.c **** static void E_EEPROM_XMC1_lWriteSinglePage(uint32_t const address, const uint32_t *const data);
 207:../Dave/Generated/E_EEPROM_XMC1/e_eeprom_xmc1.c **** static void E_EEPROM_XMC1_lEraseSinglePage(uint32_t const address);
 208:../Dave/Generated/E_EEPROM_XMC1/e_eeprom_xmc1.c **** static uint32_t E_EEPROM_XMC1_lReadSingleWord(uint32_t const address);
 209:../Dave/Generated/E_EEPROM_XMC1/e_eeprom_xmc1.c **** static uint32_t E_EEPROM_XMC1_lGetFlashStatus(void);
 210:../Dave/Generated/E_EEPROM_XMC1/e_eeprom_xmc1.c **** 
 211:../Dave/Generated/E_EEPROM_XMC1/e_eeprom_xmc1.c **** static void E_EEPROM_XMC1_lInitDirtyStateMachine(void);
 212:../Dave/Generated/E_EEPROM_XMC1/e_eeprom_xmc1.c **** static void E_EEPROM_XMC1_lInitNormalStateMachine(void);
 213:../Dave/Generated/E_EEPROM_XMC1/e_eeprom_xmc1.c **** static void E_EEPROM_XMC1_lInitllegalStateMachine(void);
 214:../Dave/Generated/E_EEPROM_XMC1/e_eeprom_xmc1.c **** static uint32_t E_EEPROM_XMC1_lInitBank0NormalStateMachine(void);
 215:../Dave/Generated/E_EEPROM_XMC1/e_eeprom_xmc1.c **** static uint32_t E_EEPROM_XMC1_lInitBank1NormalStateMachine(void);
 216:../Dave/Generated/E_EEPROM_XMC1/e_eeprom_xmc1.c **** static uint32_t E_EEPROM_XMC1_lInitOtherNormalStateMachine(void);
 217:../Dave/Generated/E_EEPROM_XMC1/e_eeprom_xmc1.c **** static void E_EEPROM_XMC1_lInitGc(const uint32_t  marker_dirty_state);
 218:../Dave/Generated/E_EEPROM_XMC1/e_eeprom_xmc1.c **** static void E_EEPROM_XMC1_lInitGcNormalStates(uint32_t current_state, uint32_t next_process);
 219:../Dave/Generated/E_EEPROM_XMC1/e_eeprom_xmc1.c **** static void E_EEPROM_XMC1_lInitGcDataCopyState(uint32_t current_state, uint32_t marker_offset);
 220:../Dave/Generated/E_EEPROM_XMC1/e_eeprom_xmc1.c **** 
 221:../Dave/Generated/E_EEPROM_XMC1/e_eeprom_xmc1.c **** static void E_EEPROM_XMC1_lPrepareDFlash(void);
 222:../Dave/Generated/E_EEPROM_XMC1/e_eeprom_xmc1.c **** static void E_EEPROM_XMC1_lGarbageCollection(void);
 223:../Dave/Generated/E_EEPROM_XMC1/e_eeprom_xmc1.c **** static void E_EEPROM_XMC1_lSetMarkerBlockBuffer(void);
 224:../Dave/Generated/E_EEPROM_XMC1/e_eeprom_xmc1.c **** static void E_EEPROM_XMC1_lSetMarkerPageBuffer(uint32_t state);
 225:../Dave/Generated/E_EEPROM_XMC1/e_eeprom_xmc1.c **** static uint32_t E_EEPROM_XMC1_lReadVerifyMarker(uint32_t bank, uint32_t block);
 226:../Dave/Generated/E_EEPROM_XMC1/e_eeprom_xmc1.c **** static void E_EEPROM_XMC1_lErasedDirtyStateRecovery( uint32_t marker_offset);
 227:../Dave/Generated/E_EEPROM_XMC1/e_eeprom_xmc1.c **** static uint32_t E_EEPROM_XMC1_lReadMarkerBlocks(void);
 228:../Dave/Generated/E_EEPROM_XMC1/e_eeprom_xmc1.c **** static void E_EEPROM_XMC1_lCopyProcessDirtyStateRecovery(uint32_t current_state ,
 229:../Dave/Generated/E_EEPROM_XMC1/e_eeprom_xmc1.c ****                                                          uint32_t NextState,
 230:../Dave/Generated/E_EEPROM_XMC1/e_eeprom_xmc1.c ****                                                          uint32_t page_addr_select);
 231:../Dave/Generated/E_EEPROM_XMC1/e_eeprom_xmc1.c **** 
 232:../Dave/Generated/E_EEPROM_XMC1/e_eeprom_xmc1.c **** static void E_EEPROM_XMC1_lUpdateCache(void);
 233:../Dave/Generated/E_EEPROM_XMC1/e_eeprom_xmc1.c **** static void E_EEPROM_XMC1_lEvalBlockStatus(void);
 234:../Dave/Generated/E_EEPROM_XMC1/e_eeprom_xmc1.c **** static void E_EEPROM_XMC1_lUpdateCurrBankInfo(void);
 235:../Dave/Generated/E_EEPROM_XMC1/e_eeprom_xmc1.c **** static uint32_t E_EEPROM_XMC1_lUpdateCacheBlockRead(void);
 236:../Dave/Generated/E_EEPROM_XMC1/e_eeprom_xmc1.c **** static uint32_t E_EEPROM_XMC1_lCacheEmptyBlkEval(uint32_t end_addr);
 237:../Dave/Generated/E_EEPROM_XMC1/e_eeprom_xmc1.c **** 
 238:../Dave/Generated/E_EEPROM_XMC1/e_eeprom_xmc1.c **** static uint32_t E_EEPROM_XMC1_lGetFreeDFLASHBlocks(void);
 239:../Dave/Generated/E_EEPROM_XMC1/e_eeprom_xmc1.c **** static uint32_t E_EEPROM_XMC1_lGetUsrBlockIndex(uint8_t block_number);
 240:../Dave/Generated/E_EEPROM_XMC1/e_eeprom_xmc1.c **** static uint32_t E_EEPROM_XMC1_lGetDFLASHPhysicalBlocks(uint32_t size);
 241:../Dave/Generated/E_EEPROM_XMC1/e_eeprom_xmc1.c **** static uint32_t E_EEPROM_XMC1_lGCWrite(uint32_t block_address);
 242:../Dave/Generated/E_EEPROM_XMC1/e_eeprom_xmc1.c **** static uint32_t E_EEPROM_XMC1_lEraseBank(uint32_t page_address);
 243:../Dave/Generated/E_EEPROM_XMC1/e_eeprom_xmc1.c **** 
 244:../Dave/Generated/E_EEPROM_XMC1/e_eeprom_xmc1.c **** static void E_EEPROM_XMC1_lHandleGcStartCopy(void);
 245:../Dave/Generated/E_EEPROM_XMC1/e_eeprom_xmc1.c **** static void E_EEPROM_XMC1_lHandleGcRequested(void);
 246:../Dave/Generated/E_EEPROM_XMC1/e_eeprom_xmc1.c **** static void E_EEPROM_XMC1_lHandleGcEndOfCopy(void);
 247:../Dave/Generated/E_EEPROM_XMC1/e_eeprom_xmc1.c **** static void E_EEPROM_XMC1_lHandleGcCopyWrite(void);
 248:../Dave/Generated/E_EEPROM_XMC1/e_eeprom_xmc1.c **** static void E_EEPROM_XMC1_lHandleGcOtherStates( uint32_t current_state, uint32_t next_state);
 249:../Dave/Generated/E_EEPROM_XMC1/e_eeprom_xmc1.c **** static uint32_t E_EEPROM_XMC1_lWriteDataBlock(void);
 250:../Dave/Generated/E_EEPROM_XMC1/e_eeprom_xmc1.c **** static uint32_t E_EEPROM_XMC1_lHandleInvalidReq(uint8_t block_number, uint32_t user_block_index);
 251:../Dave/Generated/E_EEPROM_XMC1/e_eeprom_xmc1.c **** static uint32_t E_EEPROM_XMC1_lHandleWriteReq(uint8_t block_number, uint8_t* data_buffer_ptr);
 252:../Dave/Generated/E_EEPROM_XMC1/e_eeprom_xmc1.c **** static uint32_t E_EEPROM_XMC1_lLocalWrite(uint8_t block_number,
 253:../Dave/Generated/E_EEPROM_XMC1/e_eeprom_xmc1.c ****                                           uint8_t* data_buffer_ptr,
 254:../Dave/Generated/E_EEPROM_XMC1/e_eeprom_xmc1.c ****                                           uint32_t invalidate);
 255:../Dave/Generated/E_EEPROM_XMC1/e_eeprom_xmc1.c **** static void E_EEPROM_XMC1_lPopulateNextBlock(uint8_t block_number,
 256:../Dave/Generated/E_EEPROM_XMC1/e_eeprom_xmc1.c ****                                              uint8_t* const user_data_buffer_ptr ,
 257:../Dave/Generated/E_EEPROM_XMC1/e_eeprom_xmc1.c ****                                              uint32_t block_size);
 258:../Dave/Generated/E_EEPROM_XMC1/e_eeprom_xmc1.c **** static void E_EEPROM_XMC1_lPopulateFirstBlock(uint8_t block_number, uint8_t* user_data_buffer_ptr, 
 259:../Dave/Generated/E_EEPROM_XMC1/e_eeprom_xmc1.c **** #ifdef E_EEPROM_XMC1_CRC_SW_ENABLED
 260:../Dave/Generated/E_EEPROM_XMC1/e_eeprom_xmc1.c **** static E_EEPROM_XMC1_OPERATION_STATUS_t E_EEPROM_XMC1_lReadBlockCrcStatus(uint8_t block_number,
 261:../Dave/Generated/E_EEPROM_XMC1/e_eeprom_xmc1.c ****                                                                           uint8_t* data_buffer_ptr,
 262:../Dave/Generated/E_EEPROM_XMC1/e_eeprom_xmc1.c ****                                                                           uint32_t block_size);
 263:../Dave/Generated/E_EEPROM_XMC1/e_eeprom_xmc1.c **** #endif
 264:../Dave/Generated/E_EEPROM_XMC1/e_eeprom_xmc1.c **** static uint32_t E_EEPROM_XMC1_lReadBlockContents(uint8_t *data_buffer_ptr, uint32_t length, uint32_
 265:../Dave/Generated/E_EEPROM_XMC1/e_eeprom_xmc1.c **** static uint32_t E_EEPROM_XMC1_lGetPrevData(uint8_t block_number);
 266:../Dave/Generated/E_EEPROM_XMC1/e_eeprom_xmc1.c **** static uint32_t E_EEPROM_XMC1_lSearchBlockCopy(uint8_t required_block_number,
 267:../Dave/Generated/E_EEPROM_XMC1/e_eeprom_xmc1.c ****                                                uint32_t read_addr ,
 268:../Dave/Generated/E_EEPROM_XMC1/e_eeprom_xmc1.c ****                                                uint32_t data_sec_start_addr);
 269:../Dave/Generated/E_EEPROM_XMC1/e_eeprom_xmc1.c **** /*
 270:../Dave/Generated/E_EEPROM_XMC1/e_eeprom_xmc1.c ****  *  These are global functions used only for internal testing purpose.
 271:../Dave/Generated/E_EEPROM_XMC1/e_eeprom_xmc1.c ****  *  Application code shall not use these variables by enabling E_EEPROM_XMC1_TEST_HOOK_ENABLE macro
 272:../Dave/Generated/E_EEPROM_XMC1/e_eeprom_xmc1.c ****  */
 273:../Dave/Generated/E_EEPROM_XMC1/e_eeprom_xmc1.c **** #ifdef E_EEPROM_XMC1_TEST_HOOK_ENABLE
 274:../Dave/Generated/E_EEPROM_XMC1/e_eeprom_xmc1.c **** __WEAK void E_EEPROM_XMC1_TEST_HOOK_WriteSingleBlock(uint32_t const address, const uint32_t *const 
 275:../Dave/Generated/E_EEPROM_XMC1/e_eeprom_xmc1.c **** {
 276:../Dave/Generated/E_EEPROM_XMC1/e_eeprom_xmc1.c **** }
 277:../Dave/Generated/E_EEPROM_XMC1/e_eeprom_xmc1.c **** __WEAK void E_EEPROM_XMC1_TEST_HOOK_ReadSingleBlock(uint32_t const address, uint32_t *const data)
 278:../Dave/Generated/E_EEPROM_XMC1/e_eeprom_xmc1.c **** {
 279:../Dave/Generated/E_EEPROM_XMC1/e_eeprom_xmc1.c **** }
 280:../Dave/Generated/E_EEPROM_XMC1/e_eeprom_xmc1.c **** __WEAK void E_EEPROM_XMC1_TEST_HOOK_WriteSinglePage(uint32_t const address, const uint32_t *const d
 281:../Dave/Generated/E_EEPROM_XMC1/e_eeprom_xmc1.c **** {
 282:../Dave/Generated/E_EEPROM_XMC1/e_eeprom_xmc1.c **** }
 283:../Dave/Generated/E_EEPROM_XMC1/e_eeprom_xmc1.c **** __WEAK void E_EEPROM_XMC1_TEST_HOOK_EraseSinglePage(uint32_t const address)
 284:../Dave/Generated/E_EEPROM_XMC1/e_eeprom_xmc1.c **** {
 285:../Dave/Generated/E_EEPROM_XMC1/e_eeprom_xmc1.c **** }
 286:../Dave/Generated/E_EEPROM_XMC1/e_eeprom_xmc1.c **** __WEAK uint32_t E_EEPROM_XMC1_TEST_HOOK_ReadSingleWord(uint32_t const address)
 287:../Dave/Generated/E_EEPROM_XMC1/e_eeprom_xmc1.c **** {
 288:../Dave/Generated/E_EEPROM_XMC1/e_eeprom_xmc1.c **** return (0U);
 289:../Dave/Generated/E_EEPROM_XMC1/e_eeprom_xmc1.c **** }
 290:../Dave/Generated/E_EEPROM_XMC1/e_eeprom_xmc1.c **** __WEAK uint32_t E_EEPROM_XMC1_TEST_HOOK_GetFlashStatus(void)
 291:../Dave/Generated/E_EEPROM_XMC1/e_eeprom_xmc1.c **** {
 292:../Dave/Generated/E_EEPROM_XMC1/e_eeprom_xmc1.c **** return (0U);
 293:../Dave/Generated/E_EEPROM_XMC1/e_eeprom_xmc1.c **** }
 294:../Dave/Generated/E_EEPROM_XMC1/e_eeprom_xmc1.c **** #endif
 295:../Dave/Generated/E_EEPROM_XMC1/e_eeprom_xmc1.c **** 
 296:../Dave/Generated/E_EEPROM_XMC1/e_eeprom_xmc1.c **** /**************************************************************************************************
 297:../Dave/Generated/E_EEPROM_XMC1/e_eeprom_xmc1.c **** * API IMPLEMENTATION
 298:../Dave/Generated/E_EEPROM_XMC1/e_eeprom_xmc1.c **** ***************************************************************************************************
 299:../Dave/Generated/E_EEPROM_XMC1/e_eeprom_xmc1.c **** 
 300:../Dave/Generated/E_EEPROM_XMC1/e_eeprom_xmc1.c **** /*
 301:../Dave/Generated/E_EEPROM_XMC1/e_eeprom_xmc1.c ****  * Parameters(IN)  : void
 302:../Dave/Generated/E_EEPROM_XMC1/e_eeprom_xmc1.c ****  *
 303:../Dave/Generated/E_EEPROM_XMC1/e_eeprom_xmc1.c ****  * Return value   : DAVE_APP_VERSION_t
 304:../Dave/Generated/E_EEPROM_XMC1/e_eeprom_xmc1.c ****  *
 305:../Dave/Generated/E_EEPROM_XMC1/e_eeprom_xmc1.c ****  * Description    : Reads the APP implementation version.
 306:../Dave/Generated/E_EEPROM_XMC1/e_eeprom_xmc1.c ****  */
 307:../Dave/Generated/E_EEPROM_XMC1/e_eeprom_xmc1.c **** DAVE_APP_VERSION_t E_EEPROM_XMC1_GetAppVersion(void)
 308:../Dave/Generated/E_EEPROM_XMC1/e_eeprom_xmc1.c **** {
 117              	 .loc 2 308 0
 118              	 .cfi_startproc
 119 0000 80B5     	 push {r7,lr}
 120              	.LCFI6:
 121              	 .cfi_def_cfa_offset 8
 122              	 .cfi_offset 7,-8
 123              	 .cfi_offset 14,-4
 124 0002 82B0     	 sub sp,sp,#8
 125              	.LCFI7:
 126              	 .cfi_def_cfa_offset 16
 127 0004 00AF     	 add r7,sp,#0
 128              	.LCFI8:
 129              	 .cfi_def_cfa_register 7
 309:../Dave/Generated/E_EEPROM_XMC1/e_eeprom_xmc1.c ****   DAVE_APP_VERSION_t version;
 310:../Dave/Generated/E_EEPROM_XMC1/e_eeprom_xmc1.c **** 
 311:../Dave/Generated/E_EEPROM_XMC1/e_eeprom_xmc1.c ****   version.major = E_EEPROM_XMC1_MAJOR_VERSION;
 130              	 .loc 2 311 0
 131 0006 3B1C     	 mov r3,r7
 132 0008 0422     	 mov r2,#4
 133 000a 1A70     	 strb r2,[r3]
 312:../Dave/Generated/E_EEPROM_XMC1/e_eeprom_xmc1.c ****   version.minor = E_EEPROM_XMC1_MINOR_VERSION;
 134              	 .loc 2 312 0
 135 000c 3B1C     	 mov r3,r7
 136 000e 0122     	 mov r2,#1
 137 0010 5A70     	 strb r2,[r3,#1]
 313:../Dave/Generated/E_EEPROM_XMC1/e_eeprom_xmc1.c ****   version.patch = E_EEPROM_XMC1_PATCH_VERSION;
 138              	 .loc 2 313 0
 139 0012 3B1C     	 mov r3,r7
 140 0014 0E22     	 mov r2,#14
 141 0016 9A70     	 strb r2,[r3,#2]
 314:../Dave/Generated/E_EEPROM_XMC1/e_eeprom_xmc1.c **** 
 315:../Dave/Generated/E_EEPROM_XMC1/e_eeprom_xmc1.c ****   return version;
 142              	 .loc 2 315 0
 143 0018 3B1D     	 add r3,r7,#4
 144 001a 3A1C     	 mov r2,r7
 145 001c 1188     	 ldrh r1,[r2]
 146 001e 1980     	 strh r1,[r3]
 147 0020 9278     	 ldrb r2,[r2,#2]
 148 0022 9A70     	 strb r2,[r3,#2]
 149 0024 3A1D     	 add r2,r7,#4
 150 0026 0023     	 mov r3,#0
 151 0028 1178     	 ldrb r1,[r2]
 152 002a FF20     	 mov r0,#255
 153 002c 0140     	 and r1,r0
 154 002e FF20     	 mov r0,#255
 155 0030 8343     	 bic r3,r0
 156 0032 0B43     	 orr r3,r1
 157 0034 5178     	 ldrb r1,[r2,#1]
 158 0036 FF20     	 mov r0,#255
 159 0038 0140     	 and r1,r0
 160 003a 0902     	 lsl r1,r1,#8
 161 003c 0648     	 ldr r0,.L8
 162 003e 0340     	 and r3,r0
 163 0040 0B43     	 orr r3,r1
 164 0042 9278     	 ldrb r2,[r2,#2]
 165 0044 FF21     	 mov r1,#255
 166 0046 0A40     	 and r2,r1
 167 0048 1204     	 lsl r2,r2,#16
 168 004a 0449     	 ldr r1,.L8+4
 169 004c 0B40     	 and r3,r1
 170 004e 1343     	 orr r3,r2
 316:../Dave/Generated/E_EEPROM_XMC1/e_eeprom_xmc1.c **** }
 171              	 .loc 2 316 0
 172 0050 181C     	 mov r0,r3
 173 0052 BD46     	 mov sp,r7
 174 0054 02B0     	 add sp,sp,#8
 175              	 
 176 0056 80BD     	 pop {r7,pc}
 177              	.L9:
 178              	 .align 2
 179              	.L8:
 180 0058 FF00FFFF 	 .word -65281
 181 005c FFFF00FF 	 .word -16711681
 182              	 .cfi_endproc
 183              	.LFE49:
 185              	 .section .text.E_EEPROM_XMC1_Init,"ax",%progbits
 186              	 .align 2
 187              	 .global E_EEPROM_XMC1_Init
 188              	 .code 16
 189              	 .thumb_func
 191              	E_EEPROM_XMC1_Init:
 192              	.LFB50:
 317:../Dave/Generated/E_EEPROM_XMC1/e_eeprom_xmc1.c **** 
 318:../Dave/Generated/E_EEPROM_XMC1/e_eeprom_xmc1.c **** /*
 319:../Dave/Generated/E_EEPROM_XMC1/e_eeprom_xmc1.c ****  * Parameters(IN)  : handle_ptr
 320:../Dave/Generated/E_EEPROM_XMC1/e_eeprom_xmc1.c ****  * 
 321:../Dave/Generated/E_EEPROM_XMC1/e_eeprom_xmc1.c ****  * Return value    : E_EEPROM_XMC1_STATUS_t
 322:../Dave/Generated/E_EEPROM_XMC1/e_eeprom_xmc1.c ****  * 
 323:../Dave/Generated/E_EEPROM_XMC1/e_eeprom_xmc1.c ****  * Description     : Driver Module Initialization function. This service shall initialize the Flash
 324:../Dave/Generated/E_EEPROM_XMC1/e_eeprom_xmc1.c ****  *                   module using the values provided by configuration set.
 325:../Dave/Generated/E_EEPROM_XMC1/e_eeprom_xmc1.c ****  */
 326:../Dave/Generated/E_EEPROM_XMC1/e_eeprom_xmc1.c **** E_EEPROM_XMC1_STATUS_t E_EEPROM_XMC1_Init(E_EEPROM_XMC1_t *const handle_ptr)
 327:../Dave/Generated/E_EEPROM_XMC1/e_eeprom_xmc1.c **** {
 193              	 .loc 2 327 0
 194              	 .cfi_startproc
 195 0000 80B5     	 push {r7,lr}
 196              	.LCFI9:
 197              	 .cfi_def_cfa_offset 8
 198              	 .cfi_offset 7,-8
 199              	 .cfi_offset 14,-4
 200 0002 86B0     	 sub sp,sp,#24
 201              	.LCFI10:
 202              	 .cfi_def_cfa_offset 32
 203 0004 00AF     	 add r7,sp,#0
 204              	.LCFI11:
 205              	 .cfi_def_cfa_register 7
 206 0006 7860     	 str r0,[r7,#4]
 328:../Dave/Generated/E_EEPROM_XMC1/e_eeprom_xmc1.c ****   uint32_t indx;
 329:../Dave/Generated/E_EEPROM_XMC1/e_eeprom_xmc1.c ****   uint32_t marker_state;
 330:../Dave/Generated/E_EEPROM_XMC1/e_eeprom_xmc1.c **** 
 331:../Dave/Generated/E_EEPROM_XMC1/e_eeprom_xmc1.c ****   XMC_ASSERT("E_EEPROM_XMC1_Write:Invalid Buffer Pointer", (handle_ptr != NULL));
 332:../Dave/Generated/E_EEPROM_XMC1/e_eeprom_xmc1.c **** 
 333:../Dave/Generated/E_EEPROM_XMC1/e_eeprom_xmc1.c ****   /* Check if the E_EEPROM_XMC1_Init API is called once*/
 334:../Dave/Generated/E_EEPROM_XMC1/e_eeprom_xmc1.c ****   if (handle_ptr->state != E_EEPROM_XMC1_STATUS_SUCCESS)
 207              	 .loc 2 334 0
 208 0008 7B68     	 ldr r3,[r7,#4]
 209 000a 1B7A     	 ldrb r3,[r3,#8]
 210 000c 002B     	 cmp r3,#0
 211 000e 00D1     	 bne .LCB174
 212 0010 84E0     	 b .L11
 213              	.LCB174:
 335:../Dave/Generated/E_EEPROM_XMC1/e_eeprom_xmc1.c ****   {
 336:../Dave/Generated/E_EEPROM_XMC1/e_eeprom_xmc1.c ****     #ifdef E_EEPROM_XMC1_CRC_SW_ENABLED
 337:../Dave/Generated/E_EEPROM_XMC1/e_eeprom_xmc1.c ****     handle_ptr->state = (E_EEPROM_XMC1_STATUS_t)CRC_SW_Init(handle_ptr->crc_handle_ptr);
 338:../Dave/Generated/E_EEPROM_XMC1/e_eeprom_xmc1.c ****     if (handle_ptr->state != E_EEPROM_XMC1_STATUS_SUCCESS)
 339:../Dave/Generated/E_EEPROM_XMC1/e_eeprom_xmc1.c ****     {
 340:../Dave/Generated/E_EEPROM_XMC1/e_eeprom_xmc1.c ****       handle_ptr->state = E_EEPROM_XMC1_STATUS_FAILURE;
 341:../Dave/Generated/E_EEPROM_XMC1/e_eeprom_xmc1.c ****     }
 342:../Dave/Generated/E_EEPROM_XMC1/e_eeprom_xmc1.c ****     else
 343:../Dave/Generated/E_EEPROM_XMC1/e_eeprom_xmc1.c ****     #endif
 344:../Dave/Generated/E_EEPROM_XMC1/e_eeprom_xmc1.c ****     {
 345:../Dave/Generated/E_EEPROM_XMC1/e_eeprom_xmc1.c ****       /* Initialize the cache variables for the User defined Block configuration list */
 346:../Dave/Generated/E_EEPROM_XMC1/e_eeprom_xmc1.c ****       indx = 0U;
 214              	 .loc 2 346 0
 215 0012 0023     	 mov r3,#0
 216 0014 7B61     	 str r3,[r7,#20]
 217              	.L12:
 218              	.LBB2:
 347:../Dave/Generated/E_EEPROM_XMC1/e_eeprom_xmc1.c ****       do
 348:../Dave/Generated/E_EEPROM_XMC1/e_eeprom_xmc1.c ****       {
 349:../Dave/Generated/E_EEPROM_XMC1/e_eeprom_xmc1.c ****         E_EEPROM_XMC1_CACHE_t * block_ptr;
 350:../Dave/Generated/E_EEPROM_XMC1/e_eeprom_xmc1.c ****         block_ptr = &(handle_ptr->data_ptr->block_info[indx]);
 219              	 .loc 2 350 0 discriminator 1
 220 0016 7B68     	 ldr r3,[r7,#4]
 221 0018 5A68     	 ldr r2,[r3,#4]
 222 001a 7B69     	 ldr r3,[r7,#20]
 223 001c DB00     	 lsl r3,r3,#3
 224 001e D318     	 add r3,r2,r3
 225 0020 3B61     	 str r3,[r7,#16]
 351:../Dave/Generated/E_EEPROM_XMC1/e_eeprom_xmc1.c **** 
 352:../Dave/Generated/E_EEPROM_XMC1/e_eeprom_xmc1.c ****         block_ptr->address = 0U;
 226              	 .loc 2 352 0 discriminator 1
 227 0022 3B69     	 ldr r3,[r7,#16]
 228 0024 0022     	 mov r2,#0
 229 0026 1A60     	 str r2,[r3]
 353:../Dave/Generated/E_EEPROM_XMC1/e_eeprom_xmc1.c ****         block_ptr->status.consistent = 0U;
 230              	 .loc 2 353 0 discriminator 1
 231 0028 3B69     	 ldr r3,[r7,#16]
 232 002a 1A79     	 ldrb r2,[r3,#4]
 233 002c 0221     	 mov r1,#2
 234 002e 8A43     	 bic r2,r1
 235 0030 1A71     	 strb r2,[r3,#4]
 354:../Dave/Generated/E_EEPROM_XMC1/e_eeprom_xmc1.c ****         block_ptr->status.valid = 1U;
 236              	 .loc 2 354 0 discriminator 1
 237 0032 3B69     	 ldr r3,[r7,#16]
 238 0034 1A79     	 ldrb r2,[r3,#4]
 239 0036 0121     	 mov r1,#1
 240 0038 0A43     	 orr r2,r1
 241 003a 1A71     	 strb r2,[r3,#4]
 355:../Dave/Generated/E_EEPROM_XMC1/e_eeprom_xmc1.c ****         block_ptr->status.copied = 0U;
 242              	 .loc 2 355 0 discriminator 1
 243 003c 3B69     	 ldr r3,[r7,#16]
 244 003e 1A79     	 ldrb r2,[r3,#4]
 245 0040 0421     	 mov r1,#4
 246 0042 8A43     	 bic r2,r1
 247 0044 1A71     	 strb r2,[r3,#4]
 356:../Dave/Generated/E_EEPROM_XMC1/e_eeprom_xmc1.c ****         block_ptr->status.crc = 0U;
 248              	 .loc 2 356 0 discriminator 1
 249 0046 3B69     	 ldr r3,[r7,#16]
 250 0048 1A79     	 ldrb r2,[r3,#4]
 251 004a 0821     	 mov r1,#8
 252 004c 8A43     	 bic r2,r1
 253 004e 1A71     	 strb r2,[r3,#4]
 357:../Dave/Generated/E_EEPROM_XMC1/e_eeprom_xmc1.c ****         indx++;
 254              	 .loc 2 357 0 discriminator 1
 255 0050 7B69     	 ldr r3,[r7,#20]
 256 0052 0133     	 add r3,r3,#1
 257 0054 7B61     	 str r3,[r7,#20]
 258              	.LBE2:
 358:../Dave/Generated/E_EEPROM_XMC1/e_eeprom_xmc1.c ****       } while (indx < handle_ptr->block_count);
 259              	 .loc 2 358 0 discriminator 1
 260 0056 7B68     	 ldr r3,[r7,#4]
 261 0058 5B7A     	 ldrb r3,[r3,#9]
 262 005a 1A1E     	 sub r2,r3,#0
 263 005c 7B69     	 ldr r3,[r7,#20]
 264 005e 9A42     	 cmp r2,r3
 265 0060 D9D8     	 bhi .L12
 359:../Dave/Generated/E_EEPROM_XMC1/e_eeprom_xmc1.c **** 
 360:../Dave/Generated/E_EEPROM_XMC1/e_eeprom_xmc1.c ****       /********* Initialize all global variables *****************/
 361:../Dave/Generated/E_EEPROM_XMC1/e_eeprom_xmc1.c ****       handle_ptr->data_ptr->updated_cache_index = 0U;
 266              	 .loc 2 361 0
 267 0062 7B68     	 ldr r3,[r7,#4]
 268 0064 5A68     	 ldr r2,[r3,#4]
 269 0066 B623     	 mov r3,#182
 270 0068 5B00     	 lsl r3,r3,#1
 271 006a 0021     	 mov r1,#0
 272 006c D150     	 str r1,[r2,r3]
 362:../Dave/Generated/E_EEPROM_XMC1/e_eeprom_xmc1.c ****       handle_ptr->data_ptr->cache_state = E_EEPROM_XMC1_CACHE_IDLE;
 273              	 .loc 2 362 0
 274 006e 7B68     	 ldr r3,[r7,#4]
 275 0070 5A68     	 ldr r2,[r3,#4]
 276 0072 B423     	 mov r3,#180
 277 0074 5B00     	 lsl r3,r3,#1
 278 0076 0021     	 mov r1,#0
 279 0078 D150     	 str r1,[r2,r3]
 363:../Dave/Generated/E_EEPROM_XMC1/e_eeprom_xmc1.c ****       handle_ptr->data_ptr->gc_state = E_EEPROM_XMC1_GC_UNINT;
 280              	 .loc 2 363 0
 281 007a 7B68     	 ldr r3,[r7,#4]
 282 007c 5A68     	 ldr r2,[r3,#4]
 283 007e AE23     	 mov r3,#174
 284 0080 5B00     	 lsl r3,r3,#1
 285 0082 0021     	 mov r1,#0
 286 0084 D150     	 str r1,[r2,r3]
 364:../Dave/Generated/E_EEPROM_XMC1/e_eeprom_xmc1.c ****       handle_ptr->data_ptr->init_gc_state = 0U;
 287              	 .loc 2 364 0
 288 0086 7B68     	 ldr r3,[r7,#4]
 289 0088 5A68     	 ldr r2,[r3,#4]
 290 008a B023     	 mov r3,#176
 291 008c 5B00     	 lsl r3,r3,#1
 292 008e 0021     	 mov r1,#0
 293 0090 D150     	 str r1,[r2,r3]
 365:../Dave/Generated/E_EEPROM_XMC1/e_eeprom_xmc1.c ****       handle_ptr->data_ptr->gc_log_block_count = 0U;
 294              	 .loc 2 365 0
 295 0092 7B68     	 ldr r3,[r7,#4]
 296 0094 5A68     	 ldr r2,[r3,#4]
 297 0096 B223     	 mov r3,#178
 298 0098 5B00     	 lsl r3,r3,#1
 299 009a 0021     	 mov r1,#0
 300 009c D150     	 str r1,[r2,r3]
 366:../Dave/Generated/E_EEPROM_XMC1/e_eeprom_xmc1.c ****       handle_ptr->data_ptr->crc_buffer = 0U;
 301              	 .loc 2 366 0
 302 009e 7B68     	 ldr r3,[r7,#4]
 303 00a0 5B68     	 ldr r3,[r3,#4]
 304 00a2 0022     	 mov r2,#0
 305 00a4 5A65     	 str r2,[r3,#84]
 367:../Dave/Generated/E_EEPROM_XMC1/e_eeprom_xmc1.c **** 
 368:../Dave/Generated/E_EEPROM_XMC1/e_eeprom_xmc1.c ****       handle_ptr->data_ptr->written_block_counter = (uint32_t)0;
 306              	 .loc 2 368 0
 307 00a6 7B68     	 ldr r3,[r7,#4]
 308 00a8 5B68     	 ldr r3,[r3,#4]
 309 00aa 0022     	 mov r2,#0
 310 00ac 1A64     	 str r2,[r3,#64]
 369:../Dave/Generated/E_EEPROM_XMC1/e_eeprom_xmc1.c ****       handle_ptr->data_ptr->curr_bank_src_addr = 0U;
 311              	 .loc 2 369 0
 312 00ae 7B68     	 ldr r3,[r7,#4]
 313 00b0 5B68     	 ldr r3,[r3,#4]
 314 00b2 0022     	 mov r2,#0
 315 00b4 9A63     	 str r2,[r3,#56]
 370:../Dave/Generated/E_EEPROM_XMC1/e_eeprom_xmc1.c ****       handle_ptr->data_ptr->gc_src_addr = 0U;
 316              	 .loc 2 370 0
 317 00b6 7B68     	 ldr r3,[r7,#4]
 318 00b8 5B68     	 ldr r3,[r3,#4]
 319 00ba 0022     	 mov r2,#0
 320 00bc 9A62     	 str r2,[r3,#40]
 371:../Dave/Generated/E_EEPROM_XMC1/e_eeprom_xmc1.c ****       handle_ptr->data_ptr->gc_dest_addr = 0U;
 321              	 .loc 2 371 0
 322 00be 7B68     	 ldr r3,[r7,#4]
 323 00c0 5B68     	 ldr r3,[r3,#4]
 324 00c2 0022     	 mov r2,#0
 325 00c4 5A62     	 str r2,[r3,#36]
 372:../Dave/Generated/E_EEPROM_XMC1/e_eeprom_xmc1.c ****       handle_ptr->data_ptr->next_free_block_addr = 0U;
 326              	 .loc 2 372 0
 327 00c6 7B68     	 ldr r3,[r7,#4]
 328 00c8 5B68     	 ldr r3,[r3,#4]
 329 00ca 0022     	 mov r2,#0
 330 00cc 5A63     	 str r2,[r3,#52]
 373:../Dave/Generated/E_EEPROM_XMC1/e_eeprom_xmc1.c ****       handle_ptr->data_ptr->gc_block_counter = (uint32_t)0;
 331              	 .loc 2 373 0
 332 00ce 7B68     	 ldr r3,[r7,#4]
 333 00d0 5B68     	 ldr r3,[r3,#4]
 334 00d2 0022     	 mov r2,#0
 335 00d4 DA63     	 str r2,[r3,#60]
 374:../Dave/Generated/E_EEPROM_XMC1/e_eeprom_xmc1.c ****       handle_ptr->data_ptr->user_write_bytes_count = 0U;
 336              	 .loc 2 374 0
 337 00d6 7B68     	 ldr r3,[r7,#4]
 338 00d8 5A68     	 ldr r2,[r3,#4]
 339 00da AC23     	 mov r3,#172
 340 00dc 5B00     	 lsl r3,r3,#1
 341 00de 0021     	 mov r1,#0
 342 00e0 D150     	 str r1,[r2,r3]
 375:../Dave/Generated/E_EEPROM_XMC1/e_eeprom_xmc1.c **** 
 376:../Dave/Generated/E_EEPROM_XMC1/e_eeprom_xmc1.c ****       handle_ptr->data_ptr->current_bank = 0U;
 343              	 .loc 2 376 0
 344 00e2 7B68     	 ldr r3,[r7,#4]
 345 00e4 5B68     	 ldr r3,[r3,#4]
 346 00e6 0022     	 mov r2,#0
 347 00e8 1A62     	 str r2,[r3,#32]
 377:../Dave/Generated/E_EEPROM_XMC1/e_eeprom_xmc1.c **** 
 378:../Dave/Generated/E_EEPROM_XMC1/e_eeprom_xmc1.c ****       XMC_FLASH_SetHardReadLevel(XMC_FLASH_HARDREAD_LEVEL_WRITTEN);
 348              	 .loc 2 378 0
 349 00ea 0120     	 mov r0,#1
 350 00ec FFF7FEFF 	 bl XMC_FLASH_SetHardReadLevel
 379:../Dave/Generated/E_EEPROM_XMC1/e_eeprom_xmc1.c **** 
 380:../Dave/Generated/E_EEPROM_XMC1/e_eeprom_xmc1.c ****       /* Read the marker blocks from flash and decide the MARKER STATES */
 381:../Dave/Generated/E_EEPROM_XMC1/e_eeprom_xmc1.c ****       marker_state = E_EEPROM_XMC1_lReadMarkerBlocks();
 351              	 .loc 2 381 0
 352 00f0 FFF7FEFF 	 bl E_EEPROM_XMC1_lReadMarkerBlocks
 353 00f4 031C     	 mov r3,r0
 354 00f6 FB60     	 str r3,[r7,#12]
 382:../Dave/Generated/E_EEPROM_XMC1/e_eeprom_xmc1.c **** 
 383:../Dave/Generated/E_EEPROM_XMC1/e_eeprom_xmc1.c **** 
 384:../Dave/Generated/E_EEPROM_XMC1/e_eeprom_xmc1.c ****       /*
 385:../Dave/Generated/E_EEPROM_XMC1/e_eeprom_xmc1.c ****        * Call INIT-GC state machine function to take decision on current MARKER STATE available.
 386:../Dave/Generated/E_EEPROM_XMC1/e_eeprom_xmc1.c ****        * Progress to GC state machine or PrepareDFLASH State machine after completing  the Cache up
 387:../Dave/Generated/E_EEPROM_XMC1/e_eeprom_xmc1.c ****        */
 388:../Dave/Generated/E_EEPROM_XMC1/e_eeprom_xmc1.c ****       E_EEPROM_XMC1_lInitGc(marker_state);
 355              	 .loc 2 388 0
 356 00f8 FB68     	 ldr r3,[r7,#12]
 357 00fa 181C     	 mov r0,r3
 358 00fc FFF7FEFF 	 bl E_EEPROM_XMC1_lInitGc
 389:../Dave/Generated/E_EEPROM_XMC1/e_eeprom_xmc1.c **** 
 390:../Dave/Generated/E_EEPROM_XMC1/e_eeprom_xmc1.c ****       /* If Initialization is done without any errors, set the INIT API called state into Initializ
 391:../Dave/Generated/E_EEPROM_XMC1/e_eeprom_xmc1.c ****       if (handle_ptr->data_ptr->gc_state == E_EEPROM_XMC1_GC_IDLE)
 359              	 .loc 2 391 0
 360 0100 7B68     	 ldr r3,[r7,#4]
 361 0102 5A68     	 ldr r2,[r3,#4]
 362 0104 AE23     	 mov r3,#174
 363 0106 5B00     	 lsl r3,r3,#1
 364 0108 D358     	 ldr r3,[r2,r3]
 365 010a 0A2B     	 cmp r3,#10
 366 010c 03D1     	 bne .L13
 392:../Dave/Generated/E_EEPROM_XMC1/e_eeprom_xmc1.c ****       {
 393:../Dave/Generated/E_EEPROM_XMC1/e_eeprom_xmc1.c ****         handle_ptr->state = E_EEPROM_XMC1_STATUS_SUCCESS;
 367              	 .loc 2 393 0
 368 010e 7B68     	 ldr r3,[r7,#4]
 369 0110 0022     	 mov r2,#0
 370 0112 1A72     	 strb r2,[r3,#8]
 371 0114 02E0     	 b .L11
 372              	.L13:
 394:../Dave/Generated/E_EEPROM_XMC1/e_eeprom_xmc1.c ****       }
 395:../Dave/Generated/E_EEPROM_XMC1/e_eeprom_xmc1.c ****       else
 396:../Dave/Generated/E_EEPROM_XMC1/e_eeprom_xmc1.c ****       {
 397:../Dave/Generated/E_EEPROM_XMC1/e_eeprom_xmc1.c ****         handle_ptr->state = E_EEPROM_XMC1_STATUS_FAILURE;
 373              	 .loc 2 397 0
 374 0116 7B68     	 ldr r3,[r7,#4]
 375 0118 0122     	 mov r2,#1
 376 011a 1A72     	 strb r2,[r3,#8]
 377              	.L11:
 398:../Dave/Generated/E_EEPROM_XMC1/e_eeprom_xmc1.c ****       }
 399:../Dave/Generated/E_EEPROM_XMC1/e_eeprom_xmc1.c ****     }
 400:../Dave/Generated/E_EEPROM_XMC1/e_eeprom_xmc1.c ****   }
 401:../Dave/Generated/E_EEPROM_XMC1/e_eeprom_xmc1.c ****   return (handle_ptr->state);
 378              	 .loc 2 401 0
 379 011c 7B68     	 ldr r3,[r7,#4]
 380 011e 1B7A     	 ldrb r3,[r3,#8]
 402:../Dave/Generated/E_EEPROM_XMC1/e_eeprom_xmc1.c **** }
 381              	 .loc 2 402 0
 382 0120 181C     	 mov r0,r3
 383 0122 BD46     	 mov sp,r7
 384 0124 06B0     	 add sp,sp,#24
 385              	 
 386 0126 80BD     	 pop {r7,pc}
 387              	 .cfi_endproc
 388              	.LFE50:
 390              	 .section .text.E_EEPROM_XMC1_Write,"ax",%progbits
 391              	 .align 2
 392              	 .global E_EEPROM_XMC1_Write
 393              	 .code 16
 394              	 .thumb_func
 396              	E_EEPROM_XMC1_Write:
 397              	.LFB51:
 403:../Dave/Generated/E_EEPROM_XMC1/e_eeprom_xmc1.c **** 
 404:../Dave/Generated/E_EEPROM_XMC1/e_eeprom_xmc1.c **** /*
 405:../Dave/Generated/E_EEPROM_XMC1/e_eeprom_xmc1.c ****  * Parameters(IN)  : block_number  - Number of logical block (Block-ID)
 406:../Dave/Generated/E_EEPROM_XMC1/e_eeprom_xmc1.c ****  *             data_buffer_ptr - Pointer to user data buffer
 407:../Dave/Generated/E_EEPROM_XMC1/e_eeprom_xmc1.c ****  *
 408:../Dave/Generated/E_EEPROM_XMC1/e_eeprom_xmc1.c ****  * Return value   : E_EEPROM_XMC1_OPERATION_STATUS_t
 409:../Dave/Generated/E_EEPROM_XMC1/e_eeprom_xmc1.c ****  * 
 410:../Dave/Generated/E_EEPROM_XMC1/e_eeprom_xmc1.c ****  * Description    : This function shall write user data block into flash.
 411:../Dave/Generated/E_EEPROM_XMC1/e_eeprom_xmc1.c ****  */
 412:../Dave/Generated/E_EEPROM_XMC1/e_eeprom_xmc1.c **** E_EEPROM_XMC1_OPERATION_STATUS_t E_EEPROM_XMC1_Write(uint8_t block_number, uint8_t *data_buffer_ptr
 413:../Dave/Generated/E_EEPROM_XMC1/e_eeprom_xmc1.c **** {
 398              	 .loc 2 413 0
 399              	 .cfi_startproc
 400 0000 80B5     	 push {r7,lr}
 401              	.LCFI12:
 402              	 .cfi_def_cfa_offset 8
 403              	 .cfi_offset 7,-8
 404              	 .cfi_offset 14,-4
 405 0002 84B0     	 sub sp,sp,#16
 406              	.LCFI13:
 407              	 .cfi_def_cfa_offset 24
 408 0004 00AF     	 add r7,sp,#0
 409              	.LCFI14:
 410              	 .cfi_def_cfa_register 7
 411 0006 021C     	 mov r2,r0
 412 0008 3960     	 str r1,[r7]
 413 000a FB1D     	 add r3,r7,#7
 414 000c 1A70     	 strb r2,[r3]
 414:../Dave/Generated/E_EEPROM_XMC1/e_eeprom_xmc1.c ****   E_EEPROM_XMC1_OPERATION_STATUS_t status;
 415:../Dave/Generated/E_EEPROM_XMC1/e_eeprom_xmc1.c ****   E_EEPROM_XMC1_DATA_t *data_ptr;
 416:../Dave/Generated/E_EEPROM_XMC1/e_eeprom_xmc1.c ****   
 417:../Dave/Generated/E_EEPROM_XMC1/e_eeprom_xmc1.c ****   data_ptr = (E_EEPROM_XMC1_DATA_t*)(void*)(E_EEPROM_XMC1_HANDLE_PTR->data_ptr);
 415              	 .loc 2 417 0
 416 000e 104B     	 ldr r3,.L18
 417 0010 5B68     	 ldr r3,[r3,#4]
 418 0012 BB60     	 str r3,[r7,#8]
 418:../Dave/Generated/E_EEPROM_XMC1/e_eeprom_xmc1.c ****   
 419:../Dave/Generated/E_EEPROM_XMC1/e_eeprom_xmc1.c ****   XMC_ASSERT("E_EEPROM_XMC1_Write:Wrong Block Number", (E_EEPROM_XMC1_lGetUsrBlockIndex(block_numbe
 420:../Dave/Generated/E_EEPROM_XMC1/e_eeprom_xmc1.c ****                                                         E_EEPROM_XMC1_LOG_BLOCK_NOT_FOUND));
 421:../Dave/Generated/E_EEPROM_XMC1/e_eeprom_xmc1.c ****   XMC_ASSERT("E_EEPROM_XMC1_Write:Invalid Buffer Pointer", (data_buffer_ptr != NULL));
 422:../Dave/Generated/E_EEPROM_XMC1/e_eeprom_xmc1.c ****   
 423:../Dave/Generated/E_EEPROM_XMC1/e_eeprom_xmc1.c ****   status = E_EEPROM_XMC1_OPERATION_STATUS_NOT_ALLOWED;
 419              	 .loc 2 423 0
 420 0014 0F23     	 mov r3,#15
 421 0016 FB18     	 add r3,r7,r3
 422 0018 0522     	 mov r2,#5
 423 001a 1A70     	 strb r2,[r3]
 424:../Dave/Generated/E_EEPROM_XMC1/e_eeprom_xmc1.c **** 
 425:../Dave/Generated/E_EEPROM_XMC1/e_eeprom_xmc1.c ****   /* Execute only if there is no previous pending request and the GC process is in IDLE state */
 426:../Dave/Generated/E_EEPROM_XMC1/e_eeprom_xmc1.c ****   if (data_ptr->gc_state == E_EEPROM_XMC1_GC_IDLE)
 424              	 .loc 2 426 0
 425 001c BA68     	 ldr r2,[r7,#8]
 426 001e AE23     	 mov r3,#174
 427 0020 5B00     	 lsl r3,r3,#1
 428 0022 D358     	 ldr r3,[r2,r3]
 429 0024 0A2B     	 cmp r3,#10
 430 0026 0BD1     	 bne .L16
 427:../Dave/Generated/E_EEPROM_XMC1/e_eeprom_xmc1.c ****   {
 428:../Dave/Generated/E_EEPROM_XMC1/e_eeprom_xmc1.c ****     /* Call local function to write the specified block of data into flash */
 429:../Dave/Generated/E_EEPROM_XMC1/e_eeprom_xmc1.c ****     status = (E_EEPROM_XMC1_OPERATION_STATUS_t)E_EEPROM_XMC1_lLocalWrite(block_number, data_buffer_
 431              	 .loc 2 429 0
 432 0028 FB1D     	 add r3,r7,#7
 433 002a 1A78     	 ldrb r2,[r3]
 434 002c 3B68     	 ldr r3,[r7]
 435 002e 101C     	 mov r0,r2
 436 0030 191C     	 mov r1,r3
 437 0032 0022     	 mov r2,#0
 438 0034 FFF7FEFF 	 bl E_EEPROM_XMC1_lLocalWrite
 439 0038 021C     	 mov r2,r0
 440 003a 0F23     	 mov r3,#15
 441 003c FB18     	 add r3,r7,r3
 442 003e 1A70     	 strb r2,[r3]
 443              	.L16:
 430:../Dave/Generated/E_EEPROM_XMC1/e_eeprom_xmc1.c ****   }
 431:../Dave/Generated/E_EEPROM_XMC1/e_eeprom_xmc1.c **** 
 432:../Dave/Generated/E_EEPROM_XMC1/e_eeprom_xmc1.c ****   return((E_EEPROM_XMC1_OPERATION_STATUS_t)status);
 444              	 .loc 2 432 0
 445 0040 0F23     	 mov r3,#15
 446 0042 FB18     	 add r3,r7,r3
 447 0044 1B78     	 ldrb r3,[r3]
 433:../Dave/Generated/E_EEPROM_XMC1/e_eeprom_xmc1.c **** }
 448              	 .loc 2 433 0
 449 0046 181C     	 mov r0,r3
 450 0048 BD46     	 mov sp,r7
 451 004a 04B0     	 add sp,sp,#16
 452              	 
 453 004c 80BD     	 pop {r7,pc}
 454              	.L19:
 455 004e C046     	 .align 2
 456              	.L18:
 457 0050 00000000 	 .word E_EEPROM_XMC1_0
 458              	 .cfi_endproc
 459              	.LFE51:
 461              	 .section .text.E_EEPROM_XMC1_InvalidateBlock,"ax",%progbits
 462              	 .align 2
 463              	 .global E_EEPROM_XMC1_InvalidateBlock
 464              	 .code 16
 465              	 .thumb_func
 467              	E_EEPROM_XMC1_InvalidateBlock:
 468              	.LFB52:
 434:../Dave/Generated/E_EEPROM_XMC1/e_eeprom_xmc1.c **** 
 435:../Dave/Generated/E_EEPROM_XMC1/e_eeprom_xmc1.c **** /*
 436:../Dave/Generated/E_EEPROM_XMC1/e_eeprom_xmc1.c **** * Parameters(IN)  : block_number  - Number of logical block (Block-ID)
 437:../Dave/Generated/E_EEPROM_XMC1/e_eeprom_xmc1.c **** *
 438:../Dave/Generated/E_EEPROM_XMC1/e_eeprom_xmc1.c **** * Return value    : E_EEPROM_XMC1_OPERATION_STATUS_t
 439:../Dave/Generated/E_EEPROM_XMC1/e_eeprom_xmc1.c **** * 
 440:../Dave/Generated/E_EEPROM_XMC1/e_eeprom_xmc1.c **** * Description     : This function shall invalidate user data block.
 441:../Dave/Generated/E_EEPROM_XMC1/e_eeprom_xmc1.c **** */
 442:../Dave/Generated/E_EEPROM_XMC1/e_eeprom_xmc1.c **** E_EEPROM_XMC1_OPERATION_STATUS_t E_EEPROM_XMC1_InvalidateBlock(uint8_t block_number)
 443:../Dave/Generated/E_EEPROM_XMC1/e_eeprom_xmc1.c **** {
 469              	 .loc 2 443 0
 470              	 .cfi_startproc
 471 0000 80B5     	 push {r7,lr}
 472              	.LCFI15:
 473              	 .cfi_def_cfa_offset 8
 474              	 .cfi_offset 7,-8
 475              	 .cfi_offset 14,-4
 476 0002 86B0     	 sub sp,sp,#24
 477              	.LCFI16:
 478              	 .cfi_def_cfa_offset 32
 479 0004 00AF     	 add r7,sp,#0
 480              	.LCFI17:
 481              	 .cfi_def_cfa_register 7
 482 0006 021C     	 mov r2,r0
 483 0008 FB1D     	 add r3,r7,#7
 484 000a 1A70     	 strb r2,[r3]
 444:../Dave/Generated/E_EEPROM_XMC1/e_eeprom_xmc1.c ****   uint8_t* data_buffer_ptr;
 445:../Dave/Generated/E_EEPROM_XMC1/e_eeprom_xmc1.c ****   E_EEPROM_XMC1_DATA_t *data_ptr;
 446:../Dave/Generated/E_EEPROM_XMC1/e_eeprom_xmc1.c ****   E_EEPROM_XMC1_OPERATION_STATUS_t status;
 447:../Dave/Generated/E_EEPROM_XMC1/e_eeprom_xmc1.c **** 
 448:../Dave/Generated/E_EEPROM_XMC1/e_eeprom_xmc1.c ****   data_ptr = (E_EEPROM_XMC1_DATA_t*)(void*)(E_EEPROM_XMC1_HANDLE_PTR->data_ptr);
 485              	 .loc 2 448 0
 486 000c 114B     	 ldr r3,.L23
 487 000e 5B68     	 ldr r3,[r3,#4]
 488 0010 3B61     	 str r3,[r7,#16]
 449:../Dave/Generated/E_EEPROM_XMC1/e_eeprom_xmc1.c ****   XMC_ASSERT("E_EEPROM_XMC1_InvalidateBlock:Wrong Block Number", (E_EEPROM_XMC1_lGetUsrBlockIndex(b
 450:../Dave/Generated/E_EEPROM_XMC1/e_eeprom_xmc1.c ****                                                                   E_EEPROM_XMC1_LOG_BLOCK_NOT_FOUND
 451:../Dave/Generated/E_EEPROM_XMC1/e_eeprom_xmc1.c ****   data_buffer_ptr =  data_ptr->read_write_buffer;
 489              	 .loc 2 451 0
 490 0012 3B69     	 ldr r3,[r7,#16]
 491 0014 4433     	 add r3,r3,#68
 492 0016 FB60     	 str r3,[r7,#12]
 452:../Dave/Generated/E_EEPROM_XMC1/e_eeprom_xmc1.c ****   status = E_EEPROM_XMC1_OPERATION_STATUS_NOT_ALLOWED;
 493              	 .loc 2 452 0
 494 0018 1723     	 mov r3,#23
 495 001a FB18     	 add r3,r7,r3
 496 001c 0522     	 mov r2,#5
 497 001e 1A70     	 strb r2,[r3]
 453:../Dave/Generated/E_EEPROM_XMC1/e_eeprom_xmc1.c **** 
 454:../Dave/Generated/E_EEPROM_XMC1/e_eeprom_xmc1.c ****   /* Execute only if there is no previous pending request and the GC process is in IDLE state */
 455:../Dave/Generated/E_EEPROM_XMC1/e_eeprom_xmc1.c ****   if (data_ptr->gc_state == E_EEPROM_XMC1_GC_IDLE)
 498              	 .loc 2 455 0
 499 0020 3A69     	 ldr r2,[r7,#16]
 500 0022 AE23     	 mov r3,#174
 501 0024 5B00     	 lsl r3,r3,#1
 502 0026 D358     	 ldr r3,[r2,r3]
 503 0028 0A2B     	 cmp r3,#10
 504 002a 0BD1     	 bne .L21
 456:../Dave/Generated/E_EEPROM_XMC1/e_eeprom_xmc1.c ****   {
 457:../Dave/Generated/E_EEPROM_XMC1/e_eeprom_xmc1.c ****     /* Call local function to write the specified block of data into flash */
 458:../Dave/Generated/E_EEPROM_XMC1/e_eeprom_xmc1.c ****     status = (E_EEPROM_XMC1_OPERATION_STATUS_t)E_EEPROM_XMC1_lLocalWrite( block_number, data_buffer
 505              	 .loc 2 458 0
 506 002c FB1D     	 add r3,r7,#7
 507 002e 1A78     	 ldrb r2,[r3]
 508 0030 FB68     	 ldr r3,[r7,#12]
 509 0032 101C     	 mov r0,r2
 510 0034 191C     	 mov r1,r3
 511 0036 0122     	 mov r2,#1
 512 0038 FFF7FEFF 	 bl E_EEPROM_XMC1_lLocalWrite
 513 003c 021C     	 mov r2,r0
 514 003e 1723     	 mov r3,#23
 515 0040 FB18     	 add r3,r7,r3
 516 0042 1A70     	 strb r2,[r3]
 517              	.L21:
 459:../Dave/Generated/E_EEPROM_XMC1/e_eeprom_xmc1.c ****   }
 460:../Dave/Generated/E_EEPROM_XMC1/e_eeprom_xmc1.c **** 
 461:../Dave/Generated/E_EEPROM_XMC1/e_eeprom_xmc1.c ****   return((E_EEPROM_XMC1_OPERATION_STATUS_t)status);
 518              	 .loc 2 461 0
 519 0044 1723     	 mov r3,#23
 520 0046 FB18     	 add r3,r7,r3
 521 0048 1B78     	 ldrb r3,[r3]
 462:../Dave/Generated/E_EEPROM_XMC1/e_eeprom_xmc1.c **** }
 522              	 .loc 2 462 0
 523 004a 181C     	 mov r0,r3
 524 004c BD46     	 mov sp,r7
 525 004e 06B0     	 add sp,sp,#24
 526              	 
 527 0050 80BD     	 pop {r7,pc}
 528              	.L24:
 529 0052 C046     	 .align 2
 530              	.L23:
 531 0054 00000000 	 .word E_EEPROM_XMC1_0
 532              	 .cfi_endproc
 533              	.LFE52:
 535              	 .section .text.E_EEPROM_XMC1_Read,"ax",%progbits
 536              	 .align 2
 537              	 .global E_EEPROM_XMC1_Read
 538              	 .code 16
 539              	 .thumb_func
 541              	E_EEPROM_XMC1_Read:
 542              	.LFB53:
 463:../Dave/Generated/E_EEPROM_XMC1/e_eeprom_xmc1.c **** 
 464:../Dave/Generated/E_EEPROM_XMC1/e_eeprom_xmc1.c **** /*
 465:../Dave/Generated/E_EEPROM_XMC1/e_eeprom_xmc1.c ****  * Parameters(IN)  : block_number  - Number of logical block
 466:../Dave/Generated/E_EEPROM_XMC1/e_eeprom_xmc1.c ****  *                   offset      - Start Location for Read start
 467:../Dave/Generated/E_EEPROM_XMC1/e_eeprom_xmc1.c ****  *                   data_buffer_ptr - Pointer to user data buffer
 468:../Dave/Generated/E_EEPROM_XMC1/e_eeprom_xmc1.c ****  *                   length      - End Location for read completion
 469:../Dave/Generated/E_EEPROM_XMC1/e_eeprom_xmc1.c ****  *
 470:../Dave/Generated/E_EEPROM_XMC1/e_eeprom_xmc1.c ****  * Return value    : E_EEPROM_XMC1_OPERATION_STATUS_t
 471:../Dave/Generated/E_EEPROM_XMC1/e_eeprom_xmc1.c ****  *                                                                   
 472:../Dave/Generated/E_EEPROM_XMC1/e_eeprom_xmc1.c ****  * Description     : This function shall read user data blocks from flash.
 473:../Dave/Generated/E_EEPROM_XMC1/e_eeprom_xmc1.c ****  */
 474:../Dave/Generated/E_EEPROM_XMC1/e_eeprom_xmc1.c **** E_EEPROM_XMC1_OPERATION_STATUS_t E_EEPROM_XMC1_Read(uint8_t block_number,
 475:../Dave/Generated/E_EEPROM_XMC1/e_eeprom_xmc1.c ****                                                     uint32_t offset,
 476:../Dave/Generated/E_EEPROM_XMC1/e_eeprom_xmc1.c ****                                                     uint8_t *data_buffer_ptr,
 477:../Dave/Generated/E_EEPROM_XMC1/e_eeprom_xmc1.c ****                                                     uint32_t length)
 478:../Dave/Generated/E_EEPROM_XMC1/e_eeprom_xmc1.c **** {
 543              	 .loc 2 478 0
 544              	 .cfi_startproc
 545 0000 80B5     	 push {r7,lr}
 546              	.LCFI18:
 547              	 .cfi_def_cfa_offset 8
 548              	 .cfi_offset 7,-8
 549              	 .cfi_offset 14,-4
 550 0002 88B0     	 sub sp,sp,#32
 551              	.LCFI19:
 552              	 .cfi_def_cfa_offset 40
 553 0004 00AF     	 add r7,sp,#0
 554              	.LCFI20:
 555              	 .cfi_def_cfa_register 7
 556 0006 B960     	 str r1,[r7,#8]
 557 0008 7A60     	 str r2,[r7,#4]
 558 000a 3B60     	 str r3,[r7]
 559 000c 0F23     	 mov r3,#15
 560 000e FB18     	 add r3,r7,r3
 561 0010 021C     	 add r2,r0,#0
 562 0012 1A70     	 strb r2,[r3]
 479:../Dave/Generated/E_EEPROM_XMC1/e_eeprom_xmc1.c ****   uint32_t block_size;
 480:../Dave/Generated/E_EEPROM_XMC1/e_eeprom_xmc1.c ****   uint32_t user_block_index;
 481:../Dave/Generated/E_EEPROM_XMC1/e_eeprom_xmc1.c ****   E_EEPROM_XMC1_DATA_t *data_ptr;
 482:../Dave/Generated/E_EEPROM_XMC1/e_eeprom_xmc1.c ****   E_EEPROM_XMC1_OPERATION_STATUS_t status;
 483:../Dave/Generated/E_EEPROM_XMC1/e_eeprom_xmc1.c **** 
 484:../Dave/Generated/E_EEPROM_XMC1/e_eeprom_xmc1.c ****   data_ptr = (E_EEPROM_XMC1_DATA_t*)(void*)(E_EEPROM_XMC1_HANDLE_PTR->data_ptr);
 563              	 .loc 2 484 0
 564 0014 314B     	 ldr r3,.L30
 565 0016 5B68     	 ldr r3,[r3,#4]
 566 0018 BB61     	 str r3,[r7,#24]
 485:../Dave/Generated/E_EEPROM_XMC1/e_eeprom_xmc1.c ****   user_block_index = E_EEPROM_XMC1_lGetUsrBlockIndex(block_number);
 567              	 .loc 2 485 0
 568 001a 0F23     	 mov r3,#15
 569 001c FB18     	 add r3,r7,r3
 570 001e 1B78     	 ldrb r3,[r3]
 571 0020 181C     	 mov r0,r3
 572 0022 FFF7FEFF 	 bl E_EEPROM_XMC1_lGetUsrBlockIndex
 573 0026 031C     	 mov r3,r0
 574 0028 7B61     	 str r3,[r7,#20]
 486:../Dave/Generated/E_EEPROM_XMC1/e_eeprom_xmc1.c ****   block_size = E_EEPROM_XMC1_HANDLE_PTR->block_config_ptr[user_block_index].size;
 575              	 .loc 2 486 0
 576 002a 2C4B     	 ldr r3,.L30
 577 002c 1A68     	 ldr r2,[r3]
 578 002e 7B69     	 ldr r3,[r7,#20]
 579 0030 DB00     	 lsl r3,r3,#3
 580 0032 D318     	 add r3,r2,r3
 581 0034 5B68     	 ldr r3,[r3,#4]
 582 0036 3B61     	 str r3,[r7,#16]
 487:../Dave/Generated/E_EEPROM_XMC1/e_eeprom_xmc1.c ****   
 488:../Dave/Generated/E_EEPROM_XMC1/e_eeprom_xmc1.c ****   XMC_ASSERT("E_EEPROM_XMC1_Read:Wrong Block Number", (user_block_index  != E_EEPROM_XMC1_LOG_BLOCK
 489:../Dave/Generated/E_EEPROM_XMC1/e_eeprom_xmc1.c ****   XMC_ASSERT("E_EEPROM_XMC1_Read:Invalid Buffer Pointer", (data_buffer_ptr != NULL));
 490:../Dave/Generated/E_EEPROM_XMC1/e_eeprom_xmc1.c **** 
 491:../Dave/Generated/E_EEPROM_XMC1/e_eeprom_xmc1.c ****   status = E_EEPROM_XMC1_OPERATION_STATUS_NOT_ALLOWED;
 583              	 .loc 2 491 0
 584 0038 1F23     	 mov r3,#31
 585 003a FB18     	 add r3,r7,r3
 586 003c 0522     	 mov r2,#5
 587 003e 1A70     	 strb r2,[r3]
 492:../Dave/Generated/E_EEPROM_XMC1/e_eeprom_xmc1.c **** 
 493:../Dave/Generated/E_EEPROM_XMC1/e_eeprom_xmc1.c ****   /*Execute only if GC process is in IDLE state */
 494:../Dave/Generated/E_EEPROM_XMC1/e_eeprom_xmc1.c ****   if ((data_ptr->gc_state == E_EEPROM_XMC1_GC_IDLE) && (((uint32_t)offset + length) <= block_size))
 588              	 .loc 2 494 0
 589 0040 BA69     	 ldr r2,[r7,#24]
 590 0042 AE23     	 mov r3,#174
 591 0044 5B00     	 lsl r3,r3,#1
 592 0046 D358     	 ldr r3,[r2,r3]
 593 0048 0A2B     	 cmp r3,#10
 594 004a 40D1     	 bne .L26
 595              	 .loc 2 494 0 is_stmt 0 discriminator 1
 596 004c BA68     	 ldr r2,[r7,#8]
 597 004e 3B68     	 ldr r3,[r7]
 598 0050 D218     	 add r2,r2,r3
 599 0052 3B69     	 ldr r3,[r7,#16]
 600 0054 9A42     	 cmp r2,r3
 601 0056 3AD8     	 bhi .L26
 495:../Dave/Generated/E_EEPROM_XMC1/e_eeprom_xmc1.c ****   {
 496:../Dave/Generated/E_EEPROM_XMC1/e_eeprom_xmc1.c ****     if (data_ptr->block_info[user_block_index].status.valid == 0U) /* If cache says Inconsistent */
 602              	 .loc 2 496 0 is_stmt 1
 603 0058 BA69     	 ldr r2,[r7,#24]
 604 005a 7B69     	 ldr r3,[r7,#20]
 605 005c DB00     	 lsl r3,r3,#3
 606 005e D318     	 add r3,r2,r3
 607 0060 1B79     	 ldrb r3,[r3,#4]
 608 0062 DB07     	 lsl r3,r3,#31
 609 0064 DB0F     	 lsr r3,r3,#31
 610 0066 DBB2     	 uxtb r3,r3
 611 0068 002B     	 cmp r3,#0
 612 006a 04D1     	 bne .L27
 497:../Dave/Generated/E_EEPROM_XMC1/e_eeprom_xmc1.c ****     {
 498:../Dave/Generated/E_EEPROM_XMC1/e_eeprom_xmc1.c ****       status = E_EEPROM_XMC1_OPERATION_STATUS_INVALID_BLOCK;
 613              	 .loc 2 498 0
 614 006c 1F23     	 mov r3,#31
 615 006e FB18     	 add r3,r7,r3
 616 0070 0322     	 mov r2,#3
 617 0072 1A70     	 strb r2,[r3]
 618 0074 2BE0     	 b .L26
 619              	.L27:
 499:../Dave/Generated/E_EEPROM_XMC1/e_eeprom_xmc1.c ****     }
 500:../Dave/Generated/E_EEPROM_XMC1/e_eeprom_xmc1.c ****     else if (data_ptr->block_info[user_block_index].status.consistent == 0U) /* If cache says Inval
 620              	 .loc 2 500 0
 621 0076 BA69     	 ldr r2,[r7,#24]
 622 0078 7B69     	 ldr r3,[r7,#20]
 623 007a DB00     	 lsl r3,r3,#3
 624 007c D318     	 add r3,r2,r3
 625 007e 1B79     	 ldrb r3,[r3,#4]
 626 0080 9B07     	 lsl r3,r3,#30
 627 0082 DB0F     	 lsr r3,r3,#31
 628 0084 DBB2     	 uxtb r3,r3
 629 0086 002B     	 cmp r3,#0
 630 0088 04D1     	 bne .L28
 501:../Dave/Generated/E_EEPROM_XMC1/e_eeprom_xmc1.c ****     {
 502:../Dave/Generated/E_EEPROM_XMC1/e_eeprom_xmc1.c ****       status = E_EEPROM_XMC1_OPERATION_STATUS_INCONSISTENT_BLOCK;
 631              	 .loc 2 502 0
 632 008a 1F23     	 mov r3,#31
 633 008c FB18     	 add r3,r7,r3
 634 008e 0222     	 mov r2,#2
 635 0090 1A70     	 strb r2,[r3]
 636 0092 1CE0     	 b .L26
 637              	.L28:
 503:../Dave/Generated/E_EEPROM_XMC1/e_eeprom_xmc1.c ****     }
 504:../Dave/Generated/E_EEPROM_XMC1/e_eeprom_xmc1.c ****     else
 505:../Dave/Generated/E_EEPROM_XMC1/e_eeprom_xmc1.c ****     {
 506:../Dave/Generated/E_EEPROM_XMC1/e_eeprom_xmc1.c ****       data_ptr->read_start_address = data_ptr->block_info[user_block_index].address;
 638              	 .loc 2 506 0
 639 0094 BB69     	 ldr r3,[r7,#24]
 640 0096 7A69     	 ldr r2,[r7,#20]
 641 0098 D200     	 lsl r2,r2,#3
 642 009a D158     	 ldr r1,[r2,r3]
 643 009c BA69     	 ldr r2,[r7,#24]
 644 009e BA23     	 mov r3,#186
 645 00a0 5B00     	 lsl r3,r3,#1
 646 00a2 D150     	 str r1,[r2,r3]
 507:../Dave/Generated/E_EEPROM_XMC1/e_eeprom_xmc1.c ****       status = (E_EEPROM_XMC1_OPERATION_STATUS_t)E_EEPROM_XMC1_lReadBlockContents(data_buffer_ptr ,
 647              	 .loc 2 507 0
 648 00a4 7968     	 ldr r1,[r7,#4]
 649 00a6 3A68     	 ldr r2,[r7]
 650 00a8 BB68     	 ldr r3,[r7,#8]
 651 00aa 081C     	 mov r0,r1
 652 00ac 111C     	 mov r1,r2
 653 00ae 1A1C     	 mov r2,r3
 654 00b0 FFF7FEFF 	 bl E_EEPROM_XMC1_lReadBlockContents
 655 00b4 021C     	 mov r2,r0
 656 00b6 1F23     	 mov r3,#31
 657 00b8 FB18     	 add r3,r7,r3
 658 00ba 1A70     	 strb r2,[r3]
 508:../Dave/Generated/E_EEPROM_XMC1/e_eeprom_xmc1.c **** 
 509:../Dave/Generated/E_EEPROM_XMC1/e_eeprom_xmc1.c ****       if ((uint32_t)status != 0U)
 659              	 .loc 2 509 0
 660 00bc 1F23     	 mov r3,#31
 661 00be FB18     	 add r3,r7,r3
 662 00c0 1B78     	 ldrb r3,[r3]
 663 00c2 002B     	 cmp r3,#0
 664 00c4 03D0     	 beq .L26
 510:../Dave/Generated/E_EEPROM_XMC1/e_eeprom_xmc1.c ****       {
 511:../Dave/Generated/E_EEPROM_XMC1/e_eeprom_xmc1.c ****          status = E_EEPROM_XMC1_OPERATION_STATUS_FAILURE;
 665              	 .loc 2 511 0
 666 00c6 1F23     	 mov r3,#31
 667 00c8 FB18     	 add r3,r7,r3
 668 00ca 0122     	 mov r2,#1
 669 00cc 1A70     	 strb r2,[r3]
 670              	.L26:
 512:../Dave/Generated/E_EEPROM_XMC1/e_eeprom_xmc1.c ****       }
 513:../Dave/Generated/E_EEPROM_XMC1/e_eeprom_xmc1.c ****     }
 514:../Dave/Generated/E_EEPROM_XMC1/e_eeprom_xmc1.c ****   }
 515:../Dave/Generated/E_EEPROM_XMC1/e_eeprom_xmc1.c ****   return((E_EEPROM_XMC1_OPERATION_STATUS_t)status);
 671              	 .loc 2 515 0
 672 00ce 1F23     	 mov r3,#31
 673 00d0 FB18     	 add r3,r7,r3
 674 00d2 1B78     	 ldrb r3,[r3]
 516:../Dave/Generated/E_EEPROM_XMC1/e_eeprom_xmc1.c **** }
 675              	 .loc 2 516 0
 676 00d4 181C     	 mov r0,r3
 677 00d6 BD46     	 mov sp,r7
 678 00d8 08B0     	 add sp,sp,#32
 679              	 
 680 00da 80BD     	 pop {r7,pc}
 681              	.L31:
 682              	 .align 2
 683              	.L30:
 684 00dc 00000000 	 .word E_EEPROM_XMC1_0
 685              	 .cfi_endproc
 686              	.LFE53:
 688              	 .section .text.E_EEPROM_XMC1_StartGarbageCollection,"ax",%progbits
 689              	 .align 2
 690              	 .global E_EEPROM_XMC1_StartGarbageCollection
 691              	 .code 16
 692              	 .thumb_func
 694              	E_EEPROM_XMC1_StartGarbageCollection:
 695              	.LFB54:
 517:../Dave/Generated/E_EEPROM_XMC1/e_eeprom_xmc1.c **** 
 518:../Dave/Generated/E_EEPROM_XMC1/e_eeprom_xmc1.c **** /*
 519:../Dave/Generated/E_EEPROM_XMC1/e_eeprom_xmc1.c ****  * Parameters(IN)  : void
 520:../Dave/Generated/E_EEPROM_XMC1/e_eeprom_xmc1.c ****  *
 521:../Dave/Generated/E_EEPROM_XMC1/e_eeprom_xmc1.c ****  * Return value    : E_EEPROM_XMC1_OPERATION_STATUS_t
 522:../Dave/Generated/E_EEPROM_XMC1/e_eeprom_xmc1.c ****  * 
 523:../Dave/Generated/E_EEPROM_XMC1/e_eeprom_xmc1.c ****  * Description     : This function shall start Garbage collection.
 524:../Dave/Generated/E_EEPROM_XMC1/e_eeprom_xmc1.c ****  */
 525:../Dave/Generated/E_EEPROM_XMC1/e_eeprom_xmc1.c **** E_EEPROM_XMC1_OPERATION_STATUS_t E_EEPROM_XMC1_StartGarbageCollection(void)
 526:../Dave/Generated/E_EEPROM_XMC1/e_eeprom_xmc1.c **** {
 696              	 .loc 2 526 0
 697              	 .cfi_startproc
 698 0000 80B5     	 push {r7,lr}
 699              	.LCFI21:
 700              	 .cfi_def_cfa_offset 8
 701              	 .cfi_offset 7,-8
 702              	 .cfi_offset 14,-4
 703 0002 82B0     	 sub sp,sp,#8
 704              	.LCFI22:
 705              	 .cfi_def_cfa_offset 16
 706 0004 00AF     	 add r7,sp,#0
 707              	.LCFI23:
 708              	 .cfi_def_cfa_register 7
 527:../Dave/Generated/E_EEPROM_XMC1/e_eeprom_xmc1.c ****   E_EEPROM_XMC1_DATA_t *data_ptr;
 528:../Dave/Generated/E_EEPROM_XMC1/e_eeprom_xmc1.c ****   E_EEPROM_XMC1_OPERATION_STATUS_t status;
 529:../Dave/Generated/E_EEPROM_XMC1/e_eeprom_xmc1.c ****   
 530:../Dave/Generated/E_EEPROM_XMC1/e_eeprom_xmc1.c ****   data_ptr = (E_EEPROM_XMC1_DATA_t*)(void*)(E_EEPROM_XMC1_HANDLE_PTR->data_ptr);
 709              	 .loc 2 530 0
 710 0006 134B     	 ldr r3,.L36
 711 0008 5B68     	 ldr r3,[r3,#4]
 712 000a 3B60     	 str r3,[r7]
 531:../Dave/Generated/E_EEPROM_XMC1/e_eeprom_xmc1.c ****   
 532:../Dave/Generated/E_EEPROM_XMC1/e_eeprom_xmc1.c ****   status = E_EEPROM_XMC1_OPERATION_STATUS_NOT_ALLOWED;
 713              	 .loc 2 532 0
 714 000c FB1D     	 add r3,r7,#7
 715 000e 0522     	 mov r2,#5
 716 0010 1A70     	 strb r2,[r3]
 533:../Dave/Generated/E_EEPROM_XMC1/e_eeprom_xmc1.c **** 
 534:../Dave/Generated/E_EEPROM_XMC1/e_eeprom_xmc1.c ****   /* Check if the E_EEPROM_XMC1_Init API is called */
 535:../Dave/Generated/E_EEPROM_XMC1/e_eeprom_xmc1.c ****   if (data_ptr->gc_state == E_EEPROM_XMC1_GC_IDLE)
 717              	 .loc 2 535 0
 718 0012 3A68     	 ldr r2,[r7]
 719 0014 AE23     	 mov r3,#174
 720 0016 5B00     	 lsl r3,r3,#1
 721 0018 D358     	 ldr r3,[r2,r3]
 722 001a 0A2B     	 cmp r3,#10
 723 001c 13D1     	 bne .L33
 536:../Dave/Generated/E_EEPROM_XMC1/e_eeprom_xmc1.c ****   {
 537:../Dave/Generated/E_EEPROM_XMC1/e_eeprom_xmc1.c ****     data_ptr->gc_state = E_EEPROM_XMC1_GC_REQUESTED;
 724              	 .loc 2 537 0
 725 001e 3A68     	 ldr r2,[r7]
 726 0020 AE23     	 mov r3,#174
 727 0022 5B00     	 lsl r3,r3,#1
 728 0024 0421     	 mov r1,#4
 729 0026 D150     	 str r1,[r2,r3]
 538:../Dave/Generated/E_EEPROM_XMC1/e_eeprom_xmc1.c ****     
 539:../Dave/Generated/E_EEPROM_XMC1/e_eeprom_xmc1.c ****     /* Call local function to start garbage collection process from scratch */
 540:../Dave/Generated/E_EEPROM_XMC1/e_eeprom_xmc1.c ****     E_EEPROM_XMC1_lGarbageCollection();
 730              	 .loc 2 540 0
 731 0028 FFF7FEFF 	 bl E_EEPROM_XMC1_lGarbageCollection
 541:../Dave/Generated/E_EEPROM_XMC1/e_eeprom_xmc1.c ****     
 542:../Dave/Generated/E_EEPROM_XMC1/e_eeprom_xmc1.c ****     if (data_ptr->gc_state == E_EEPROM_XMC1_GC_FAIL)
 732              	 .loc 2 542 0
 733 002c 3A68     	 ldr r2,[r7]
 734 002e AE23     	 mov r3,#174
 735 0030 5B00     	 lsl r3,r3,#1
 736 0032 D358     	 ldr r3,[r2,r3]
 737 0034 092B     	 cmp r3,#9
 738 0036 03D1     	 bne .L34
 543:../Dave/Generated/E_EEPROM_XMC1/e_eeprom_xmc1.c ****     {
 544:../Dave/Generated/E_EEPROM_XMC1/e_eeprom_xmc1.c ****       status = E_EEPROM_XMC1_OPERATION_STATUS_FAILURE;
 739              	 .loc 2 544 0
 740 0038 FB1D     	 add r3,r7,#7
 741 003a 0122     	 mov r2,#1
 742 003c 1A70     	 strb r2,[r3]
 743 003e 02E0     	 b .L33
 744              	.L34:
 545:../Dave/Generated/E_EEPROM_XMC1/e_eeprom_xmc1.c ****     }
 546:../Dave/Generated/E_EEPROM_XMC1/e_eeprom_xmc1.c ****     else
 547:../Dave/Generated/E_EEPROM_XMC1/e_eeprom_xmc1.c ****     {
 548:../Dave/Generated/E_EEPROM_XMC1/e_eeprom_xmc1.c ****       status = E_EEPROM_XMC1_OPERATION_STATUS_SUCCESS;
 745              	 .loc 2 548 0
 746 0040 FB1D     	 add r3,r7,#7
 747 0042 0022     	 mov r2,#0
 748 0044 1A70     	 strb r2,[r3]
 749              	.L33:
 549:../Dave/Generated/E_EEPROM_XMC1/e_eeprom_xmc1.c ****     }
 550:../Dave/Generated/E_EEPROM_XMC1/e_eeprom_xmc1.c ****   }
 551:../Dave/Generated/E_EEPROM_XMC1/e_eeprom_xmc1.c ****   
 552:../Dave/Generated/E_EEPROM_XMC1/e_eeprom_xmc1.c ****   return((E_EEPROM_XMC1_OPERATION_STATUS_t)status);
 750              	 .loc 2 552 0
 751 0046 FB1D     	 add r3,r7,#7
 752 0048 1B78     	 ldrb r3,[r3]
 553:../Dave/Generated/E_EEPROM_XMC1/e_eeprom_xmc1.c **** }
 753              	 .loc 2 553 0
 754 004a 181C     	 mov r0,r3
 755 004c BD46     	 mov sp,r7
 756 004e 02B0     	 add sp,sp,#8
 757              	 
 758 0050 80BD     	 pop {r7,pc}
 759              	.L37:
 760 0052 C046     	 .align 2
 761              	.L36:
 762 0054 00000000 	 .word E_EEPROM_XMC1_0
 763              	 .cfi_endproc
 764              	.LFE54:
 766              	 .section .text.E_EEPROM_XMC1_GetStatus,"ax",%progbits
 767              	 .align 2
 768              	 .global E_EEPROM_XMC1_GetStatus
 769              	 .code 16
 770              	 .thumb_func
 772              	E_EEPROM_XMC1_GetStatus:
 773              	.LFB55:
 554:../Dave/Generated/E_EEPROM_XMC1/e_eeprom_xmc1.c **** 
 555:../Dave/Generated/E_EEPROM_XMC1/e_eeprom_xmc1.c **** /*
 556:../Dave/Generated/E_EEPROM_XMC1/e_eeprom_xmc1.c ****  * Parameters(IN)  : void
 557:../Dave/Generated/E_EEPROM_XMC1/e_eeprom_xmc1.c ****  *
 558:../Dave/Generated/E_EEPROM_XMC1/e_eeprom_xmc1.c ****  * Return value    : E_EEPROM_XMC1_STATUS_t
 559:../Dave/Generated/E_EEPROM_XMC1/e_eeprom_xmc1.c ****  *
 560:../Dave/Generated/E_EEPROM_XMC1/e_eeprom_xmc1.c ****  * Description     : This function shall return the status of the APP
 561:../Dave/Generated/E_EEPROM_XMC1/e_eeprom_xmc1.c ****  */
 562:../Dave/Generated/E_EEPROM_XMC1/e_eeprom_xmc1.c **** E_EEPROM_XMC1_STATUS_t E_EEPROM_XMC1_GetStatus(void)
 563:../Dave/Generated/E_EEPROM_XMC1/e_eeprom_xmc1.c **** {
 774              	 .loc 2 563 0
 775              	 .cfi_startproc
 776 0000 80B5     	 push {r7,lr}
 777              	.LCFI24:
 778              	 .cfi_def_cfa_offset 8
 779              	 .cfi_offset 7,-8
 780              	 .cfi_offset 14,-4
 781 0002 82B0     	 sub sp,sp,#8
 782              	.LCFI25:
 783              	 .cfi_def_cfa_offset 16
 784 0004 00AF     	 add r7,sp,#0
 785              	.LCFI26:
 786              	 .cfi_def_cfa_register 7
 564:../Dave/Generated/E_EEPROM_XMC1/e_eeprom_xmc1.c ****   E_EEPROM_XMC1_STATUS_t status;
 565:../Dave/Generated/E_EEPROM_XMC1/e_eeprom_xmc1.c ****   E_EEPROM_XMC1_DATA_t *data_ptr;
 566:../Dave/Generated/E_EEPROM_XMC1/e_eeprom_xmc1.c ****   data_ptr = (E_EEPROM_XMC1_DATA_t*)(void*)(E_EEPROM_XMC1_HANDLE_PTR->data_ptr);
 787              	 .loc 2 566 0
 788 0006 104B     	 ldr r3,.L43
 789 0008 5B68     	 ldr r3,[r3,#4]
 790 000a 3B60     	 str r3,[r7]
 567:../Dave/Generated/E_EEPROM_XMC1/e_eeprom_xmc1.c ****   
 568:../Dave/Generated/E_EEPROM_XMC1/e_eeprom_xmc1.c ****   /* If the GC/InitGC has failed */
 569:../Dave/Generated/E_EEPROM_XMC1/e_eeprom_xmc1.c ****   if (data_ptr->gc_state == E_EEPROM_XMC1_GC_IDLE)
 791              	 .loc 2 569 0
 792 000c 3A68     	 ldr r2,[r7]
 793 000e AE23     	 mov r3,#174
 794 0010 5B00     	 lsl r3,r3,#1
 795 0012 D358     	 ldr r3,[r2,r3]
 796 0014 0A2B     	 cmp r3,#10
 797 0016 03D1     	 bne .L39
 570:../Dave/Generated/E_EEPROM_XMC1/e_eeprom_xmc1.c ****   {
 571:../Dave/Generated/E_EEPROM_XMC1/e_eeprom_xmc1.c ****      status = E_EEPROM_XMC1_STATUS_IDLE;
 798              	 .loc 2 571 0
 799 0018 FB1D     	 add r3,r7,#7
 800 001a 0322     	 mov r2,#3
 801 001c 1A70     	 strb r2,[r3]
 802 001e 0CE0     	 b .L40
 803              	.L39:
 572:../Dave/Generated/E_EEPROM_XMC1/e_eeprom_xmc1.c ****   }
 573:../Dave/Generated/E_EEPROM_XMC1/e_eeprom_xmc1.c ****   else if (data_ptr->gc_state == E_EEPROM_XMC1_GC_FAIL)
 804              	 .loc 2 573 0
 805 0020 3A68     	 ldr r2,[r7]
 806 0022 AE23     	 mov r3,#174
 807 0024 5B00     	 lsl r3,r3,#1
 808 0026 D358     	 ldr r3,[r2,r3]
 809 0028 092B     	 cmp r3,#9
 810 002a 03D1     	 bne .L41
 574:../Dave/Generated/E_EEPROM_XMC1/e_eeprom_xmc1.c ****   {
 575:../Dave/Generated/E_EEPROM_XMC1/e_eeprom_xmc1.c ****      status = E_EEPROM_XMC1_STATUS_FAILURE;
 811              	 .loc 2 575 0
 812 002c FB1D     	 add r3,r7,#7
 813 002e 0122     	 mov r2,#1
 814 0030 1A70     	 strb r2,[r3]
 815 0032 02E0     	 b .L40
 816              	.L41:
 576:../Dave/Generated/E_EEPROM_XMC1/e_eeprom_xmc1.c ****   }
 577:../Dave/Generated/E_EEPROM_XMC1/e_eeprom_xmc1.c ****   else
 578:../Dave/Generated/E_EEPROM_XMC1/e_eeprom_xmc1.c ****   {
 579:../Dave/Generated/E_EEPROM_XMC1/e_eeprom_xmc1.c ****      status = E_EEPROM_XMC1_STATUS_BUSY;
 817              	 .loc 2 579 0
 818 0034 FB1D     	 add r3,r7,#7
 819 0036 0422     	 mov r2,#4
 820 0038 1A70     	 strb r2,[r3]
 821              	.L40:
 580:../Dave/Generated/E_EEPROM_XMC1/e_eeprom_xmc1.c ****   }
 581:../Dave/Generated/E_EEPROM_XMC1/e_eeprom_xmc1.c ****   
 582:../Dave/Generated/E_EEPROM_XMC1/e_eeprom_xmc1.c ****   return (status);
 822              	 .loc 2 582 0
 823 003a FB1D     	 add r3,r7,#7
 824 003c 1B78     	 ldrb r3,[r3]
 583:../Dave/Generated/E_EEPROM_XMC1/e_eeprom_xmc1.c **** }
 825              	 .loc 2 583 0
 826 003e 181C     	 mov r0,r3
 827 0040 BD46     	 mov sp,r7
 828 0042 02B0     	 add sp,sp,#8
 829              	 
 830 0044 80BD     	 pop {r7,pc}
 831              	.L44:
 832 0046 C046     	 .align 2
 833              	.L43:
 834 0048 00000000 	 .word E_EEPROM_XMC1_0
 835              	 .cfi_endproc
 836              	.LFE55:
 838              	 .section .text.E_EEPROM_XMC1_IsGarbageCollectionNeeded,"ax",%progbits
 839              	 .align 2
 840              	 .global E_EEPROM_XMC1_IsGarbageCollectionNeeded
 841              	 .code 16
 842              	 .thumb_func
 844              	E_EEPROM_XMC1_IsGarbageCollectionNeeded:
 845              	.LFB56:
 584:../Dave/Generated/E_EEPROM_XMC1/e_eeprom_xmc1.c **** 
 585:../Dave/Generated/E_EEPROM_XMC1/e_eeprom_xmc1.c **** /*This function returns the whether the block can be fit inside the bank or it needs a garbage coll
 586:../Dave/Generated/E_EEPROM_XMC1/e_eeprom_xmc1.c **** bool E_EEPROM_XMC1_IsGarbageCollectionNeeded(uint8_t block_number)
 587:../Dave/Generated/E_EEPROM_XMC1/e_eeprom_xmc1.c **** {
 846              	 .loc 2 587 0
 847              	 .cfi_startproc
 848 0000 80B5     	 push {r7,lr}
 849              	.LCFI27:
 850              	 .cfi_def_cfa_offset 8
 851              	 .cfi_offset 7,-8
 852              	 .cfi_offset 14,-4
 853 0002 88B0     	 sub sp,sp,#32
 854              	.LCFI28:
 855              	 .cfi_def_cfa_offset 40
 856 0004 00AF     	 add r7,sp,#0
 857              	.LCFI29:
 858              	 .cfi_def_cfa_register 7
 859 0006 021C     	 mov r2,r0
 860 0008 FB1D     	 add r3,r7,#7
 861 000a 1A70     	 strb r2,[r3]
 588:../Dave/Generated/E_EEPROM_XMC1/e_eeprom_xmc1.c ****   bool status;
 589:../Dave/Generated/E_EEPROM_XMC1/e_eeprom_xmc1.c ****   uint32_t flash_blocks;
 590:../Dave/Generated/E_EEPROM_XMC1/e_eeprom_xmc1.c ****   uint32_t user_block_index;
 591:../Dave/Generated/E_EEPROM_XMC1/e_eeprom_xmc1.c ****   uint32_t remaining_blocks;
 592:../Dave/Generated/E_EEPROM_XMC1/e_eeprom_xmc1.c ****   E_EEPROM_XMC1_BLOCK_t *block_ptr;
 593:../Dave/Generated/E_EEPROM_XMC1/e_eeprom_xmc1.c **** 
 594:../Dave/Generated/E_EEPROM_XMC1/e_eeprom_xmc1.c ****   status = false;
 862              	 .loc 2 594 0
 863 000c 1F23     	 mov r3,#31
 864 000e FB18     	 add r3,r7,r3
 865 0010 0022     	 mov r2,#0
 866 0012 1A70     	 strb r2,[r3]
 595:../Dave/Generated/E_EEPROM_XMC1/e_eeprom_xmc1.c ****   user_block_index = E_EEPROM_XMC1_lGetUsrBlockIndex(block_number);
 867              	 .loc 2 595 0
 868 0014 FB1D     	 add r3,r7,#7
 869 0016 1B78     	 ldrb r3,[r3]
 870 0018 181C     	 mov r0,r3
 871 001a FFF7FEFF 	 bl E_EEPROM_XMC1_lGetUsrBlockIndex
 872 001e 031C     	 mov r3,r0
 873 0020 BB61     	 str r3,[r7,#24]
 596:../Dave/Generated/E_EEPROM_XMC1/e_eeprom_xmc1.c ****   block_ptr = E_EEPROM_XMC1_HANDLE_PTR->block_config_ptr + user_block_index;
 874              	 .loc 2 596 0
 875 0022 104B     	 ldr r3,.L48
 876 0024 1A68     	 ldr r2,[r3]
 877 0026 BB69     	 ldr r3,[r7,#24]
 878 0028 DB00     	 lsl r3,r3,#3
 879 002a D318     	 add r3,r2,r3
 880 002c 7B61     	 str r3,[r7,#20]
 597:../Dave/Generated/E_EEPROM_XMC1/e_eeprom_xmc1.c **** 
 598:../Dave/Generated/E_EEPROM_XMC1/e_eeprom_xmc1.c ****   XMC_ASSERT("E_EEPROM_XMC1_IsGarbageCollectionNeeded:Wrong Block Number", (user_block_index  !=
 599:../Dave/Generated/E_EEPROM_XMC1/e_eeprom_xmc1.c ****                                                                             E_EEPROM_XMC1_LOG_BLOCK
 600:../Dave/Generated/E_EEPROM_XMC1/e_eeprom_xmc1.c **** 
 601:../Dave/Generated/E_EEPROM_XMC1/e_eeprom_xmc1.c ****   flash_blocks = E_EEPROM_XMC1_lGetDFLASHPhysicalBlocks(block_ptr->size);
 881              	 .loc 2 601 0
 882 002e 7B69     	 ldr r3,[r7,#20]
 883 0030 5B68     	 ldr r3,[r3,#4]
 884 0032 181C     	 mov r0,r3
 885 0034 FFF7FEFF 	 bl E_EEPROM_XMC1_lGetDFLASHPhysicalBlocks
 886 0038 031C     	 mov r3,r0
 887 003a 3B61     	 str r3,[r7,#16]
 602:../Dave/Generated/E_EEPROM_XMC1/e_eeprom_xmc1.c ****   remaining_blocks = E_EEPROM_XMC1_lGetFreeDFLASHBlocks();
 888              	 .loc 2 602 0
 889 003c FFF7FEFF 	 bl E_EEPROM_XMC1_lGetFreeDFLASHBlocks
 890 0040 031C     	 mov r3,r0
 891 0042 FB60     	 str r3,[r7,#12]
 603:../Dave/Generated/E_EEPROM_XMC1/e_eeprom_xmc1.c **** 
 604:../Dave/Generated/E_EEPROM_XMC1/e_eeprom_xmc1.c ****   if (remaining_blocks < flash_blocks)
 892              	 .loc 2 604 0
 893 0044 FA68     	 ldr r2,[r7,#12]
 894 0046 3B69     	 ldr r3,[r7,#16]
 895 0048 9A42     	 cmp r2,r3
 896 004a 03D2     	 bcs .L46
 605:../Dave/Generated/E_EEPROM_XMC1/e_eeprom_xmc1.c ****   {
 606:../Dave/Generated/E_EEPROM_XMC1/e_eeprom_xmc1.c ****      status = true;
 897              	 .loc 2 606 0
 898 004c 1F23     	 mov r3,#31
 899 004e FB18     	 add r3,r7,r3
 900 0050 0122     	 mov r2,#1
 901 0052 1A70     	 strb r2,[r3]
 902              	.L46:
 607:../Dave/Generated/E_EEPROM_XMC1/e_eeprom_xmc1.c ****   }
 608:../Dave/Generated/E_EEPROM_XMC1/e_eeprom_xmc1.c **** 
 609:../Dave/Generated/E_EEPROM_XMC1/e_eeprom_xmc1.c ****   return (status);
 903              	 .loc 2 609 0
 904 0054 1F23     	 mov r3,#31
 905 0056 FB18     	 add r3,r7,r3
 906 0058 1B78     	 ldrb r3,[r3]
 610:../Dave/Generated/E_EEPROM_XMC1/e_eeprom_xmc1.c **** }
 907              	 .loc 2 610 0
 908 005a 181C     	 mov r0,r3
 909 005c BD46     	 mov sp,r7
 910 005e 08B0     	 add sp,sp,#32
 911              	 
 912 0060 80BD     	 pop {r7,pc}
 913              	.L49:
 914 0062 C046     	 .align 2
 915              	.L48:
 916 0064 00000000 	 .word E_EEPROM_XMC1_0
 917              	 .cfi_endproc
 918              	.LFE56:
 920              	 .section .text.E_EEPROM_XMC1_GetPreviousData,"ax",%progbits
 921              	 .align 2
 922              	 .global E_EEPROM_XMC1_GetPreviousData
 923              	 .code 16
 924              	 .thumb_func
 926              	E_EEPROM_XMC1_GetPreviousData:
 927              	.LFB57:
 611:../Dave/Generated/E_EEPROM_XMC1/e_eeprom_xmc1.c **** 
 612:../Dave/Generated/E_EEPROM_XMC1/e_eeprom_xmc1.c **** #ifdef E_EEPROM_XMC1_CRC_SW_ENABLED
 613:../Dave/Generated/E_EEPROM_XMC1/e_eeprom_xmc1.c **** 
 614:../Dave/Generated/E_EEPROM_XMC1/e_eeprom_xmc1.c **** /*
 615:../Dave/Generated/E_EEPROM_XMC1/e_eeprom_xmc1.c ****  * Parameters(IN)  : block_number  - Number of logical block
 616:../Dave/Generated/E_EEPROM_XMC1/e_eeprom_xmc1.c ****  *                   data_buffer_ptr - Pointer to user data buffer
 617:../Dave/Generated/E_EEPROM_XMC1/e_eeprom_xmc1.c ****  *
 618:../Dave/Generated/E_EEPROM_XMC1/e_eeprom_xmc1.c ****  * Return value    : E_EEPROM_XMC1_OPERATION_STATUS_t
 619:../Dave/Generated/E_EEPROM_XMC1/e_eeprom_xmc1.c ****  *
 620:../Dave/Generated/E_EEPROM_XMC1/e_eeprom_xmc1.c ****  * Description     : It reads the complete data block from the flash and compare the CRC from heade
 621:../Dave/Generated/E_EEPROM_XMC1/e_eeprom_xmc1.c ****  *                   with the computed CRC using CRC_SW APP. Read from arbitrary location and limit
 622:../Dave/Generated/E_EEPROM_XMC1/e_eeprom_xmc1.c ****  *                   possible under this API.
 623:../Dave/Generated/E_EEPROM_XMC1/e_eeprom_xmc1.c ****  */
 624:../Dave/Generated/E_EEPROM_XMC1/e_eeprom_xmc1.c **** E_EEPROM_XMC1_OPERATION_STATUS_t E_EEPROM_XMC1_VerifyBlockCrcStatus(uint8_t block_number, uint8_t *
 625:../Dave/Generated/E_EEPROM_XMC1/e_eeprom_xmc1.c **** {
 626:../Dave/Generated/E_EEPROM_XMC1/e_eeprom_xmc1.c ****   uint32_t block_size;
 627:../Dave/Generated/E_EEPROM_XMC1/e_eeprom_xmc1.c ****   uint32_t user_block_index;
 628:../Dave/Generated/E_EEPROM_XMC1/e_eeprom_xmc1.c ****   E_EEPROM_XMC1_DATA_t *data_ptr;
 629:../Dave/Generated/E_EEPROM_XMC1/e_eeprom_xmc1.c ****   E_EEPROM_XMC1_OPERATION_STATUS_t status;
 630:../Dave/Generated/E_EEPROM_XMC1/e_eeprom_xmc1.c ****   
 631:../Dave/Generated/E_EEPROM_XMC1/e_eeprom_xmc1.c ****   data_ptr = (E_EEPROM_XMC1_DATA_t*)(void*)(E_EEPROM_XMC1_HANDLE_PTR->data_ptr);
 632:../Dave/Generated/E_EEPROM_XMC1/e_eeprom_xmc1.c ****   user_block_index = (uint32_t)E_EEPROM_XMC1_lGetUsrBlockIndex( block_number);
 633:../Dave/Generated/E_EEPROM_XMC1/e_eeprom_xmc1.c ****   block_size = E_EEPROM_XMC1_HANDLE_PTR->block_config_ptr[user_block_index].size;
 634:../Dave/Generated/E_EEPROM_XMC1/e_eeprom_xmc1.c ****   
 635:../Dave/Generated/E_EEPROM_XMC1/e_eeprom_xmc1.c ****   XMC_ASSERT("E_EEPROM_XMC1_ReadBlockWithCRC:Wrong Block Number", (user_block_index  !=
 636:../Dave/Generated/E_EEPROM_XMC1/e_eeprom_xmc1.c ****                                                                    E_EEPROM_XMC1_LOG_BLOCK_NOT_FOUN
 637:../Dave/Generated/E_EEPROM_XMC1/e_eeprom_xmc1.c ****   XMC_ASSERT("E_EEPROM_XMC1_ReadBlockWithCRC:Invalid Buffer Pointer", (data_buffer_ptr != NULL));
 638:../Dave/Generated/E_EEPROM_XMC1/e_eeprom_xmc1.c ****   
 639:../Dave/Generated/E_EEPROM_XMC1/e_eeprom_xmc1.c ****   status = E_EEPROM_XMC1_OPERATION_STATUS_NOT_ALLOWED;
 640:../Dave/Generated/E_EEPROM_XMC1/e_eeprom_xmc1.c **** 
 641:../Dave/Generated/E_EEPROM_XMC1/e_eeprom_xmc1.c ****   /*Execute only if GC process is in IDLE state */
 642:../Dave/Generated/E_EEPROM_XMC1/e_eeprom_xmc1.c ****   if ((data_ptr->gc_state) == E_EEPROM_XMC1_GC_IDLE)
 643:../Dave/Generated/E_EEPROM_XMC1/e_eeprom_xmc1.c ****   {
 644:../Dave/Generated/E_EEPROM_XMC1/e_eeprom_xmc1.c ****     if (data_ptr->block_info[user_block_index].status.valid == 0U) /* If cache says Inconsistent */
 645:../Dave/Generated/E_EEPROM_XMC1/e_eeprom_xmc1.c ****     {
 646:../Dave/Generated/E_EEPROM_XMC1/e_eeprom_xmc1.c ****       status = E_EEPROM_XMC1_OPERATION_STATUS_INVALID_BLOCK;
 647:../Dave/Generated/E_EEPROM_XMC1/e_eeprom_xmc1.c ****     }
 648:../Dave/Generated/E_EEPROM_XMC1/e_eeprom_xmc1.c ****     else if (data_ptr->block_info[user_block_index].status.consistent == 0U) /* If cache says Inval
 649:../Dave/Generated/E_EEPROM_XMC1/e_eeprom_xmc1.c ****     {
 650:../Dave/Generated/E_EEPROM_XMC1/e_eeprom_xmc1.c ****       status = E_EEPROM_XMC1_OPERATION_STATUS_INCONSISTENT_BLOCK;
 651:../Dave/Generated/E_EEPROM_XMC1/e_eeprom_xmc1.c ****     }
 652:../Dave/Generated/E_EEPROM_XMC1/e_eeprom_xmc1.c ****     else
 653:../Dave/Generated/E_EEPROM_XMC1/e_eeprom_xmc1.c ****     {
 654:../Dave/Generated/E_EEPROM_XMC1/e_eeprom_xmc1.c ****       data_ptr->read_start_address = data_ptr->block_info[user_block_index].address ;
 655:../Dave/Generated/E_EEPROM_XMC1/e_eeprom_xmc1.c ****       /* Call local function to read the specified block of data from flash */
 656:../Dave/Generated/E_EEPROM_XMC1/e_eeprom_xmc1.c ****       status = (E_EEPROM_XMC1_OPERATION_STATUS_t)E_EEPROM_XMC1_lReadBlockContents(data_buffer_ptr,
 657:../Dave/Generated/E_EEPROM_XMC1/e_eeprom_xmc1.c ****                                                                                   block_size , 0U);
 658:../Dave/Generated/E_EEPROM_XMC1/e_eeprom_xmc1.c **** 
 659:../Dave/Generated/E_EEPROM_XMC1/e_eeprom_xmc1.c ****       if (status == E_EEPROM_XMC1_OPERATION_STATUS_SUCCESS)
 660:../Dave/Generated/E_EEPROM_XMC1/e_eeprom_xmc1.c ****       {
 661:../Dave/Generated/E_EEPROM_XMC1/e_eeprom_xmc1.c ****         /* Call local function to cross check the CRC, No ECC check done again for the CRC read fun
 662:../Dave/Generated/E_EEPROM_XMC1/e_eeprom_xmc1.c ****         status = (E_EEPROM_XMC1_OPERATION_STATUS_t)E_EEPROM_XMC1_lReadBlockCrcStatus(block_number, 
 663:../Dave/Generated/E_EEPROM_XMC1/e_eeprom_xmc1.c ****                                                                                      block_size);
 664:../Dave/Generated/E_EEPROM_XMC1/e_eeprom_xmc1.c ****       }
 665:../Dave/Generated/E_EEPROM_XMC1/e_eeprom_xmc1.c ****       else
 666:../Dave/Generated/E_EEPROM_XMC1/e_eeprom_xmc1.c ****       {
 667:../Dave/Generated/E_EEPROM_XMC1/e_eeprom_xmc1.c ****         status = E_EEPROM_XMC1_OPERATION_STATUS_FAILURE;
 668:../Dave/Generated/E_EEPROM_XMC1/e_eeprom_xmc1.c ****       }
 669:../Dave/Generated/E_EEPROM_XMC1/e_eeprom_xmc1.c ****     }
 670:../Dave/Generated/E_EEPROM_XMC1/e_eeprom_xmc1.c ****   }
 671:../Dave/Generated/E_EEPROM_XMC1/e_eeprom_xmc1.c ****   return((E_EEPROM_XMC1_OPERATION_STATUS_t)status);
 672:../Dave/Generated/E_EEPROM_XMC1/e_eeprom_xmc1.c **** }
 673:../Dave/Generated/E_EEPROM_XMC1/e_eeprom_xmc1.c **** #endif
 674:../Dave/Generated/E_EEPROM_XMC1/e_eeprom_xmc1.c **** 
 675:../Dave/Generated/E_EEPROM_XMC1/e_eeprom_xmc1.c **** /*
 676:../Dave/Generated/E_EEPROM_XMC1/e_eeprom_xmc1.c ****  * Parameters(IN)  :
 677:../Dave/Generated/E_EEPROM_XMC1/e_eeprom_xmc1.c ****  *                   block_number   - Number of logical block
 678:../Dave/Generated/E_EEPROM_XMC1/e_eeprom_xmc1.c ****  *                   offset       - Start Location for Read start
 679:../Dave/Generated/E_EEPROM_XMC1/e_eeprom_xmc1.c ****  *                   data_buffer_ptr - Pointer to user data buffer
 680:../Dave/Generated/E_EEPROM_XMC1/e_eeprom_xmc1.c ****  *                   length       - End Location for read completion
 681:../Dave/Generated/E_EEPROM_XMC1/e_eeprom_xmc1.c ****  *
 682:../Dave/Generated/E_EEPROM_XMC1/e_eeprom_xmc1.c ****  * Return value    : E_EEPROM_XMC1_STATUS_t
 683:../Dave/Generated/E_EEPROM_XMC1/e_eeprom_xmc1.c ****  *
 684:../Dave/Generated/E_EEPROM_XMC1/e_eeprom_xmc1.c ****  * Description     : This function shall read the just previous copy of the particular block when r
 685:../Dave/Generated/E_EEPROM_XMC1/e_eeprom_xmc1.c ****  *                   function is used commonly when the latest copy gets corrupted.
 686:../Dave/Generated/E_EEPROM_XMC1/e_eeprom_xmc1.c ****  */
 687:../Dave/Generated/E_EEPROM_XMC1/e_eeprom_xmc1.c **** E_EEPROM_XMC1_OPERATION_STATUS_t E_EEPROM_XMC1_GetPreviousData(uint8_t block_number,
 688:../Dave/Generated/E_EEPROM_XMC1/e_eeprom_xmc1.c ****                                                                uint32_t offset,
 689:../Dave/Generated/E_EEPROM_XMC1/e_eeprom_xmc1.c ****                                                                uint8_t *data_buffer_ptr,
 690:../Dave/Generated/E_EEPROM_XMC1/e_eeprom_xmc1.c ****                                                                uint32_t length)
 691:../Dave/Generated/E_EEPROM_XMC1/e_eeprom_xmc1.c **** {
 928              	 .loc 2 691 0
 929              	 .cfi_startproc
 930 0000 80B5     	 push {r7,lr}
 931              	.LCFI30:
 932              	 .cfi_def_cfa_offset 8
 933              	 .cfi_offset 7,-8
 934              	 .cfi_offset 14,-4
 935 0002 8AB0     	 sub sp,sp,#40
 936              	.LCFI31:
 937              	 .cfi_def_cfa_offset 48
 938 0004 00AF     	 add r7,sp,#0
 939              	.LCFI32:
 940              	 .cfi_def_cfa_register 7
 941 0006 B960     	 str r1,[r7,#8]
 942 0008 7A60     	 str r2,[r7,#4]
 943 000a 3B60     	 str r3,[r7]
 944 000c 0F23     	 mov r3,#15
 945 000e FB18     	 add r3,r7,r3
 946 0010 021C     	 add r2,r0,#0
 947 0012 1A70     	 strb r2,[r3]
 692:../Dave/Generated/E_EEPROM_XMC1/e_eeprom_xmc1.c ****   uint32_t block_size;
 693:../Dave/Generated/E_EEPROM_XMC1/e_eeprom_xmc1.c ****   uint32_t read_start_addr;
 694:../Dave/Generated/E_EEPROM_XMC1/e_eeprom_xmc1.c ****   uint32_t user_block_index;
 695:../Dave/Generated/E_EEPROM_XMC1/e_eeprom_xmc1.c ****   E_EEPROM_XMC1_DATA_t *data_ptr;
 696:../Dave/Generated/E_EEPROM_XMC1/e_eeprom_xmc1.c ****   E_EEPROM_XMC1_OPERATION_STATUS_t status;
 697:../Dave/Generated/E_EEPROM_XMC1/e_eeprom_xmc1.c ****   
 698:../Dave/Generated/E_EEPROM_XMC1/e_eeprom_xmc1.c ****   data_ptr = (E_EEPROM_XMC1_DATA_t*)(void*)(E_EEPROM_XMC1_HANDLE_PTR->data_ptr);
 948              	 .loc 2 698 0
 949 0014 2A4B     	 ldr r3,.L57
 950 0016 5B68     	 ldr r3,[r3,#4]
 951 0018 3B62     	 str r3,[r7,#32]
 699:../Dave/Generated/E_EEPROM_XMC1/e_eeprom_xmc1.c ****   user_block_index = E_EEPROM_XMC1_lGetUsrBlockIndex(block_number);
 952              	 .loc 2 699 0
 953 001a 0F23     	 mov r3,#15
 954 001c FB18     	 add r3,r7,r3
 955 001e 1B78     	 ldrb r3,[r3]
 956 0020 181C     	 mov r0,r3
 957 0022 FFF7FEFF 	 bl E_EEPROM_XMC1_lGetUsrBlockIndex
 958 0026 031C     	 mov r3,r0
 959 0028 FB61     	 str r3,[r7,#28]
 700:../Dave/Generated/E_EEPROM_XMC1/e_eeprom_xmc1.c ****   block_size = E_EEPROM_XMC1_HANDLE_PTR->block_config_ptr[user_block_index].size;
 960              	 .loc 2 700 0
 961 002a 254B     	 ldr r3,.L57
 962 002c 1A68     	 ldr r2,[r3]
 963 002e FB69     	 ldr r3,[r7,#28]
 964 0030 DB00     	 lsl r3,r3,#3
 965 0032 D318     	 add r3,r2,r3
 966 0034 5B68     	 ldr r3,[r3,#4]
 967 0036 BB61     	 str r3,[r7,#24]
 701:../Dave/Generated/E_EEPROM_XMC1/e_eeprom_xmc1.c ****   
 702:../Dave/Generated/E_EEPROM_XMC1/e_eeprom_xmc1.c ****   XMC_ASSERT("E_EEPROM_XMC1_GetPreviousData:Wrong Block Number", (user_block_index  !=
 703:../Dave/Generated/E_EEPROM_XMC1/e_eeprom_xmc1.c ****                                                                   E_EEPROM_XMC1_LOG_BLOCK_NOT_FOUND
 704:../Dave/Generated/E_EEPROM_XMC1/e_eeprom_xmc1.c ****   XMC_ASSERT("E_EEPROM_XMC1_GetPreviousData:Invalid Buffer Pointer", (data_buffer_ptr != NULL));
 705:../Dave/Generated/E_EEPROM_XMC1/e_eeprom_xmc1.c ****   
 706:../Dave/Generated/E_EEPROM_XMC1/e_eeprom_xmc1.c ****   /*Execute only if GC process is in IDLE state */
 707:../Dave/Generated/E_EEPROM_XMC1/e_eeprom_xmc1.c ****   if ((data_ptr->gc_state == E_EEPROM_XMC1_GC_IDLE) && (((uint32_t)offset + length) <= block_size))
 968              	 .loc 2 707 0
 969 0038 3A6A     	 ldr r2,[r7,#32]
 970 003a AE23     	 mov r3,#174
 971 003c 5B00     	 lsl r3,r3,#1
 972 003e D358     	 ldr r3,[r2,r3]
 973 0040 0A2B     	 cmp r3,#10
 974 0042 31D1     	 bne .L51
 975              	 .loc 2 707 0 is_stmt 0 discriminator 1
 976 0044 BA68     	 ldr r2,[r7,#8]
 977 0046 3B68     	 ldr r3,[r7]
 978 0048 D218     	 add r2,r2,r3
 979 004a BB69     	 ldr r3,[r7,#24]
 980 004c 9A42     	 cmp r2,r3
 981 004e 2BD8     	 bhi .L51
 708:../Dave/Generated/E_EEPROM_XMC1/e_eeprom_xmc1.c ****   {
 709:../Dave/Generated/E_EEPROM_XMC1/e_eeprom_xmc1.c ****     
 710:../Dave/Generated/E_EEPROM_XMC1/e_eeprom_xmc1.c ****     read_start_addr = E_EEPROM_XMC1_lGetPrevData(block_number);
 982              	 .loc 2 710 0 is_stmt 1
 983 0050 0F23     	 mov r3,#15
 984 0052 FB18     	 add r3,r7,r3
 985 0054 1B78     	 ldrb r3,[r3]
 986 0056 181C     	 mov r0,r3
 987 0058 FFF7FEFF 	 bl E_EEPROM_XMC1_lGetPrevData
 988 005c 031C     	 mov r3,r0
 989 005e 7B61     	 str r3,[r7,#20]
 711:../Dave/Generated/E_EEPROM_XMC1/e_eeprom_xmc1.c ****     
 712:../Dave/Generated/E_EEPROM_XMC1/e_eeprom_xmc1.c ****     if (read_start_addr != 0U )
 990              	 .loc 2 712 0
 991 0060 7B69     	 ldr r3,[r7,#20]
 992 0062 002B     	 cmp r3,#0
 993 0064 1AD0     	 beq .L52
 713:../Dave/Generated/E_EEPROM_XMC1/e_eeprom_xmc1.c ****     {
 714:../Dave/Generated/E_EEPROM_XMC1/e_eeprom_xmc1.c ****       data_ptr->read_start_address =  read_start_addr;
 994              	 .loc 2 714 0
 995 0066 3A6A     	 ldr r2,[r7,#32]
 996 0068 BA23     	 mov r3,#186
 997 006a 5B00     	 lsl r3,r3,#1
 998 006c 7969     	 ldr r1,[r7,#20]
 999 006e D150     	 str r1,[r2,r3]
 715:../Dave/Generated/E_EEPROM_XMC1/e_eeprom_xmc1.c ****       
 716:../Dave/Generated/E_EEPROM_XMC1/e_eeprom_xmc1.c ****       /* Call local function to read the specified block of data from flash */
 717:../Dave/Generated/E_EEPROM_XMC1/e_eeprom_xmc1.c ****       status = (E_EEPROM_XMC1_OPERATION_STATUS_t)E_EEPROM_XMC1_lReadBlockContents(data_buffer_ptr, 
 1000              	 .loc 2 717 0
 1001 0070 7968     	 ldr r1,[r7,#4]
 1002 0072 3A68     	 ldr r2,[r7]
 1003 0074 BB68     	 ldr r3,[r7,#8]
 1004 0076 081C     	 mov r0,r1
 1005 0078 111C     	 mov r1,r2
 1006 007a 1A1C     	 mov r2,r3
 1007 007c FFF7FEFF 	 bl E_EEPROM_XMC1_lReadBlockContents
 1008 0080 021C     	 mov r2,r0
 1009 0082 2723     	 mov r3,#39
 1010 0084 FB18     	 add r3,r7,r3
 1011 0086 1A70     	 strb r2,[r3]
 718:../Dave/Generated/E_EEPROM_XMC1/e_eeprom_xmc1.c ****       if ((uint32_t)status != 0U)
 1012              	 .loc 2 718 0
 1013 0088 2723     	 mov r3,#39
 1014 008a FB18     	 add r3,r7,r3
 1015 008c 1B78     	 ldrb r3,[r3]
 1016 008e 002B     	 cmp r3,#0
 1017 0090 09D0     	 beq .L54
 719:../Dave/Generated/E_EEPROM_XMC1/e_eeprom_xmc1.c ****       {
 720:../Dave/Generated/E_EEPROM_XMC1/e_eeprom_xmc1.c ****          status = E_EEPROM_XMC1_OPERATION_STATUS_FAILURE;
 1018              	 .loc 2 720 0
 1019 0092 2723     	 mov r3,#39
 1020 0094 FB18     	 add r3,r7,r3
 1021 0096 0122     	 mov r2,#1
 1022 0098 1A70     	 strb r2,[r3]
 712:../Dave/Generated/E_EEPROM_XMC1/e_eeprom_xmc1.c ****     {
 1023              	 .loc 2 712 0
 1024 009a 09E0     	 b .L55
 1025              	.L52:
 721:../Dave/Generated/E_EEPROM_XMC1/e_eeprom_xmc1.c ****       }
 722:../Dave/Generated/E_EEPROM_XMC1/e_eeprom_xmc1.c ****     }
 723:../Dave/Generated/E_EEPROM_XMC1/e_eeprom_xmc1.c ****     else
 724:../Dave/Generated/E_EEPROM_XMC1/e_eeprom_xmc1.c ****     {
 725:../Dave/Generated/E_EEPROM_XMC1/e_eeprom_xmc1.c ****       status = E_EEPROM_XMC1_OPERATION_STATUS_INCONSISTENT_BLOCK;
 1026              	 .loc 2 725 0
 1027 009c 2723     	 mov r3,#39
 1028 009e FB18     	 add r3,r7,r3
 1029 00a0 0222     	 mov r2,#2
 1030 00a2 1A70     	 strb r2,[r3]
 712:../Dave/Generated/E_EEPROM_XMC1/e_eeprom_xmc1.c ****     {
 1031              	 .loc 2 712 0
 1032 00a4 04E0     	 b .L55
 1033              	.L54:
 712:../Dave/Generated/E_EEPROM_XMC1/e_eeprom_xmc1.c ****     {
 1034              	 .loc 2 712 0 is_stmt 0 discriminator 1
 1035 00a6 03E0     	 b .L55
 1036              	.L51:
 726:../Dave/Generated/E_EEPROM_XMC1/e_eeprom_xmc1.c ****     }
 727:../Dave/Generated/E_EEPROM_XMC1/e_eeprom_xmc1.c ****   }
 728:../Dave/Generated/E_EEPROM_XMC1/e_eeprom_xmc1.c ****   else
 729:../Dave/Generated/E_EEPROM_XMC1/e_eeprom_xmc1.c ****   {
 730:../Dave/Generated/E_EEPROM_XMC1/e_eeprom_xmc1.c ****     status = E_EEPROM_XMC1_OPERATION_STATUS_NOT_ALLOWED;
 1037              	 .loc 2 730 0 is_stmt 1
 1038 00a8 2723     	 mov r3,#39
 1039 00aa FB18     	 add r3,r7,r3
 1040 00ac 0522     	 mov r2,#5
 1041 00ae 1A70     	 strb r2,[r3]
 1042              	.L55:
 731:../Dave/Generated/E_EEPROM_XMC1/e_eeprom_xmc1.c ****   }
 732:../Dave/Generated/E_EEPROM_XMC1/e_eeprom_xmc1.c ****   
 733:../Dave/Generated/E_EEPROM_XMC1/e_eeprom_xmc1.c ****   return((E_EEPROM_XMC1_OPERATION_STATUS_t)status);
 1043              	 .loc 2 733 0
 1044 00b0 2723     	 mov r3,#39
 1045 00b2 FB18     	 add r3,r7,r3
 1046 00b4 1B78     	 ldrb r3,[r3]
 734:../Dave/Generated/E_EEPROM_XMC1/e_eeprom_xmc1.c **** }
 1047              	 .loc 2 734 0
 1048 00b6 181C     	 mov r0,r3
 1049 00b8 BD46     	 mov sp,r7
 1050 00ba 0AB0     	 add sp,sp,#40
 1051              	 
 1052 00bc 80BD     	 pop {r7,pc}
 1053              	.L58:
 1054 00be C046     	 .align 2
 1055              	.L57:
 1056 00c0 00000000 	 .word E_EEPROM_XMC1_0
 1057              	 .cfi_endproc
 1058              	.LFE57:
 1060              	 .section .text.E_EEPROM_XMC1_lGetPrevData,"ax",%progbits
 1061              	 .align 2
 1062              	 .code 16
 1063              	 .thumb_func
 1065              	E_EEPROM_XMC1_lGetPrevData:
 1066              	.LFB58:
 735:../Dave/Generated/E_EEPROM_XMC1/e_eeprom_xmc1.c **** 
 736:../Dave/Generated/E_EEPROM_XMC1/e_eeprom_xmc1.c **** 
 737:../Dave/Generated/E_EEPROM_XMC1/e_eeprom_xmc1.c **** /*
 738:../Dave/Generated/E_EEPROM_XMC1/e_eeprom_xmc1.c ****  ***********************************  Private Function Definitions  *******************************
 739:../Dave/Generated/E_EEPROM_XMC1/e_eeprom_xmc1.c ****  */
 740:../Dave/Generated/E_EEPROM_XMC1/e_eeprom_xmc1.c **** 
 741:../Dave/Generated/E_EEPROM_XMC1/e_eeprom_xmc1.c **** 
 742:../Dave/Generated/E_EEPROM_XMC1/e_eeprom_xmc1.c **** /*
 743:../Dave/Generated/E_EEPROM_XMC1/e_eeprom_xmc1.c ****  * Parameters(IN)  : block_number  - User block number / ID
 744:../Dave/Generated/E_EEPROM_XMC1/e_eeprom_xmc1.c ****  *
 745:../Dave/Generated/E_EEPROM_XMC1/e_eeprom_xmc1.c ****  * Return value    : uint32_t - Flash NVM_STATUS register value
 746:../Dave/Generated/E_EEPROM_XMC1/e_eeprom_xmc1.c ****  *
 747:../Dave/Generated/E_EEPROM_XMC1/e_eeprom_xmc1.c ****  * Description     : This function will traverse through the bank and find the previous copy of the
 748:../Dave/Generated/E_EEPROM_XMC1/e_eeprom_xmc1.c ****  */
 749:../Dave/Generated/E_EEPROM_XMC1/e_eeprom_xmc1.c **** static uint32_t E_EEPROM_XMC1_lGetPrevData(uint8_t block_number)
 750:../Dave/Generated/E_EEPROM_XMC1/e_eeprom_xmc1.c **** {
 1067              	 .loc 2 750 0
 1068              	 .cfi_startproc
 1069 0000 80B5     	 push {r7,lr}
 1070              	.LCFI33:
 1071              	 .cfi_def_cfa_offset 8
 1072              	 .cfi_offset 7,-8
 1073              	 .cfi_offset 14,-4
 1074 0002 88B0     	 sub sp,sp,#32
 1075              	.LCFI34:
 1076              	 .cfi_def_cfa_offset 40
 1077 0004 00AF     	 add r7,sp,#0
 1078              	.LCFI35:
 1079              	 .cfi_def_cfa_register 7
 1080 0006 021C     	 mov r2,r0
 1081 0008 FB1D     	 add r3,r7,#7
 1082 000a 1A70     	 strb r2,[r3]
 751:../Dave/Generated/E_EEPROM_XMC1/e_eeprom_xmc1.c ****   uint32_t block_size;
 752:../Dave/Generated/E_EEPROM_XMC1/e_eeprom_xmc1.c ****   uint32_t block_index;
 753:../Dave/Generated/E_EEPROM_XMC1/e_eeprom_xmc1.c ****   uint32_t data_sec_start_addr;
 754:../Dave/Generated/E_EEPROM_XMC1/e_eeprom_xmc1.c ****   uint32_t expected_block_count;
 755:../Dave/Generated/E_EEPROM_XMC1/e_eeprom_xmc1.c ****   uint32_t block_read_start_addr;
 756:../Dave/Generated/E_EEPROM_XMC1/e_eeprom_xmc1.c ****   E_EEPROM_XMC1_DATA_t *data_ptr;
 757:../Dave/Generated/E_EEPROM_XMC1/e_eeprom_xmc1.c ****   
 758:../Dave/Generated/E_EEPROM_XMC1/e_eeprom_xmc1.c ****   data_ptr = (E_EEPROM_XMC1_DATA_t*)(void*)(E_EEPROM_XMC1_HANDLE_PTR->data_ptr);
 1083              	 .loc 2 758 0
 1084 000c 2C4B     	 ldr r3,.L67
 1085 000e 5B68     	 ldr r3,[r3,#4]
 1086 0010 7B61     	 str r3,[r7,#20]
 759:../Dave/Generated/E_EEPROM_XMC1/e_eeprom_xmc1.c ****   
 760:../Dave/Generated/E_EEPROM_XMC1/e_eeprom_xmc1.c ****   /* Get the block details */
 761:../Dave/Generated/E_EEPROM_XMC1/e_eeprom_xmc1.c ****   block_index = (uint32_t)E_EEPROM_XMC1_lGetUsrBlockIndex(block_number);
 1087              	 .loc 2 761 0
 1088 0012 FB1D     	 add r3,r7,#7
 1089 0014 1B78     	 ldrb r3,[r3]
 1090 0016 181C     	 mov r0,r3
 1091 0018 FFF7FEFF 	 bl E_EEPROM_XMC1_lGetUsrBlockIndex
 1092 001c 031C     	 mov r3,r0
 1093 001e 3B61     	 str r3,[r7,#16]
 762:../Dave/Generated/E_EEPROM_XMC1/e_eeprom_xmc1.c ****   block_size = E_EEPROM_XMC1_HANDLE_PTR->block_config_ptr[block_index].size;
 1094              	 .loc 2 762 0
 1095 0020 274B     	 ldr r3,.L67
 1096 0022 1A68     	 ldr r2,[r3]
 1097 0024 3B69     	 ldr r3,[r7,#16]
 1098 0026 DB00     	 lsl r3,r3,#3
 1099 0028 D318     	 add r3,r2,r3
 1100 002a 5B68     	 ldr r3,[r3,#4]
 1101 002c FB60     	 str r3,[r7,#12]
 763:../Dave/Generated/E_EEPROM_XMC1/e_eeprom_xmc1.c ****   expected_block_count = E_EEPROM_XMC1_lGetDFLASHPhysicalBlocks(block_size);
 1102              	 .loc 2 763 0
 1103 002e FB68     	 ldr r3,[r7,#12]
 1104 0030 181C     	 mov r0,r3
 1105 0032 FFF7FEFF 	 bl E_EEPROM_XMC1_lGetDFLASHPhysicalBlocks
 1106 0036 031C     	 mov r3,r0
 1107 0038 BB60     	 str r3,[r7,#8]
 764:../Dave/Generated/E_EEPROM_XMC1/e_eeprom_xmc1.c ****   
 765:../Dave/Generated/E_EEPROM_XMC1/e_eeprom_xmc1.c ****   /* Find the data bank starting address from current Bank to decide when to stop reading of blocks
 766:../Dave/Generated/E_EEPROM_XMC1/e_eeprom_xmc1.c ****   if (data_ptr->current_bank == 0U)
 1108              	 .loc 2 766 0
 1109 003a 7B69     	 ldr r3,[r7,#20]
 1110 003c 1B6A     	 ldr r3,[r3,#32]
 1111 003e 002B     	 cmp r3,#0
 1112 0040 02D1     	 bne .L60
 767:../Dave/Generated/E_EEPROM_XMC1/e_eeprom_xmc1.c ****   {
 768:../Dave/Generated/E_EEPROM_XMC1/e_eeprom_xmc1.c ****     data_sec_start_addr = E_EEPROM_XMC1_FLASH_BANK0_BASE + E_EEPROM_XMC1_DATA_BLOCK_OFFSET;
 1113              	 .loc 2 768 0
 1114 0042 204B     	 ldr r3,.L67+4
 1115 0044 FB61     	 str r3,[r7,#28]
 1116 0046 01E0     	 b .L61
 1117              	.L60:
 769:../Dave/Generated/E_EEPROM_XMC1/e_eeprom_xmc1.c ****   }
 770:../Dave/Generated/E_EEPROM_XMC1/e_eeprom_xmc1.c ****   else
 771:../Dave/Generated/E_EEPROM_XMC1/e_eeprom_xmc1.c ****   {
 772:../Dave/Generated/E_EEPROM_XMC1/e_eeprom_xmc1.c ****     data_sec_start_addr = E_EEPROM_XMC1_FLASH_BANK1_BASE + E_EEPROM_XMC1_DATA_BLOCK_OFFSET;
 1118              	 .loc 2 772 0
 1119 0048 1F4B     	 ldr r3,.L67+8
 1120 004a FB61     	 str r3,[r7,#28]
 1121              	.L61:
 773:../Dave/Generated/E_EEPROM_XMC1/e_eeprom_xmc1.c ****   }
 774:../Dave/Generated/E_EEPROM_XMC1/e_eeprom_xmc1.c ****   
 775:../Dave/Generated/E_EEPROM_XMC1/e_eeprom_xmc1.c ****   block_read_start_addr = data_ptr->block_info[block_index].address;
 1122              	 .loc 2 775 0
 1123 004c 7B69     	 ldr r3,[r7,#20]
 1124 004e 3A69     	 ldr r2,[r7,#16]
 1125 0050 D200     	 lsl r2,r2,#3
 1126 0052 D358     	 ldr r3,[r2,r3]
 1127 0054 BB61     	 str r3,[r7,#24]
 776:../Dave/Generated/E_EEPROM_XMC1/e_eeprom_xmc1.c **** 
 777:../Dave/Generated/E_EEPROM_XMC1/e_eeprom_xmc1.c ****   if (block_read_start_addr >= (data_sec_start_addr + E_EEPROM_XMC1_FLASH_BLOCK_SIZE))
 1128              	 .loc 2 777 0
 1129 0056 FB69     	 ldr r3,[r7,#28]
 1130 0058 1033     	 add r3,r3,#16
 1131 005a 1A1E     	 sub r2,r3,#0
 1132 005c BB69     	 ldr r3,[r7,#24]
 1133 005e 9A42     	 cmp r2,r3
 1134 0060 26D8     	 bhi .L62
 778:../Dave/Generated/E_EEPROM_XMC1/e_eeprom_xmc1.c ****   {
 779:../Dave/Generated/E_EEPROM_XMC1/e_eeprom_xmc1.c ****     block_read_start_addr = E_EEPROM_XMC1_lSearchBlockCopy(block_number,
 1135              	 .loc 2 779 0
 1136 0062 BB69     	 ldr r3,[r7,#24]
 1137 0064 103B     	 sub r3,r3,#16
 1138 0066 1A1C     	 mov r2,r3
 1139 0068 FB1D     	 add r3,r7,#7
 1140 006a 1978     	 ldrb r1,[r3]
 1141 006c FB69     	 ldr r3,[r7,#28]
 1142 006e 081C     	 mov r0,r1
 1143 0070 111C     	 mov r1,r2
 1144 0072 1A1C     	 mov r2,r3
 1145 0074 FFF7FEFF 	 bl E_EEPROM_XMC1_lSearchBlockCopy
 1146 0078 031C     	 mov r3,r0
 1147 007a BB61     	 str r3,[r7,#24]
 780:../Dave/Generated/E_EEPROM_XMC1/e_eeprom_xmc1.c ****                                                            block_read_start_addr - E_EEPROM_XMC1_FL
 781:../Dave/Generated/E_EEPROM_XMC1/e_eeprom_xmc1.c ****                                                            data_sec_start_addr);
 782:../Dave/Generated/E_EEPROM_XMC1/e_eeprom_xmc1.c **** 
 783:../Dave/Generated/E_EEPROM_XMC1/e_eeprom_xmc1.c **** 
 784:../Dave/Generated/E_EEPROM_XMC1/e_eeprom_xmc1.c ****     if ((block_read_start_addr < data_sec_start_addr) ||
 1148              	 .loc 2 784 0
 1149 007c BA69     	 ldr r2,[r7,#24]
 1150 007e FB69     	 ldr r3,[r7,#28]
 1151 0080 9A42     	 cmp r2,r3
 1152 0082 12D3     	 bcc .L63
 785:../Dave/Generated/E_EEPROM_XMC1/e_eeprom_xmc1.c ****       (data_ptr->block_result.status.consistent != 1U) ||
 1153              	 .loc 2 785 0 discriminator 1
 1154 0084 7B69     	 ldr r3,[r7,#20]
 1155 0086 1B7F     	 ldrb r3,[r3,#28]
 1156 0088 0222     	 mov r2,#2
 1157 008a 1340     	 and r3,r2
 1158 008c DBB2     	 uxtb r3,r3
 784:../Dave/Generated/E_EEPROM_XMC1/e_eeprom_xmc1.c ****       (data_ptr->block_result.status.consistent != 1U) ||
 1159              	 .loc 2 784 0 discriminator 1
 1160 008e 002B     	 cmp r3,#0
 1161 0090 0BD0     	 beq .L63
 786:../Dave/Generated/E_EEPROM_XMC1/e_eeprom_xmc1.c ****             (data_ptr->block_result.block_count != expected_block_count) ||
 1162              	 .loc 2 786 0
 1163 0092 7B69     	 ldr r3,[r7,#20]
 1164 0094 9A69     	 ldr r2,[r3,#24]
 785:../Dave/Generated/E_EEPROM_XMC1/e_eeprom_xmc1.c ****       (data_ptr->block_result.status.consistent != 1U) ||
 1165              	 .loc 2 785 0
 1166 0096 BB68     	 ldr r3,[r7,#8]
 1167 0098 9A42     	 cmp r2,r3
 1168 009a 06D1     	 bne .L63
 787:../Dave/Generated/E_EEPROM_XMC1/e_eeprom_xmc1.c ****             (data_ptr->block_result.status.valid != 1U))
 1169              	 .loc 2 787 0
 1170 009c 7B69     	 ldr r3,[r7,#20]
 1171 009e 1B7F     	 ldrb r3,[r3,#28]
 1172 00a0 0122     	 mov r2,#1
 1173 00a2 1340     	 and r3,r2
 1174 00a4 DBB2     	 uxtb r3,r3
 786:../Dave/Generated/E_EEPROM_XMC1/e_eeprom_xmc1.c ****             (data_ptr->block_result.block_count != expected_block_count) ||
 1175              	 .loc 2 786 0
 1176 00a6 002B     	 cmp r3,#0
 1177 00a8 04D1     	 bne .L65
 1178              	.L63:
 788:../Dave/Generated/E_EEPROM_XMC1/e_eeprom_xmc1.c ****     {
 789:../Dave/Generated/E_EEPROM_XMC1/e_eeprom_xmc1.c ****       block_read_start_addr = 0U;  /* No Previous copy of block exist*/
 1179              	 .loc 2 789 0
 1180 00aa 0023     	 mov r3,#0
 1181 00ac BB61     	 str r3,[r7,#24]
 1182 00ae 01E0     	 b .L65
 1183              	.L62:
 790:../Dave/Generated/E_EEPROM_XMC1/e_eeprom_xmc1.c ****     }
 791:../Dave/Generated/E_EEPROM_XMC1/e_eeprom_xmc1.c ****   }
 792:../Dave/Generated/E_EEPROM_XMC1/e_eeprom_xmc1.c ****   else
 793:../Dave/Generated/E_EEPROM_XMC1/e_eeprom_xmc1.c ****   {
 794:../Dave/Generated/E_EEPROM_XMC1/e_eeprom_xmc1.c ****       block_read_start_addr = 0U;  /* No Previous copy of block can exist*/
 1184              	 .loc 2 794 0
 1185 00b0 0023     	 mov r3,#0
 1186 00b2 BB61     	 str r3,[r7,#24]
 1187              	.L65:
 795:../Dave/Generated/E_EEPROM_XMC1/e_eeprom_xmc1.c ****   }
 796:../Dave/Generated/E_EEPROM_XMC1/e_eeprom_xmc1.c **** 
 797:../Dave/Generated/E_EEPROM_XMC1/e_eeprom_xmc1.c ****   return (block_read_start_addr);
 1188              	 .loc 2 797 0
 1189 00b4 BB69     	 ldr r3,[r7,#24]
 798:../Dave/Generated/E_EEPROM_XMC1/e_eeprom_xmc1.c **** }
 1190              	 .loc 2 798 0
 1191 00b6 181C     	 mov r0,r3
 1192 00b8 BD46     	 mov sp,r7
 1193 00ba 08B0     	 add sp,sp,#32
 1194              	 
 1195 00bc 80BD     	 pop {r7,pc}
 1196              	.L68:
 1197 00be C046     	 .align 2
 1198              	.L67:
 1199 00c0 00000000 	 .word E_EEPROM_XMC1_0
 1200 00c4 008D0010 	 .word 268471552
 1201 00c8 008F0010 	 .word 268472064
 1202              	 .cfi_endproc
 1203              	.LFE58:
 1205              	 .section .text.E_EEPROM_XMC1_lSearchBlockCopy,"ax",%progbits
 1206              	 .align 2
 1207              	 .code 16
 1208              	 .thumb_func
 1210              	E_EEPROM_XMC1_lSearchBlockCopy:
 1211              	.LFB59:
 799:../Dave/Generated/E_EEPROM_XMC1/e_eeprom_xmc1.c **** 
 800:../Dave/Generated/E_EEPROM_XMC1/e_eeprom_xmc1.c **** /*
 801:../Dave/Generated/E_EEPROM_XMC1/e_eeprom_xmc1.c ****  * Parameters(IN)  : block_number  - User block number / ID
 802:../Dave/Generated/E_EEPROM_XMC1/e_eeprom_xmc1.c ****  *
 803:../Dave/Generated/E_EEPROM_XMC1/e_eeprom_xmc1.c ****  * Return value    : uint32_t - Flash NVM_STATUS register value
 804:../Dave/Generated/E_EEPROM_XMC1/e_eeprom_xmc1.c ****  *
 805:../Dave/Generated/E_EEPROM_XMC1/e_eeprom_xmc1.c ****  * Description     : This function reads the block header bytes and compare the block number to fin
 806:../Dave/Generated/E_EEPROM_XMC1/e_eeprom_xmc1.c ****  */
 807:../Dave/Generated/E_EEPROM_XMC1/e_eeprom_xmc1.c **** static uint32_t E_EEPROM_XMC1_lSearchBlockCopy(uint8_t required_block_number,
 808:../Dave/Generated/E_EEPROM_XMC1/e_eeprom_xmc1.c ****                                                uint32_t read_addr,
 809:../Dave/Generated/E_EEPROM_XMC1/e_eeprom_xmc1.c ****                                                uint32_t data_sec_start_addr)
 810:../Dave/Generated/E_EEPROM_XMC1/e_eeprom_xmc1.c **** {
 1212              	 .loc 2 810 0
 1213              	 .cfi_startproc
 1214 0000 80B5     	 push {r7,lr}
 1215              	.LCFI36:
 1216              	 .cfi_def_cfa_offset 8
 1217              	 .cfi_offset 7,-8
 1218              	 .cfi_offset 14,-4
 1219 0002 8CB0     	 sub sp,sp,#48
 1220              	.LCFI37:
 1221              	 .cfi_def_cfa_offset 56
 1222 0004 00AF     	 add r7,sp,#0
 1223              	.LCFI38:
 1224              	 .cfi_def_cfa_register 7
 1225 0006 B960     	 str r1,[r7,#8]
 1226 0008 7A60     	 str r2,[r7,#4]
 1227 000a 0F23     	 mov r3,#15
 1228 000c FB18     	 add r3,r7,r3
 1229 000e 021C     	 add r2,r0,#0
 1230 0010 1A70     	 strb r2,[r3]
 811:../Dave/Generated/E_EEPROM_XMC1/e_eeprom_xmc1.c ****   uint32_t header_word;
 812:../Dave/Generated/E_EEPROM_XMC1/e_eeprom_xmc1.c ****   uint32_t block_count;
 813:../Dave/Generated/E_EEPROM_XMC1/e_eeprom_xmc1.c ****   uint8_t block_status;
 814:../Dave/Generated/E_EEPROM_XMC1/e_eeprom_xmc1.c ****   uint8_t read_block_number;
 815:../Dave/Generated/E_EEPROM_XMC1/e_eeprom_xmc1.c ****   uint32_t block_start_address;
 816:../Dave/Generated/E_EEPROM_XMC1/e_eeprom_xmc1.c ****   uint32_t is_all_blocks_clean;
 817:../Dave/Generated/E_EEPROM_XMC1/e_eeprom_xmc1.c ****   E_EEPROM_XMC1_DATA_t *data_ptr;
 818:../Dave/Generated/E_EEPROM_XMC1/e_eeprom_xmc1.c ****   E_EEPROM_XMC1_BLOCK_HEADER_t* block_header_ptr;
 819:../Dave/Generated/E_EEPROM_XMC1/e_eeprom_xmc1.c ****   
 820:../Dave/Generated/E_EEPROM_XMC1/e_eeprom_xmc1.c ****   data_ptr = (E_EEPROM_XMC1_DATA_t*)(void*)(E_EEPROM_XMC1_HANDLE_PTR->data_ptr);
 1231              	 .loc 2 820 0
 1232 0012 384B     	 ldr r3,.L80
 1233 0014 5B68     	 ldr r3,[r3,#4]
 1234 0016 3B62     	 str r3,[r7,#32]
 821:../Dave/Generated/E_EEPROM_XMC1/e_eeprom_xmc1.c ****   
 822:../Dave/Generated/E_EEPROM_XMC1/e_eeprom_xmc1.c ****   block_count = 0U;
 1235              	 .loc 2 822 0
 1236 0018 0023     	 mov r3,#0
 1237 001a FB62     	 str r3,[r7,#44]
 823:../Dave/Generated/E_EEPROM_XMC1/e_eeprom_xmc1.c ****   block_start_address = 0U;
 1238              	 .loc 2 823 0
 1239 001c 0023     	 mov r3,#0
 1240 001e BB62     	 str r3,[r7,#40]
 824:../Dave/Generated/E_EEPROM_XMC1/e_eeprom_xmc1.c ****   is_all_blocks_clean = 1U;
 1241              	 .loc 2 824 0
 1242 0020 0123     	 mov r3,#1
 1243 0022 7B62     	 str r3,[r7,#36]
 825:../Dave/Generated/E_EEPROM_XMC1/e_eeprom_xmc1.c ****   data_ptr->block_result.status.consistent = 0U;
 1244              	 .loc 2 825 0
 1245 0024 3B6A     	 ldr r3,[r7,#32]
 1246 0026 1A7F     	 ldrb r2,[r3,#28]
 1247 0028 0221     	 mov r1,#2
 1248 002a 8A43     	 bic r2,r1
 1249 002c 1A77     	 strb r2,[r3,#28]
 826:../Dave/Generated/E_EEPROM_XMC1/e_eeprom_xmc1.c ****   data_ptr->block_result.status.valid = 0U;
 1250              	 .loc 2 826 0
 1251 002e 3B6A     	 ldr r3,[r7,#32]
 1252 0030 1A7F     	 ldrb r2,[r3,#28]
 1253 0032 0121     	 mov r1,#1
 1254 0034 8A43     	 bic r2,r1
 1255 0036 1A77     	 strb r2,[r3,#28]
 827:../Dave/Generated/E_EEPROM_XMC1/e_eeprom_xmc1.c ****   data_ptr->block_result.block_count = 0U;
 1256              	 .loc 2 827 0
 1257 0038 3B6A     	 ldr r3,[r7,#32]
 1258 003a 0022     	 mov r2,#0
 1259 003c 9A61     	 str r2,[r3,#24]
 828:../Dave/Generated/E_EEPROM_XMC1/e_eeprom_xmc1.c ****   
 829:../Dave/Generated/E_EEPROM_XMC1/e_eeprom_xmc1.c ****   /* Loop until the first block address and check if any block number is matching the required bloc
 830:../Dave/Generated/E_EEPROM_XMC1/e_eeprom_xmc1.c ****   while ((data_sec_start_addr <= read_addr) && (block_start_address == 0U))
 1260              	 .loc 2 830 0
 1261 003e 4DE0     	 b .L70
 1262              	.L78:
 831:../Dave/Generated/E_EEPROM_XMC1/e_eeprom_xmc1.c ****   {
 832:../Dave/Generated/E_EEPROM_XMC1/e_eeprom_xmc1.c ****     /* Clear all error status flags before flash operation*/
 833:../Dave/Generated/E_EEPROM_XMC1/e_eeprom_xmc1.c ****     XMC_FLASH_ClearStatus();      
 1263              	 .loc 2 833 0
 1264 0040 FFF7FEFF 	 bl XMC_FLASH_ClearStatus
 834:../Dave/Generated/E_EEPROM_XMC1/e_eeprom_xmc1.c ****     
 835:../Dave/Generated/E_EEPROM_XMC1/e_eeprom_xmc1.c ****     /* Read the header word */
 836:../Dave/Generated/E_EEPROM_XMC1/e_eeprom_xmc1.c ****     header_word = E_EEPROM_XMC1_lReadSingleWord(read_addr);
 1265              	 .loc 2 836 0
 1266 0044 BB68     	 ldr r3,[r7,#8]
 1267 0046 181C     	 mov r0,r3
 1268 0048 FFF7FEFF 	 bl E_EEPROM_XMC1_lReadSingleWord
 1269 004c 031C     	 mov r3,r0
 1270 004e 7B61     	 str r3,[r7,#20]
 837:../Dave/Generated/E_EEPROM_XMC1/e_eeprom_xmc1.c ****     
 838:../Dave/Generated/E_EEPROM_XMC1/e_eeprom_xmc1.c ****     block_header_ptr = (E_EEPROM_XMC1_BLOCK_HEADER_t*)(void *)(&header_word);
 1271              	 .loc 2 838 0
 1272 0050 1423     	 mov r3,#20
 1273 0052 FB18     	 add r3,r7,r3
 1274 0054 FB61     	 str r3,[r7,#28]
 839:../Dave/Generated/E_EEPROM_XMC1/e_eeprom_xmc1.c ****     read_block_number = block_header_ptr->block_number;
 1275              	 .loc 2 839 0
 1276 0056 1B23     	 mov r3,#27
 1277 0058 FB18     	 add r3,r7,r3
 1278 005a FA69     	 ldr r2,[r7,#28]
 1279 005c 1278     	 ldrb r2,[r2]
 1280 005e 1A70     	 strb r2,[r3]
 840:../Dave/Generated/E_EEPROM_XMC1/e_eeprom_xmc1.c ****     block_status = block_header_ptr->status;
 1281              	 .loc 2 840 0
 1282 0060 1A23     	 mov r3,#26
 1283 0062 FB18     	 add r3,r7,r3
 1284 0064 FA69     	 ldr r2,[r7,#28]
 1285 0066 5278     	 ldrb r2,[r2,#1]
 1286 0068 1A70     	 strb r2,[r3]
 841:../Dave/Generated/E_EEPROM_XMC1/e_eeprom_xmc1.c ****     
 842:../Dave/Generated/E_EEPROM_XMC1/e_eeprom_xmc1.c ****     /*Check whether the block number is matching the required block number*/
 843:../Dave/Generated/E_EEPROM_XMC1/e_eeprom_xmc1.c ****     if (read_block_number == required_block_number)
 1287              	 .loc 2 843 0
 1288 006a 1B23     	 mov r3,#27
 1289 006c FA18     	 add r2,r7,r3
 1290 006e 0F23     	 mov r3,#15
 1291 0070 FB18     	 add r3,r7,r3
 1292 0072 1278     	 ldrb r2,[r2]
 1293 0074 1B78     	 ldrb r3,[r3]
 1294 0076 9A42     	 cmp r2,r3
 1295 0078 2DD1     	 bne .L71
 844:../Dave/Generated/E_EEPROM_XMC1/e_eeprom_xmc1.c ****     {
 845:../Dave/Generated/E_EEPROM_XMC1/e_eeprom_xmc1.c ****       block_count++;
 1296              	 .loc 2 845 0
 1297 007a FB6A     	 ldr r3,[r7,#44]
 1298 007c 0133     	 add r3,r3,#1
 1299 007e FB62     	 str r3,[r7,#44]
 846:../Dave/Generated/E_EEPROM_XMC1/e_eeprom_xmc1.c ****       
 847:../Dave/Generated/E_EEPROM_XMC1/e_eeprom_xmc1.c ****       /* Check if any ECC error in the header */
 848:../Dave/Generated/E_EEPROM_XMC1/e_eeprom_xmc1.c ****       if ( ( E_EEPROM_XMC1_lGetFlashStatus() & (uint32_t)XMC_FLASH_STATUS_ECC2_READ_ERROR ) != 0U )
 1300              	 .loc 2 848 0
 1301 0080 FFF7FEFF 	 bl E_EEPROM_XMC1_lGetFlashStatus
 1302 0084 021C     	 mov r2,r0
 1303 0086 2023     	 mov r3,#32
 1304 0088 1340     	 and r3,r2
 1305 008a 01D0     	 beq .L72
 849:../Dave/Generated/E_EEPROM_XMC1/e_eeprom_xmc1.c ****       {
 850:../Dave/Generated/E_EEPROM_XMC1/e_eeprom_xmc1.c ****         is_all_blocks_clean = 0U;
 1306              	 .loc 2 850 0
 1307 008c 0023     	 mov r3,#0
 1308 008e 7B62     	 str r3,[r7,#36]
 1309              	.L72:
 851:../Dave/Generated/E_EEPROM_XMC1/e_eeprom_xmc1.c ****       }
 852:../Dave/Generated/E_EEPROM_XMC1/e_eeprom_xmc1.c ****       /* Check if block header is of the starting block */
 853:../Dave/Generated/E_EEPROM_XMC1/e_eeprom_xmc1.c ****       if (block_status & E_EEPROM_XMC1_START_BIT)
 1310              	 .loc 2 853 0
 1311 0090 1A23     	 mov r3,#26
 1312 0092 FB18     	 add r3,r7,r3
 1313 0094 1B78     	 ldrb r3,[r3]
 1314 0096 5BB2     	 sxtb r3,r3
 1315 0098 002B     	 cmp r3,#0
 1316 009a 18DA     	 bge .L73
 854:../Dave/Generated/E_EEPROM_XMC1/e_eeprom_xmc1.c ****       {
 855:../Dave/Generated/E_EEPROM_XMC1/e_eeprom_xmc1.c ****         if ( is_all_blocks_clean == 1U )
 1317              	 .loc 2 855 0
 1318 009c 7B6A     	 ldr r3,[r7,#36]
 1319 009e 012B     	 cmp r3,#1
 1320 00a0 04D1     	 bne .L74
 856:../Dave/Generated/E_EEPROM_XMC1/e_eeprom_xmc1.c ****         {
 857:../Dave/Generated/E_EEPROM_XMC1/e_eeprom_xmc1.c ****           data_ptr->block_result.status.consistent = 1U;
 1321              	 .loc 2 857 0
 1322 00a2 3B6A     	 ldr r3,[r7,#32]
 1323 00a4 1A7F     	 ldrb r2,[r3,#28]
 1324 00a6 0221     	 mov r1,#2
 1325 00a8 0A43     	 orr r2,r1
 1326 00aa 1A77     	 strb r2,[r3,#28]
 1327              	.L74:
 858:../Dave/Generated/E_EEPROM_XMC1/e_eeprom_xmc1.c ****         }
 859:../Dave/Generated/E_EEPROM_XMC1/e_eeprom_xmc1.c **** 
 860:../Dave/Generated/E_EEPROM_XMC1/e_eeprom_xmc1.c ****         if (block_status & (uint8_t)E_EEPROM_XMC1_VALID_BIT)
 1328              	 .loc 2 860 0
 1329 00ac 1A23     	 mov r3,#26
 1330 00ae FB18     	 add r3,r7,r3
 1331 00b0 1B78     	 ldrb r3,[r3]
 1332 00b2 4022     	 mov r2,#64
 1333 00b4 1340     	 and r3,r2
 1334 00b6 04D0     	 beq .L75
 861:../Dave/Generated/E_EEPROM_XMC1/e_eeprom_xmc1.c ****         {
 862:../Dave/Generated/E_EEPROM_XMC1/e_eeprom_xmc1.c ****           data_ptr->block_result.status.valid = 1U;
 1335              	 .loc 2 862 0
 1336 00b8 3B6A     	 ldr r3,[r7,#32]
 1337 00ba 1A7F     	 ldrb r2,[r3,#28]
 1338 00bc 0121     	 mov r1,#1
 1339 00be 0A43     	 orr r2,r1
 1340 00c0 1A77     	 strb r2,[r3,#28]
 1341              	.L75:
 863:../Dave/Generated/E_EEPROM_XMC1/e_eeprom_xmc1.c ****         }
 864:../Dave/Generated/E_EEPROM_XMC1/e_eeprom_xmc1.c **** 
 865:../Dave/Generated/E_EEPROM_XMC1/e_eeprom_xmc1.c ****         data_ptr->block_result.block_count = block_count;
 1342              	 .loc 2 865 0
 1343 00c2 3B6A     	 ldr r3,[r7,#32]
 1344 00c4 FA6A     	 ldr r2,[r7,#44]
 1345 00c6 9A61     	 str r2,[r3,#24]
 866:../Dave/Generated/E_EEPROM_XMC1/e_eeprom_xmc1.c ****         block_start_address = read_addr;
 1346              	 .loc 2 866 0
 1347 00c8 BB68     	 ldr r3,[r7,#8]
 1348 00ca BB62     	 str r3,[r7,#40]
 1349 00cc 06E0     	 b .L70
 1350              	.L73:
 867:../Dave/Generated/E_EEPROM_XMC1/e_eeprom_xmc1.c ****       }
 868:../Dave/Generated/E_EEPROM_XMC1/e_eeprom_xmc1.c ****       else
 869:../Dave/Generated/E_EEPROM_XMC1/e_eeprom_xmc1.c ****       {
 870:../Dave/Generated/E_EEPROM_XMC1/e_eeprom_xmc1.c ****         read_addr -= E_EEPROM_XMC1_FLASH_BLOCK_SIZE;
 1351              	 .loc 2 870 0
 1352 00ce BB68     	 ldr r3,[r7,#8]
 1353 00d0 103B     	 sub r3,r3,#16
 1354 00d2 BB60     	 str r3,[r7,#8]
 1355 00d4 02E0     	 b .L70
 1356              	.L71:
 871:../Dave/Generated/E_EEPROM_XMC1/e_eeprom_xmc1.c ****       }
 872:../Dave/Generated/E_EEPROM_XMC1/e_eeprom_xmc1.c ****     }
 873:../Dave/Generated/E_EEPROM_XMC1/e_eeprom_xmc1.c ****     else
 874:../Dave/Generated/E_EEPROM_XMC1/e_eeprom_xmc1.c ****     {
 875:../Dave/Generated/E_EEPROM_XMC1/e_eeprom_xmc1.c ****       read_addr -= E_EEPROM_XMC1_FLASH_BLOCK_SIZE;
 1357              	 .loc 2 875 0
 1358 00d6 BB68     	 ldr r3,[r7,#8]
 1359 00d8 103B     	 sub r3,r3,#16
 1360 00da BB60     	 str r3,[r7,#8]
 1361              	.L70:
 830:../Dave/Generated/E_EEPROM_XMC1/e_eeprom_xmc1.c ****   {
 1362              	 .loc 2 830 0
 1363 00dc 7A68     	 ldr r2,[r7,#4]
 1364 00de BB68     	 ldr r3,[r7,#8]
 1365 00e0 9A42     	 cmp r2,r3
 1366 00e2 02D8     	 bhi .L77
 830:../Dave/Generated/E_EEPROM_XMC1/e_eeprom_xmc1.c ****   {
 1367              	 .loc 2 830 0 is_stmt 0 discriminator 1
 1368 00e4 BB6A     	 ldr r3,[r7,#40]
 1369 00e6 002B     	 cmp r3,#0
 1370 00e8 AAD0     	 beq .L78
 1371              	.L77:
 876:../Dave/Generated/E_EEPROM_XMC1/e_eeprom_xmc1.c ****     }
 877:../Dave/Generated/E_EEPROM_XMC1/e_eeprom_xmc1.c ****   }
 878:../Dave/Generated/E_EEPROM_XMC1/e_eeprom_xmc1.c ****   return(block_start_address);
 1372              	 .loc 2 878 0 is_stmt 1
 1373 00ea BB6A     	 ldr r3,[r7,#40]
 879:../Dave/Generated/E_EEPROM_XMC1/e_eeprom_xmc1.c **** }
 1374              	 .loc 2 879 0
 1375 00ec 181C     	 mov r0,r3
 1376 00ee BD46     	 mov sp,r7
 1377 00f0 0CB0     	 add sp,sp,#48
 1378              	 
 1379 00f2 80BD     	 pop {r7,pc}
 1380              	.L81:
 1381              	 .align 2
 1382              	.L80:
 1383 00f4 00000000 	 .word E_EEPROM_XMC1_0
 1384              	 .cfi_endproc
 1385              	.LFE59:
 1387              	 .section .text.E_EEPROM_XMC1_lInitGc,"ax",%progbits
 1388              	 .align 2
 1389              	 .code 16
 1390              	 .thumb_func
 1392              	E_EEPROM_XMC1_lInitGc:
 1393              	.LFB60:
 880:../Dave/Generated/E_EEPROM_XMC1/e_eeprom_xmc1.c **** 
 881:../Dave/Generated/E_EEPROM_XMC1/e_eeprom_xmc1.c **** /*
 882:../Dave/Generated/E_EEPROM_XMC1/e_eeprom_xmc1.c ****  * Parameters(IN)  : marker_dirty_state  - Dirty state
 883:../Dave/Generated/E_EEPROM_XMC1/e_eeprom_xmc1.c ****  *
 884:../Dave/Generated/E_EEPROM_XMC1/e_eeprom_xmc1.c ****  * Return value    : void
 885:../Dave/Generated/E_EEPROM_XMC1/e_eeprom_xmc1.c ****  *
 886:../Dave/Generated/E_EEPROM_XMC1/e_eeprom_xmc1.c ****  * Description     : This function shall detect if there was any interruption in the ongoing runnin
 887:../Dave/Generated/E_EEPROM_XMC1/e_eeprom_xmc1.c ****  *                   (Read/Write/GC). If yes, then this routine shall decide to run a state machine
 888:../Dave/Generated/E_EEPROM_XMC1/e_eeprom_xmc1.c ****  *                   emulation to normal state
 889:../Dave/Generated/E_EEPROM_XMC1/e_eeprom_xmc1.c ****  */
 890:../Dave/Generated/E_EEPROM_XMC1/e_eeprom_xmc1.c **** static void E_EEPROM_XMC1_lInitGc(const uint32_t marker_dirty_state)
 891:../Dave/Generated/E_EEPROM_XMC1/e_eeprom_xmc1.c **** {
 1394              	 .loc 2 891 0
 1395              	 .cfi_startproc
 1396 0000 80B5     	 push {r7,lr}
 1397              	.LCFI39:
 1398              	 .cfi_def_cfa_offset 8
 1399              	 .cfi_offset 7,-8
 1400              	 .cfi_offset 14,-4
 1401 0002 84B0     	 sub sp,sp,#16
 1402              	.LCFI40:
 1403              	 .cfi_def_cfa_offset 24
 1404 0004 00AF     	 add r7,sp,#0
 1405              	.LCFI41:
 1406              	 .cfi_def_cfa_register 7
 1407 0006 7860     	 str r0,[r7,#4]
 892:../Dave/Generated/E_EEPROM_XMC1/e_eeprom_xmc1.c ****   E_EEPROM_XMC1_DATA_t *data_ptr;
 893:../Dave/Generated/E_EEPROM_XMC1/e_eeprom_xmc1.c ****   data_ptr = (E_EEPROM_XMC1_DATA_t*)(void*)(E_EEPROM_XMC1_HANDLE_PTR->data_ptr);
 1408              	 .loc 2 893 0
 1409 0008 254B     	 ldr r3,.L87
 1410 000a 5B68     	 ldr r3,[r3,#4]
 1411 000c FB60     	 str r3,[r7,#12]
 894:../Dave/Generated/E_EEPROM_XMC1/e_eeprom_xmc1.c ****   
 895:../Dave/Generated/E_EEPROM_XMC1/e_eeprom_xmc1.c ****   if ( marker_dirty_state == E_EEPROM_XMC1_BOTH_BANKS_INVALID )  /* If both Bank state markers are 
 1412              	 .loc 2 895 0
 1413 000e 7B68     	 ldr r3,[r7,#4]
 1414 0010 032B     	 cmp r3,#3
 1415 0012 07D1     	 bne .L83
 896:../Dave/Generated/E_EEPROM_XMC1/e_eeprom_xmc1.c ****   {
 897:../Dave/Generated/E_EEPROM_XMC1/e_eeprom_xmc1.c ****     data_ptr->init_gc_state = E_EEPROM_XMC1_MB_DIRTY;
 1416              	 .loc 2 897 0
 1417 0014 FA68     	 ldr r2,[r7,#12]
 1418 0016 B023     	 mov r3,#176
 1419 0018 5B00     	 lsl r3,r3,#1
 1420 001a DD21     	 mov r1,#221
 1421 001c D150     	 str r1,[r2,r3]
 898:../Dave/Generated/E_EEPROM_XMC1/e_eeprom_xmc1.c ****     E_EEPROM_XMC1_lInitllegalStateMachine();
 1422              	 .loc 2 898 0
 1423 001e FFF7FEFF 	 bl E_EEPROM_XMC1_lInitllegalStateMachine
 1424 0022 39E0     	 b .L82
 1425              	.L83:
 899:../Dave/Generated/E_EEPROM_XMC1/e_eeprom_xmc1.c ****   }
 900:../Dave/Generated/E_EEPROM_XMC1/e_eeprom_xmc1.c ****   else if ( marker_dirty_state == E_EEPROM_XMC1_BANK0_INVALID )  /* If Only Bank0 state marker is i
 1426              	 .loc 2 900 0
 1427 0024 7B68     	 ldr r3,[r7,#4]
 1428 0026 012B     	 cmp r3,#1
 1429 0028 18D1     	 bne .L85
 901:../Dave/Generated/E_EEPROM_XMC1/e_eeprom_xmc1.c ****   {
 902:../Dave/Generated/E_EEPROM_XMC1/e_eeprom_xmc1.c ****     data_ptr->init_gc_state &= E_EEPROM_XMC1_INIT_STATE_0F;
 1430              	 .loc 2 902 0
 1431 002a FA68     	 ldr r2,[r7,#12]
 1432 002c B023     	 mov r3,#176
 1433 002e 5B00     	 lsl r3,r3,#1
 1434 0030 D358     	 ldr r3,[r2,r3]
 1435 0032 0F22     	 mov r2,#15
 1436 0034 1340     	 and r3,r2
 1437 0036 191C     	 mov r1,r3
 1438 0038 FA68     	 ldr r2,[r7,#12]
 1439 003a B023     	 mov r3,#176
 1440 003c 5B00     	 lsl r3,r3,#1
 1441 003e D150     	 str r1,[r2,r3]
 903:../Dave/Generated/E_EEPROM_XMC1/e_eeprom_xmc1.c ****     data_ptr->init_gc_state |= E_EEPROM_XMC1_INIT_STATE_D0;
 1442              	 .loc 2 903 0
 1443 0040 FA68     	 ldr r2,[r7,#12]
 1444 0042 B023     	 mov r3,#176
 1445 0044 5B00     	 lsl r3,r3,#1
 1446 0046 D358     	 ldr r3,[r2,r3]
 1447 0048 D022     	 mov r2,#208
 1448 004a 1A43     	 orr r2,r3
 1449 004c 111C     	 mov r1,r2
 1450 004e FA68     	 ldr r2,[r7,#12]
 1451 0050 B023     	 mov r3,#176
 1452 0052 5B00     	 lsl r3,r3,#1
 1453 0054 D150     	 str r1,[r2,r3]
 904:../Dave/Generated/E_EEPROM_XMC1/e_eeprom_xmc1.c ****     E_EEPROM_XMC1_lInitDirtyStateMachine();
 1454              	 .loc 2 904 0
 1455 0056 FFF7FEFF 	 bl E_EEPROM_XMC1_lInitDirtyStateMachine
 1456 005a 1DE0     	 b .L82
 1457              	.L85:
 905:../Dave/Generated/E_EEPROM_XMC1/e_eeprom_xmc1.c ****   }
 906:../Dave/Generated/E_EEPROM_XMC1/e_eeprom_xmc1.c ****   else if ( marker_dirty_state == E_EEPROM_XMC1_BANK1_INVALID )  /* If Only Bank1 state marker is i
 1458              	 .loc 2 906 0
 1459 005c 7B68     	 ldr r3,[r7,#4]
 1460 005e 022B     	 cmp r3,#2
 1461 0060 18D1     	 bne .L86
 907:../Dave/Generated/E_EEPROM_XMC1/e_eeprom_xmc1.c ****   {
 908:../Dave/Generated/E_EEPROM_XMC1/e_eeprom_xmc1.c ****     data_ptr->init_gc_state &= E_EEPROM_XMC1_INIT_STATE_F0;
 1462              	 .loc 2 908 0
 1463 0062 FA68     	 ldr r2,[r7,#12]
 1464 0064 B023     	 mov r3,#176
 1465 0066 5B00     	 lsl r3,r3,#1
 1466 0068 D358     	 ldr r3,[r2,r3]
 1467 006a F022     	 mov r2,#240
 1468 006c 1340     	 and r3,r2
 1469 006e 191C     	 mov r1,r3
 1470 0070 FA68     	 ldr r2,[r7,#12]
 1471 0072 B023     	 mov r3,#176
 1472 0074 5B00     	 lsl r3,r3,#1
 1473 0076 D150     	 str r1,[r2,r3]
 909:../Dave/Generated/E_EEPROM_XMC1/e_eeprom_xmc1.c ****     data_ptr->init_gc_state |= E_EEPROM_XMC1_INIT_STATE_0D;
 1474              	 .loc 2 909 0
 1475 0078 FA68     	 ldr r2,[r7,#12]
 1476 007a B023     	 mov r3,#176
 1477 007c 5B00     	 lsl r3,r3,#1
 1478 007e D358     	 ldr r3,[r2,r3]
 1479 0080 0D22     	 mov r2,#13
 1480 0082 1A43     	 orr r2,r3
 1481 0084 111C     	 mov r1,r2
 1482 0086 FA68     	 ldr r2,[r7,#12]
 1483 0088 B023     	 mov r3,#176
 1484 008a 5B00     	 lsl r3,r3,#1
 1485 008c D150     	 str r1,[r2,r3]
 910:../Dave/Generated/E_EEPROM_XMC1/e_eeprom_xmc1.c ****     E_EEPROM_XMC1_lInitDirtyStateMachine();
 1486              	 .loc 2 910 0
 1487 008e FFF7FEFF 	 bl E_EEPROM_XMC1_lInitDirtyStateMachine
 1488 0092 01E0     	 b .L82
 1489              	.L86:
 911:../Dave/Generated/E_EEPROM_XMC1/e_eeprom_xmc1.c ****   }
 912:../Dave/Generated/E_EEPROM_XMC1/e_eeprom_xmc1.c ****   else                                      /* If both Bank state markers have valid state */
 913:../Dave/Generated/E_EEPROM_XMC1/e_eeprom_xmc1.c ****   {
 914:../Dave/Generated/E_EEPROM_XMC1/e_eeprom_xmc1.c ****     E_EEPROM_XMC1_lInitNormalStateMachine();
 1490              	 .loc 2 914 0
 1491 0094 FFF7FEFF 	 bl E_EEPROM_XMC1_lInitNormalStateMachine
 1492              	.L82:
 915:../Dave/Generated/E_EEPROM_XMC1/e_eeprom_xmc1.c ****   }
 916:../Dave/Generated/E_EEPROM_XMC1/e_eeprom_xmc1.c **** }
 1493              	 .loc 2 916 0
 1494 0098 BD46     	 mov sp,r7
 1495 009a 04B0     	 add sp,sp,#16
 1496              	 
 1497 009c 80BD     	 pop {r7,pc}
 1498              	.L88:
 1499 009e C046     	 .align 2
 1500              	.L87:
 1501 00a0 00000000 	 .word E_EEPROM_XMC1_0
 1502              	 .cfi_endproc
 1503              	.LFE60:
 1505              	 .section .text.E_EEPROM_XMC1_lInitllegalStateMachine,"ax",%progbits
 1506              	 .align 2
 1507              	 .code 16
 1508              	 .thumb_func
 1510              	E_EEPROM_XMC1_lInitllegalStateMachine:
 1511              	.LFB61:
 917:../Dave/Generated/E_EEPROM_XMC1/e_eeprom_xmc1.c **** 
 918:../Dave/Generated/E_EEPROM_XMC1/e_eeprom_xmc1.c **** /*
 919:../Dave/Generated/E_EEPROM_XMC1/e_eeprom_xmc1.c ****  * Parameters(IN)  : void
 920:../Dave/Generated/E_EEPROM_XMC1/e_eeprom_xmc1.c ****  *
 921:../Dave/Generated/E_EEPROM_XMC1/e_eeprom_xmc1.c ****  * Return value    : void
 922:../Dave/Generated/E_EEPROM_XMC1/e_eeprom_xmc1.c ****  *
 923:../Dave/Generated/E_EEPROM_XMC1/e_eeprom_xmc1.c ****  * Description     : This function shall erase all flash and start from fresh depending upon the us
 924:../Dave/Generated/E_EEPROM_XMC1/e_eeprom_xmc1.c ****  */
 925:../Dave/Generated/E_EEPROM_XMC1/e_eeprom_xmc1.c **** static void E_EEPROM_XMC1_lInitllegalStateMachine(void)
 926:../Dave/Generated/E_EEPROM_XMC1/e_eeprom_xmc1.c **** {
 1512              	 .loc 2 926 0
 1513              	 .cfi_startproc
 1514 0000 80B5     	 push {r7,lr}
 1515              	.LCFI42:
 1516              	 .cfi_def_cfa_offset 8
 1517              	 .cfi_offset 7,-8
 1518              	 .cfi_offset 14,-4
 1519 0002 82B0     	 sub sp,sp,#8
 1520              	.LCFI43:
 1521              	 .cfi_def_cfa_offset 16
 1522 0004 00AF     	 add r7,sp,#0
 1523              	.LCFI44:
 1524              	 .cfi_def_cfa_register 7
 927:../Dave/Generated/E_EEPROM_XMC1/e_eeprom_xmc1.c ****   E_EEPROM_XMC1_DATA_t *data_ptr;
 928:../Dave/Generated/E_EEPROM_XMC1/e_eeprom_xmc1.c ****   data_ptr = (E_EEPROM_XMC1_DATA_t*)(void*)(E_EEPROM_XMC1_HANDLE_PTR->data_ptr);
 1525              	 .loc 2 928 0
 1526 0006 0B4B     	 ldr r3,.L92
 1527 0008 5B68     	 ldr r3,[r3,#4]
 1528 000a 7B60     	 str r3,[r7,#4]
 929:../Dave/Generated/E_EEPROM_XMC1/e_eeprom_xmc1.c ****   
 930:../Dave/Generated/E_EEPROM_XMC1/e_eeprom_xmc1.c ****   /*
 931:../Dave/Generated/E_EEPROM_XMC1/e_eeprom_xmc1.c ****    * Any state apart from the normal states is considered as Illegal state. Next operation = Start 
 932:../Dave/Generated/E_EEPROM_XMC1/e_eeprom_xmc1.c ****    * (Only if the configuration option Erase all is 1U) IF Configuration Option is 0U, Next Operati
 933:../Dave/Generated/E_EEPROM_XMC1/e_eeprom_xmc1.c ****    */
 934:../Dave/Generated/E_EEPROM_XMC1/e_eeprom_xmc1.c ****   if (E_EEPROM_XMC1_HANDLE_PTR->erase_all_auto_recovery == 1U)
 1529              	 .loc 2 934 0
 1530 000c 094B     	 ldr r3,.L92
 1531 000e 9B7A     	 ldrb r3,[r3,#10]
 1532 0010 012B     	 cmp r3,#1
 1533 0012 07D1     	 bne .L90
 935:../Dave/Generated/E_EEPROM_XMC1/e_eeprom_xmc1.c ****   {
 936:../Dave/Generated/E_EEPROM_XMC1/e_eeprom_xmc1.c ****     /* Change the current Bank to Bank0 */
 937:../Dave/Generated/E_EEPROM_XMC1/e_eeprom_xmc1.c ****     data_ptr->current_bank = 0U;
 1534              	 .loc 2 937 0
 1535 0014 7B68     	 ldr r3,[r7,#4]
 1536 0016 0022     	 mov r2,#0
 1537 0018 1A62     	 str r2,[r3,#32]
 938:../Dave/Generated/E_EEPROM_XMC1/e_eeprom_xmc1.c ****     E_EEPROM_XMC1_lInitGcNormalStates( E_EEPROM_XMC1_PREPFLASH_FF, 1U);
 1538              	 .loc 2 938 0
 1539 001a 0120     	 mov r0,#1
 1540 001c 0121     	 mov r1,#1
 1541 001e FFF7FEFF 	 bl E_EEPROM_XMC1_lInitGcNormalStates
 1542 0022 04E0     	 b .L89
 1543              	.L90:
 939:../Dave/Generated/E_EEPROM_XMC1/e_eeprom_xmc1.c ****   }
 940:../Dave/Generated/E_EEPROM_XMC1/e_eeprom_xmc1.c ****   else
 941:../Dave/Generated/E_EEPROM_XMC1/e_eeprom_xmc1.c ****   {
 942:../Dave/Generated/E_EEPROM_XMC1/e_eeprom_xmc1.c ****     data_ptr->gc_state = E_EEPROM_XMC1_GC_FAIL;
 1544              	 .loc 2 942 0
 1545 0024 7A68     	 ldr r2,[r7,#4]
 1546 0026 AE23     	 mov r3,#174
 1547 0028 5B00     	 lsl r3,r3,#1
 1548 002a 0921     	 mov r1,#9
 1549 002c D150     	 str r1,[r2,r3]
 1550              	.L89:
 943:../Dave/Generated/E_EEPROM_XMC1/e_eeprom_xmc1.c ****   }
 944:../Dave/Generated/E_EEPROM_XMC1/e_eeprom_xmc1.c **** }
 1551              	 .loc 2 944 0
 1552 002e BD46     	 mov sp,r7
 1553 0030 02B0     	 add sp,sp,#8
 1554              	 
 1555 0032 80BD     	 pop {r7,pc}
 1556              	.L93:
 1557              	 .align 2
 1558              	.L92:
 1559 0034 00000000 	 .word E_EEPROM_XMC1_0
 1560              	 .cfi_endproc
 1561              	.LFE61:
 1563              	 .section .text.E_EEPROM_XMC1_lInitDirtyStateMachine,"ax",%progbits
 1564              	 .align 2
 1565              	 .code 16
 1566              	 .thumb_func
 1568              	E_EEPROM_XMC1_lInitDirtyStateMachine:
 1569              	.LFB62:
 945:../Dave/Generated/E_EEPROM_XMC1/e_eeprom_xmc1.c **** 
 946:../Dave/Generated/E_EEPROM_XMC1/e_eeprom_xmc1.c **** /*
 947:../Dave/Generated/E_EEPROM_XMC1/e_eeprom_xmc1.c ****  * Parameters(IN)  : void
 948:../Dave/Generated/E_EEPROM_XMC1/e_eeprom_xmc1.c ****  *
 949:../Dave/Generated/E_EEPROM_XMC1/e_eeprom_xmc1.c ****  * Return value   : void
 950:../Dave/Generated/E_EEPROM_XMC1/e_eeprom_xmc1.c ****  *
 951:../Dave/Generated/E_EEPROM_XMC1/e_eeprom_xmc1.c ****  * Description    : This function shall address the dirty state recovery mechanism by erasing and r
 952:../Dave/Generated/E_EEPROM_XMC1/e_eeprom_xmc1.c ****  */
 953:../Dave/Generated/E_EEPROM_XMC1/e_eeprom_xmc1.c **** static void E_EEPROM_XMC1_lInitDirtyStateMachine(void)
 954:../Dave/Generated/E_EEPROM_XMC1/e_eeprom_xmc1.c **** {
 1570              	 .loc 2 954 0
 1571              	 .cfi_startproc
 1572 0000 80B5     	 push {r7,lr}
 1573              	.LCFI45:
 1574              	 .cfi_def_cfa_offset 8
 1575              	 .cfi_offset 7,-8
 1576              	 .cfi_offset 14,-4
 1577 0002 82B0     	 sub sp,sp,#8
 1578              	.LCFI46:
 1579              	 .cfi_def_cfa_offset 16
 1580 0004 00AF     	 add r7,sp,#0
 1581              	.LCFI47:
 1582              	 .cfi_def_cfa_register 7
 955:../Dave/Generated/E_EEPROM_XMC1/e_eeprom_xmc1.c ****   E_EEPROM_XMC1_DATA_t *data_ptr;
 956:../Dave/Generated/E_EEPROM_XMC1/e_eeprom_xmc1.c ****   data_ptr = (E_EEPROM_XMC1_DATA_t*)(void*)(E_EEPROM_XMC1_HANDLE_PTR->data_ptr);
 1583              	 .loc 2 956 0
 1584 0006 274B     	 ldr r3,.L104
 1585 0008 5B68     	 ldr r3,[r3,#4]
 1586 000a 7B60     	 str r3,[r7,#4]
 957:../Dave/Generated/E_EEPROM_XMC1/e_eeprom_xmc1.c ****   switch (data_ptr->init_gc_state)
 1587              	 .loc 2 957 0
 1588 000c 7A68     	 ldr r2,[r7,#4]
 1589 000e B023     	 mov r3,#176
 1590 0010 5B00     	 lsl r3,r3,#1
 1591 0012 D358     	 ldr r3,[r2,r3]
 1592 0014 AD2B     	 cmp r3,#173
 1593 0016 1AD0     	 beq .L96
 1594 0018 04D8     	 bhi .L97
 1595 001a 0D2B     	 cmp r3,#13
 1596 001c 29D0     	 beq .L98
 1597 001e 2D2B     	 cmp r3,#45
 1598 0020 07D0     	 beq .L99
 1599 0022 38E0     	 b .L95
 1600              	.L97:
 1601 0024 D22B     	 cmp r3,#210
 1602 0026 0BD0     	 beq .L100
 1603 0028 DA2B     	 cmp r3,#218
 1604 002a 19D0     	 beq .L101
 1605 002c D02B     	 cmp r3,#208
 1606 002e 29D0     	 beq .L102
 1607 0030 31E0     	 b .L95
 1608              	.L99:
 958:../Dave/Generated/E_EEPROM_XMC1/e_eeprom_xmc1.c ****   {
 959:../Dave/Generated/E_EEPROM_XMC1/e_eeprom_xmc1.c ****     case E_EEPROM_XMC1_INIT_STATE_2D:
 960:../Dave/Generated/E_EEPROM_XMC1/e_eeprom_xmc1.c ****       /* Change the current Bank to Bank0 and recover from the dirty state to 2E  */
 961:../Dave/Generated/E_EEPROM_XMC1/e_eeprom_xmc1.c ****       data_ptr->current_bank = 0U;
 1609              	 .loc 2 961 0
 1610 0032 7B68     	 ldr r3,[r7,#4]
 1611 0034 0022     	 mov r2,#0
 1612 0036 1A62     	 str r2,[r3,#32]
 962:../Dave/Generated/E_EEPROM_XMC1/e_eeprom_xmc1.c ****       /* Transition states : 2D -> 2F -> 2E */
 963:../Dave/Generated/E_EEPROM_XMC1/e_eeprom_xmc1.c ****       E_EEPROM_XMC1_lErasedDirtyStateRecovery( E_EEPROM_XMC1_END_ERASE_OFFSET );
 1613              	 .loc 2 963 0
 1614 0038 3020     	 mov r0,#48
 1615 003a FFF7FEFF 	 bl E_EEPROM_XMC1_lErasedDirtyStateRecovery
 964:../Dave/Generated/E_EEPROM_XMC1/e_eeprom_xmc1.c ****       break;
 1616              	 .loc 2 964 0
 1617 003e 2DE0     	 b .L94
 1618              	.L100:
 965:../Dave/Generated/E_EEPROM_XMC1/e_eeprom_xmc1.c ****     case E_EEPROM_XMC1_INIT_STATE_D2:
 966:../Dave/Generated/E_EEPROM_XMC1/e_eeprom_xmc1.c ****       /* Change the current Bank to Bank1 and recover from the dirty state to E2 */
 967:../Dave/Generated/E_EEPROM_XMC1/e_eeprom_xmc1.c ****       data_ptr->current_bank = 1U;
 1619              	 .loc 2 967 0
 1620 0040 7B68     	 ldr r3,[r7,#4]
 1621 0042 0122     	 mov r2,#1
 1622 0044 1A62     	 str r2,[r3,#32]
 968:../Dave/Generated/E_EEPROM_XMC1/e_eeprom_xmc1.c ****       /* Transition states : D2 -> F2 -> E2 */
 969:../Dave/Generated/E_EEPROM_XMC1/e_eeprom_xmc1.c ****       E_EEPROM_XMC1_lErasedDirtyStateRecovery( E_EEPROM_XMC1_END_ERASE_OFFSET );
 1623              	 .loc 2 969 0
 1624 0046 3020     	 mov r0,#48
 1625 0048 FFF7FEFF 	 bl E_EEPROM_XMC1_lErasedDirtyStateRecovery
 970:../Dave/Generated/E_EEPROM_XMC1/e_eeprom_xmc1.c ****       break;
 1626              	 .loc 2 970 0
 1627 004c 26E0     	 b .L94
 1628              	.L96:
 971:../Dave/Generated/E_EEPROM_XMC1/e_eeprom_xmc1.c ****     case E_EEPROM_XMC1_INIT_STATE_AD:
 972:../Dave/Generated/E_EEPROM_XMC1/e_eeprom_xmc1.c ****       /* Change the current Bank to Bank0 and recover from the dirty state to 2E */
 973:../Dave/Generated/E_EEPROM_XMC1/e_eeprom_xmc1.c ****       data_ptr->current_bank = 0U;
 1629              	 .loc 2 973 0
 1630 004e 7B68     	 ldr r3,[r7,#4]
 1631 0050 0022     	 mov r2,#0
 1632 0052 1A62     	 str r2,[r3,#32]
 974:../Dave/Generated/E_EEPROM_XMC1/e_eeprom_xmc1.c ****       /* Transition states : AD -> A0 -> GC PROCESS -> 2E */
 975:../Dave/Generated/E_EEPROM_XMC1/e_eeprom_xmc1.c ****       E_EEPROM_XMC1_lCopyProcessDirtyStateRecovery( E_EEPROM_XMC1_COPY_COMPLETED ,
 1633              	 .loc 2 975 0
 1634 0054 0020     	 mov r0,#0
 1635 0056 0721     	 mov r1,#7
 1636 0058 0122     	 mov r2,#1
 1637 005a FFF7FEFF 	 bl E_EEPROM_XMC1_lCopyProcessDirtyStateRecovery
 976:../Dave/Generated/E_EEPROM_XMC1/e_eeprom_xmc1.c ****       E_EEPROM_XMC1_GC_NEXT_BANK_VALID , 1U);
 977:../Dave/Generated/E_EEPROM_XMC1/e_eeprom_xmc1.c ****       break;
 1638              	 .loc 2 977 0
 1639 005e 1DE0     	 b .L94
 1640              	.L101:
 978:../Dave/Generated/E_EEPROM_XMC1/e_eeprom_xmc1.c ****     case E_EEPROM_XMC1_INIT_STATE_DA:
 979:../Dave/Generated/E_EEPROM_XMC1/e_eeprom_xmc1.c ****       /* Change the current Bank to Bank1  and recover from the dirty state to E2*/
 980:../Dave/Generated/E_EEPROM_XMC1/e_eeprom_xmc1.c ****       data_ptr->current_bank = 1U;
 1641              	 .loc 2 980 0
 1642 0060 7B68     	 ldr r3,[r7,#4]
 1643 0062 0122     	 mov r2,#1
 1644 0064 1A62     	 str r2,[r3,#32]
 981:../Dave/Generated/E_EEPROM_XMC1/e_eeprom_xmc1.c ****       /* Transition states : DA -> 0A -> GC PROCESS -> E2 */
 982:../Dave/Generated/E_EEPROM_XMC1/e_eeprom_xmc1.c ****       E_EEPROM_XMC1_lCopyProcessDirtyStateRecovery( E_EEPROM_XMC1_COPY_COMPLETED ,
 1645              	 .loc 2 982 0
 1646 0066 0020     	 mov r0,#0
 1647 0068 0721     	 mov r1,#7
 1648 006a 0122     	 mov r2,#1
 1649 006c FFF7FEFF 	 bl E_EEPROM_XMC1_lCopyProcessDirtyStateRecovery
 983:../Dave/Generated/E_EEPROM_XMC1/e_eeprom_xmc1.c ****       E_EEPROM_XMC1_GC_NEXT_BANK_VALID , 1U);
 984:../Dave/Generated/E_EEPROM_XMC1/e_eeprom_xmc1.c ****       break;
 1650              	 .loc 2 984 0
 1651 0070 14E0     	 b .L94
 1652              	.L98:
 985:../Dave/Generated/E_EEPROM_XMC1/e_eeprom_xmc1.c ****     case E_EEPROM_XMC1_INIT_STATE_0D:
 986:../Dave/Generated/E_EEPROM_XMC1/e_eeprom_xmc1.c ****       /* Change the current Bank to Bank1 and recover from the dirty state to E2 */
 987:../Dave/Generated/E_EEPROM_XMC1/e_eeprom_xmc1.c ****       data_ptr->current_bank = 1U;
 1653              	 .loc 2 987 0
 1654 0072 7B68     	 ldr r3,[r7,#4]
 1655 0074 0122     	 mov r2,#1
 1656 0076 1A62     	 str r2,[r3,#32]
 988:../Dave/Generated/E_EEPROM_XMC1/e_eeprom_xmc1.c ****       /* Transition states : 0D -> 02 -> GC PROCESS -> E2 */
 989:../Dave/Generated/E_EEPROM_XMC1/e_eeprom_xmc1.c ****       E_EEPROM_XMC1_lCopyProcessDirtyStateRecovery( E_EEPROM_XMC1_VALID_STATE ,
 1657              	 .loc 2 989 0
 1658 0078 2020     	 mov r0,#32
 1659 007a 0321     	 mov r1,#3
 1660 007c 0022     	 mov r2,#0
 1661 007e FFF7FEFF 	 bl E_EEPROM_XMC1_lCopyProcessDirtyStateRecovery
 990:../Dave/Generated/E_EEPROM_XMC1/e_eeprom_xmc1.c ****       E_EEPROM_XMC1_GC_ERASE_PREV_BANK , 0U);
 991:../Dave/Generated/E_EEPROM_XMC1/e_eeprom_xmc1.c ****       break;
 1662              	 .loc 2 991 0
 1663 0082 0BE0     	 b .L94
 1664              	.L102:
 992:../Dave/Generated/E_EEPROM_XMC1/e_eeprom_xmc1.c ****     case E_EEPROM_XMC1_INIT_STATE_D0:
 993:../Dave/Generated/E_EEPROM_XMC1/e_eeprom_xmc1.c ****       /* Change the current Bank to Bank0 and recover from the dirty state to 2E */
 994:../Dave/Generated/E_EEPROM_XMC1/e_eeprom_xmc1.c ****       data_ptr->current_bank = 0U;
 1665              	 .loc 2 994 0
 1666 0084 7B68     	 ldr r3,[r7,#4]
 1667 0086 0022     	 mov r2,#0
 1668 0088 1A62     	 str r2,[r3,#32]
 995:../Dave/Generated/E_EEPROM_XMC1/e_eeprom_xmc1.c ****       /* Transition states : D0 -> 20 -> GC PROCESS -> 2E */
 996:../Dave/Generated/E_EEPROM_XMC1/e_eeprom_xmc1.c ****       E_EEPROM_XMC1_lCopyProcessDirtyStateRecovery( E_EEPROM_XMC1_VALID_STATE ,
 1669              	 .loc 2 996 0
 1670 008a 2020     	 mov r0,#32
 1671 008c 0321     	 mov r1,#3
 1672 008e 0022     	 mov r2,#0
 1673 0090 FFF7FEFF 	 bl E_EEPROM_XMC1_lCopyProcessDirtyStateRecovery
 997:../Dave/Generated/E_EEPROM_XMC1/e_eeprom_xmc1.c ****       E_EEPROM_XMC1_GC_ERASE_PREV_BANK , 0U);
 998:../Dave/Generated/E_EEPROM_XMC1/e_eeprom_xmc1.c ****       break;
 1674              	 .loc 2 998 0
 1675 0094 02E0     	 b .L94
 1676              	.L95:
 999:../Dave/Generated/E_EEPROM_XMC1/e_eeprom_xmc1.c ****     default:
1000:../Dave/Generated/E_EEPROM_XMC1/e_eeprom_xmc1.c ****       /* Any state apart from the normal states is considered as Illegal state */
1001:../Dave/Generated/E_EEPROM_XMC1/e_eeprom_xmc1.c ****       /* Transition states : Illegal -> PREPARE DFLASH -> 2E */
1002:../Dave/Generated/E_EEPROM_XMC1/e_eeprom_xmc1.c ****       E_EEPROM_XMC1_lInitllegalStateMachine();
 1677              	 .loc 2 1002 0
 1678 0096 FFF7FEFF 	 bl E_EEPROM_XMC1_lInitllegalStateMachine
1003:../Dave/Generated/E_EEPROM_XMC1/e_eeprom_xmc1.c ****       break;
 1679              	 .loc 2 1003 0
 1680 009a C046     	 mov r8,r8
 1681              	.L94:
1004:../Dave/Generated/E_EEPROM_XMC1/e_eeprom_xmc1.c ****   }
1005:../Dave/Generated/E_EEPROM_XMC1/e_eeprom_xmc1.c **** }
 1682              	 .loc 2 1005 0
 1683 009c BD46     	 mov sp,r7
 1684 009e 02B0     	 add sp,sp,#8
 1685              	 
 1686 00a0 80BD     	 pop {r7,pc}
 1687              	.L105:
 1688 00a2 C046     	 .align 2
 1689              	.L104:
 1690 00a4 00000000 	 .word E_EEPROM_XMC1_0
 1691              	 .cfi_endproc
 1692              	.LFE62:
 1694              	 .section .text.E_EEPROM_XMC1_lInitNormalStateMachine,"ax",%progbits
 1695              	 .align 2
 1696              	 .code 16
 1697              	 .thumb_func
 1699              	E_EEPROM_XMC1_lInitNormalStateMachine:
 1700              	.LFB63:
1006:../Dave/Generated/E_EEPROM_XMC1/e_eeprom_xmc1.c **** 
1007:../Dave/Generated/E_EEPROM_XMC1/e_eeprom_xmc1.c **** /*
1008:../Dave/Generated/E_EEPROM_XMC1/e_eeprom_xmc1.c **** * Parameters(IN)  : void
1009:../Dave/Generated/E_EEPROM_XMC1/e_eeprom_xmc1.c **** *
1010:../Dave/Generated/E_EEPROM_XMC1/e_eeprom_xmc1.c **** * Return value   : void
1011:../Dave/Generated/E_EEPROM_XMC1/e_eeprom_xmc1.c **** *
1012:../Dave/Generated/E_EEPROM_XMC1/e_eeprom_xmc1.c **** * Description    : Check which normal bank state machine process has executed.
1013:../Dave/Generated/E_EEPROM_XMC1/e_eeprom_xmc1.c **** */
1014:../Dave/Generated/E_EEPROM_XMC1/e_eeprom_xmc1.c **** static void E_EEPROM_XMC1_lInitNormalStateMachine(void)
1015:../Dave/Generated/E_EEPROM_XMC1/e_eeprom_xmc1.c **** {
 1701              	 .loc 2 1015 0
 1702              	 .cfi_startproc
 1703 0000 80B5     	 push {r7,lr}
 1704              	.LCFI48:
 1705              	 .cfi_def_cfa_offset 8
 1706              	 .cfi_offset 7,-8
 1707              	 .cfi_offset 14,-4
 1708 0002 00AF     	 add r7,sp,#0
 1709              	.LCFI49:
 1710              	 .cfi_def_cfa_register 7
1016:../Dave/Generated/E_EEPROM_XMC1/e_eeprom_xmc1.c ****   /* Check if the state matches with any of the normal marker states with active bank as bank-0*/
1017:../Dave/Generated/E_EEPROM_XMC1/e_eeprom_xmc1.c ****   if (E_EEPROM_XMC1_lInitBank0NormalStateMachine() == 0U)
 1711              	 .loc 2 1017 0
 1712 0004 FFF7FEFF 	 bl E_EEPROM_XMC1_lInitBank0NormalStateMachine
 1713 0008 031E     	 sub r3,r0,#0
 1714 000a 09D1     	 bne .L106
1018:../Dave/Generated/E_EEPROM_XMC1/e_eeprom_xmc1.c ****   {
1019:../Dave/Generated/E_EEPROM_XMC1/e_eeprom_xmc1.c ****     /* Check if the state matches with any of the normal marker states with active bank as bank-1*/
1020:../Dave/Generated/E_EEPROM_XMC1/e_eeprom_xmc1.c ****     if (E_EEPROM_XMC1_lInitBank1NormalStateMachine() == 0U)
 1715              	 .loc 2 1020 0
 1716 000c FFF7FEFF 	 bl E_EEPROM_XMC1_lInitBank1NormalStateMachine
 1717 0010 031E     	 sub r3,r0,#0
 1718 0012 05D1     	 bne .L106
1021:../Dave/Generated/E_EEPROM_XMC1/e_eeprom_xmc1.c ****     {
1022:../Dave/Generated/E_EEPROM_XMC1/e_eeprom_xmc1.c ****       /* Check if the state matches with any other intermediate states from where a recover is poss
1023:../Dave/Generated/E_EEPROM_XMC1/e_eeprom_xmc1.c ****       if (E_EEPROM_XMC1_lInitOtherNormalStateMachine() == 0U)
 1719              	 .loc 2 1023 0
 1720 0014 FFF7FEFF 	 bl E_EEPROM_XMC1_lInitOtherNormalStateMachine
 1721 0018 031E     	 sub r3,r0,#0
 1722 001a 01D1     	 bne .L106
1024:../Dave/Generated/E_EEPROM_XMC1/e_eeprom_xmc1.c ****       {
1025:../Dave/Generated/E_EEPROM_XMC1/e_eeprom_xmc1.c ****         /* If no matches found then go to illegal state and try to recover by erasing complete DFLA
1026:../Dave/Generated/E_EEPROM_XMC1/e_eeprom_xmc1.c ****         E_EEPROM_XMC1_lInitllegalStateMachine();
 1723              	 .loc 2 1026 0
 1724 001c FFF7FEFF 	 bl E_EEPROM_XMC1_lInitllegalStateMachine
 1725              	.L106:
1027:../Dave/Generated/E_EEPROM_XMC1/e_eeprom_xmc1.c ****       }
1028:../Dave/Generated/E_EEPROM_XMC1/e_eeprom_xmc1.c ****     }
1029:../Dave/Generated/E_EEPROM_XMC1/e_eeprom_xmc1.c ****   }
1030:../Dave/Generated/E_EEPROM_XMC1/e_eeprom_xmc1.c **** }
 1726              	 .loc 2 1030 0
 1727 0020 BD46     	 mov sp,r7
 1728              	 
 1729 0022 80BD     	 pop {r7,pc}
 1730              	 .cfi_endproc
 1731              	.LFE63:
 1733              	 .section .text.E_EEPROM_XMC1_lInitBank0NormalStateMachine,"ax",%progbits
 1734              	 .align 2
 1735              	 .code 16
 1736              	 .thumb_func
 1738              	E_EEPROM_XMC1_lInitBank0NormalStateMachine:
 1739              	.LFB64:
1031:../Dave/Generated/E_EEPROM_XMC1/e_eeprom_xmc1.c **** 
1032:../Dave/Generated/E_EEPROM_XMC1/e_eeprom_xmc1.c **** /*
1033:../Dave/Generated/E_EEPROM_XMC1/e_eeprom_xmc1.c **** * Parameters(IN)  : void
1034:../Dave/Generated/E_EEPROM_XMC1/e_eeprom_xmc1.c **** *
1035:../Dave/Generated/E_EEPROM_XMC1/e_eeprom_xmc1.c **** * Return value    : uint32_t : ( 1= state_found / 0 = State not found )
1036:../Dave/Generated/E_EEPROM_XMC1/e_eeprom_xmc1.c **** *
1037:../Dave/Generated/E_EEPROM_XMC1/e_eeprom_xmc1.c **** * Description     : Execute bank 0 state machine process and return the found states.
1038:../Dave/Generated/E_EEPROM_XMC1/e_eeprom_xmc1.c **** */
1039:../Dave/Generated/E_EEPROM_XMC1/e_eeprom_xmc1.c **** static uint32_t E_EEPROM_XMC1_lInitBank0NormalStateMachine(void)
1040:../Dave/Generated/E_EEPROM_XMC1/e_eeprom_xmc1.c **** {
 1740              	 .loc 2 1040 0
 1741              	 .cfi_startproc
 1742 0000 80B5     	 push {r7,lr}
 1743              	.LCFI50:
 1744              	 .cfi_def_cfa_offset 8
 1745              	 .cfi_offset 7,-8
 1746              	 .cfi_offset 14,-4
 1747 0002 82B0     	 sub sp,sp,#8
 1748              	.LCFI51:
 1749              	 .cfi_def_cfa_offset 16
 1750 0004 00AF     	 add r7,sp,#0
 1751              	.LCFI52:
 1752              	 .cfi_def_cfa_register 7
1041:../Dave/Generated/E_EEPROM_XMC1/e_eeprom_xmc1.c ****   uint32_t state_found;
1042:../Dave/Generated/E_EEPROM_XMC1/e_eeprom_xmc1.c ****   E_EEPROM_XMC1_DATA_t *data_ptr;
1043:../Dave/Generated/E_EEPROM_XMC1/e_eeprom_xmc1.c ****   data_ptr = (E_EEPROM_XMC1_DATA_t*)(void*)(E_EEPROM_XMC1_HANDLE_PTR->data_ptr);
 1753              	 .loc 2 1043 0
 1754 0006 234B     	 ldr r3,.L118
 1755 0008 5B68     	 ldr r3,[r3,#4]
 1756 000a 3B60     	 str r3,[r7]
1044:../Dave/Generated/E_EEPROM_XMC1/e_eeprom_xmc1.c ****   
1045:../Dave/Generated/E_EEPROM_XMC1/e_eeprom_xmc1.c ****   state_found = 1U;
 1757              	 .loc 2 1045 0
 1758 000c 0123     	 mov r3,#1
 1759 000e 7B60     	 str r3,[r7,#4]
1046:../Dave/Generated/E_EEPROM_XMC1/e_eeprom_xmc1.c ****   
1047:../Dave/Generated/E_EEPROM_XMC1/e_eeprom_xmc1.c ****   switch (data_ptr->init_gc_state)
 1760              	 .loc 2 1047 0
 1761 0010 3A68     	 ldr r2,[r7]
 1762 0012 B023     	 mov r3,#176
 1763 0014 5B00     	 lsl r3,r3,#1
 1764 0016 D358     	 ldr r3,[r2,r3]
 1765 0018 2E2B     	 cmp r3,#46
 1766 001a 0AD0     	 beq .L110
 1767 001c 04D8     	 bhi .L111
 1768 001e 202B     	 cmp r3,#32
 1769 0020 1FD0     	 beq .L112
 1770 0022 2A2B     	 cmp r3,#42
 1771 0024 0DD0     	 beq .L113
 1772 0026 2CE0     	 b .L109
 1773              	.L111:
 1774 0028 2F2B     	 cmp r3,#47
 1775 002a 22D0     	 beq .L114
 1776 002c A02B     	 cmp r3,#160
 1777 002e 10D0     	 beq .L115
 1778 0030 27E0     	 b .L109
 1779              	.L110:
1048:../Dave/Generated/E_EEPROM_XMC1/e_eeprom_xmc1.c ****   {
1049:../Dave/Generated/E_EEPROM_XMC1/e_eeprom_xmc1.c ****     /*
1050:../Dave/Generated/E_EEPROM_XMC1/e_eeprom_xmc1.c ****      * Normal Data write in Bank-0 interrupted (2E), Next step = Cache Update and get ready to acce
1051:../Dave/Generated/E_EEPROM_XMC1/e_eeprom_xmc1.c ****      * Transition states : Nothing
1052:../Dave/Generated/E_EEPROM_XMC1/e_eeprom_xmc1.c ****      */
1053:../Dave/Generated/E_EEPROM_XMC1/e_eeprom_xmc1.c ****     case E_EEPROM_XMC1_INIT_NORMAL1:
1054:../Dave/Generated/E_EEPROM_XMC1/e_eeprom_xmc1.c ****     data_ptr->current_bank = 0U;
 1780              	 .loc 2 1054 0
 1781 0032 3B68     	 ldr r3,[r7]
 1782 0034 0022     	 mov r2,#0
 1783 0036 1A62     	 str r2,[r3,#32]
1055:../Dave/Generated/E_EEPROM_XMC1/e_eeprom_xmc1.c ****       E_EEPROM_XMC1_lInitGcNormalStates( E_EEPROM_XMC1_GC_IDLE, E_EEPROM_XMC1_EXECUTE_CACHE_UPDATE)
 1784              	 .loc 2 1055 0
 1785 0038 0A20     	 mov r0,#10
 1786 003a 0021     	 mov r1,#0
 1787 003c FFF7FEFF 	 bl E_EEPROM_XMC1_lInitGcNormalStates
1056:../Dave/Generated/E_EEPROM_XMC1/e_eeprom_xmc1.c ****       break;
 1788              	 .loc 2 1056 0
 1789 0040 22E0     	 b .L116
 1790              	.L113:
1057:../Dave/Generated/E_EEPROM_XMC1/e_eeprom_xmc1.c ****     
1058:../Dave/Generated/E_EEPROM_XMC1/e_eeprom_xmc1.c ****     /*
1059:../Dave/Generated/E_EEPROM_XMC1/e_eeprom_xmc1.c ****      * Data copy from Bank0 to Bank1 interrupted (2A), Next step = Erasing Bank-1 and restart copy 
1060:../Dave/Generated/E_EEPROM_XMC1/e_eeprom_xmc1.c ****      * Transition states : (2A) -> ERASE_BANK0 (2F) -> 2E -> GC_PROCESS (2A -> 0A -> 20 -> F2 -> E2
1061:../Dave/Generated/E_EEPROM_XMC1/e_eeprom_xmc1.c ****      */
1062:../Dave/Generated/E_EEPROM_XMC1/e_eeprom_xmc1.c ****     case E_EEPROM_XMC1_INIT_DATA_COPY1:
1063:../Dave/Generated/E_EEPROM_XMC1/e_eeprom_xmc1.c ****       data_ptr->current_bank = 0U;
 1791              	 .loc 2 1063 0
 1792 0042 3B68     	 ldr r3,[r7]
 1793 0044 0022     	 mov r2,#0
 1794 0046 1A62     	 str r2,[r3,#32]
1064:../Dave/Generated/E_EEPROM_XMC1/e_eeprom_xmc1.c ****       E_EEPROM_XMC1_lInitGcDataCopyState( E_EEPROM_XMC1_GC_REQUESTED, E_EEPROM_XMC1_END_ERASE_OFFSE
 1795              	 .loc 2 1064 0
 1796 0048 0420     	 mov r0,#4
 1797 004a 3021     	 mov r1,#48
 1798 004c FFF7FEFF 	 bl E_EEPROM_XMC1_lInitGcDataCopyState
1065:../Dave/Generated/E_EEPROM_XMC1/e_eeprom_xmc1.c ****       break;
 1799              	 .loc 2 1065 0
 1800 0050 1AE0     	 b .L116
 1801              	.L115:
1066:../Dave/Generated/E_EEPROM_XMC1/e_eeprom_xmc1.c ****     
1067:../Dave/Generated/E_EEPROM_XMC1/e_eeprom_xmc1.c ****     /*
1068:../Dave/Generated/E_EEPROM_XMC1/e_eeprom_xmc1.c ****      * Interrupted after copy completion from Bank1 to Bank0 (A0),Next step = Writing Valid state i
1069:../Dave/Generated/E_EEPROM_XMC1/e_eeprom_xmc1.c ****      * Transition states : (A0) -> (20) -> GC_PROCESS (2F -> 2E)
1070:../Dave/Generated/E_EEPROM_XMC1/e_eeprom_xmc1.c ****      */
1071:../Dave/Generated/E_EEPROM_XMC1/e_eeprom_xmc1.c ****     case E_EEPROM_XMC1_INIT_COPY_DONE1:
1072:../Dave/Generated/E_EEPROM_XMC1/e_eeprom_xmc1.c ****       data_ptr->current_bank = 0U;
 1802              	 .loc 2 1072 0
 1803 0052 3B68     	 ldr r3,[r7]
 1804 0054 0022     	 mov r2,#0
 1805 0056 1A62     	 str r2,[r3,#32]
1073:../Dave/Generated/E_EEPROM_XMC1/e_eeprom_xmc1.c ****       E_EEPROM_XMC1_lInitGcNormalStates( E_EEPROM_XMC1_GC_NEXT_BANK_VALID, E_EEPROM_XMC1_EXECUTE_GC
 1806              	 .loc 2 1073 0
 1807 0058 0720     	 mov r0,#7
 1808 005a 0221     	 mov r1,#2
 1809 005c FFF7FEFF 	 bl E_EEPROM_XMC1_lInitGcNormalStates
1074:../Dave/Generated/E_EEPROM_XMC1/e_eeprom_xmc1.c ****       break;
 1810              	 .loc 2 1074 0
 1811 0060 12E0     	 b .L116
 1812              	.L112:
1075:../Dave/Generated/E_EEPROM_XMC1/e_eeprom_xmc1.c ****     
1076:../Dave/Generated/E_EEPROM_XMC1/e_eeprom_xmc1.c ****     /*
1077:../Dave/Generated/E_EEPROM_XMC1/e_eeprom_xmc1.c ****      * Interrupted after writing valid state to Bank0 (20), Next step = Erase of old redundant Bank
1078:../Dave/Generated/E_EEPROM_XMC1/e_eeprom_xmc1.c ****      * Transition states : (20) -> (2F) -> GC_PROCESS (2E)
1079:../Dave/Generated/E_EEPROM_XMC1/e_eeprom_xmc1.c ****      */
1080:../Dave/Generated/E_EEPROM_XMC1/e_eeprom_xmc1.c ****     case E_EEPROM_XMC1_INIT_NEXT_VALID1:
1081:../Dave/Generated/E_EEPROM_XMC1/e_eeprom_xmc1.c ****       data_ptr->current_bank = 0U;
 1813              	 .loc 2 1081 0
 1814 0062 3B68     	 ldr r3,[r7]
 1815 0064 0022     	 mov r2,#0
 1816 0066 1A62     	 str r2,[r3,#32]
1082:../Dave/Generated/E_EEPROM_XMC1/e_eeprom_xmc1.c ****       E_EEPROM_XMC1_lInitGcNormalStates( E_EEPROM_XMC1_GC_ERASE_PREV_BANK, E_EEPROM_XMC1_EXECUTE_GC
 1817              	 .loc 2 1082 0
 1818 0068 0320     	 mov r0,#3
 1819 006a 0221     	 mov r1,#2
 1820 006c FFF7FEFF 	 bl E_EEPROM_XMC1_lInitGcNormalStates
1083:../Dave/Generated/E_EEPROM_XMC1/e_eeprom_xmc1.c ****       break;
 1821              	 .loc 2 1083 0
 1822 0070 0AE0     	 b .L116
 1823              	.L114:
1084:../Dave/Generated/E_EEPROM_XMC1/e_eeprom_xmc1.c ****     
1085:../Dave/Generated/E_EEPROM_XMC1/e_eeprom_xmc1.c ****     /*
1086:../Dave/Generated/E_EEPROM_XMC1/e_eeprom_xmc1.c ****      * Interrupted after erase of old bank completed(2F), Next step = Mark erased Bank-1 with Forma
1087:../Dave/Generated/E_EEPROM_XMC1/e_eeprom_xmc1.c ****      * Transition states : (2F) -> GC_PROCESS (2E)
1088:../Dave/Generated/E_EEPROM_XMC1/e_eeprom_xmc1.c ****      */
1089:../Dave/Generated/E_EEPROM_XMC1/e_eeprom_xmc1.c ****     case E_EEPROM_XMC1_INIT_END_ERASE1:
1090:../Dave/Generated/E_EEPROM_XMC1/e_eeprom_xmc1.c ****       data_ptr->current_bank = 0U;
 1824              	 .loc 2 1090 0
 1825 0072 3B68     	 ldr r3,[r7]
 1826 0074 0022     	 mov r2,#0
 1827 0076 1A62     	 str r2,[r3,#32]
1091:../Dave/Generated/E_EEPROM_XMC1/e_eeprom_xmc1.c ****       E_EEPROM_XMC1_lInitGcNormalStates( E_EEPROM_XMC1_GC_MARK_END_ERASE1, E_EEPROM_XMC1_EXECUTE_GC
 1828              	 .loc 2 1091 0
 1829 0078 0820     	 mov r0,#8
 1830 007a 0221     	 mov r1,#2
 1831 007c FFF7FEFF 	 bl E_EEPROM_XMC1_lInitGcNormalStates
1092:../Dave/Generated/E_EEPROM_XMC1/e_eeprom_xmc1.c ****       break;
 1832              	 .loc 2 1092 0
 1833 0080 02E0     	 b .L116
 1834              	.L109:
1093:../Dave/Generated/E_EEPROM_XMC1/e_eeprom_xmc1.c ****     
1094:../Dave/Generated/E_EEPROM_XMC1/e_eeprom_xmc1.c ****     default:
1095:../Dave/Generated/E_EEPROM_XMC1/e_eeprom_xmc1.c ****       state_found = 0U;
 1835              	 .loc 2 1095 0
 1836 0082 0023     	 mov r3,#0
 1837 0084 7B60     	 str r3,[r7,#4]
1096:../Dave/Generated/E_EEPROM_XMC1/e_eeprom_xmc1.c ****       break;
 1838              	 .loc 2 1096 0
 1839 0086 C046     	 mov r8,r8
 1840              	.L116:
1097:../Dave/Generated/E_EEPROM_XMC1/e_eeprom_xmc1.c ****   }
1098:../Dave/Generated/E_EEPROM_XMC1/e_eeprom_xmc1.c ****   return (state_found);
 1841              	 .loc 2 1098 0
 1842 0088 7B68     	 ldr r3,[r7,#4]
1099:../Dave/Generated/E_EEPROM_XMC1/e_eeprom_xmc1.c **** }
 1843              	 .loc 2 1099 0
 1844 008a 181C     	 mov r0,r3
 1845 008c BD46     	 mov sp,r7
 1846 008e 02B0     	 add sp,sp,#8
 1847              	 
 1848 0090 80BD     	 pop {r7,pc}
 1849              	.L119:
 1850 0092 C046     	 .align 2
 1851              	.L118:
 1852 0094 00000000 	 .word E_EEPROM_XMC1_0
 1853              	 .cfi_endproc
 1854              	.LFE64:
 1856              	 .section .text.E_EEPROM_XMC1_lInitBank1NormalStateMachine,"ax",%progbits
 1857              	 .align 2
 1858              	 .code 16
 1859              	 .thumb_func
 1861              	E_EEPROM_XMC1_lInitBank1NormalStateMachine:
 1862              	.LFB65:
1100:../Dave/Generated/E_EEPROM_XMC1/e_eeprom_xmc1.c **** 
1101:../Dave/Generated/E_EEPROM_XMC1/e_eeprom_xmc1.c **** /*
1102:../Dave/Generated/E_EEPROM_XMC1/e_eeprom_xmc1.c **** * Parameters(IN)  : void
1103:../Dave/Generated/E_EEPROM_XMC1/e_eeprom_xmc1.c **** *
1104:../Dave/Generated/E_EEPROM_XMC1/e_eeprom_xmc1.c **** * Return value    : uint32_t : ( 1= state_found / 0 = State not found )
1105:../Dave/Generated/E_EEPROM_XMC1/e_eeprom_xmc1.c **** *
1106:../Dave/Generated/E_EEPROM_XMC1/e_eeprom_xmc1.c **** * Description     : Execute bank 1 state machine process and return the found states.
1107:../Dave/Generated/E_EEPROM_XMC1/e_eeprom_xmc1.c **** */
1108:../Dave/Generated/E_EEPROM_XMC1/e_eeprom_xmc1.c **** static uint32_t E_EEPROM_XMC1_lInitBank1NormalStateMachine(void)
1109:../Dave/Generated/E_EEPROM_XMC1/e_eeprom_xmc1.c **** {
 1863              	 .loc 2 1109 0
 1864              	 .cfi_startproc
 1865 0000 80B5     	 push {r7,lr}
 1866              	.LCFI53:
 1867              	 .cfi_def_cfa_offset 8
 1868              	 .cfi_offset 7,-8
 1869              	 .cfi_offset 14,-4
 1870 0002 82B0     	 sub sp,sp,#8
 1871              	.LCFI54:
 1872              	 .cfi_def_cfa_offset 16
 1873 0004 00AF     	 add r7,sp,#0
 1874              	.LCFI55:
 1875              	 .cfi_def_cfa_register 7
1110:../Dave/Generated/E_EEPROM_XMC1/e_eeprom_xmc1.c ****   uint32_t state_found;
1111:../Dave/Generated/E_EEPROM_XMC1/e_eeprom_xmc1.c ****   E_EEPROM_XMC1_DATA_t *data_ptr;
1112:../Dave/Generated/E_EEPROM_XMC1/e_eeprom_xmc1.c ****   data_ptr = (E_EEPROM_XMC1_DATA_t*)(void*)(E_EEPROM_XMC1_HANDLE_PTR->data_ptr);
 1876              	 .loc 2 1112 0
 1877 0006 234B     	 ldr r3,.L130
 1878 0008 5B68     	 ldr r3,[r3,#4]
 1879 000a 3B60     	 str r3,[r7]
1113:../Dave/Generated/E_EEPROM_XMC1/e_eeprom_xmc1.c ****   
1114:../Dave/Generated/E_EEPROM_XMC1/e_eeprom_xmc1.c ****   state_found = 1U;
 1880              	 .loc 2 1114 0
 1881 000c 0123     	 mov r3,#1
 1882 000e 7B60     	 str r3,[r7,#4]
1115:../Dave/Generated/E_EEPROM_XMC1/e_eeprom_xmc1.c ****   
1116:../Dave/Generated/E_EEPROM_XMC1/e_eeprom_xmc1.c ****   switch (data_ptr->init_gc_state)
 1883              	 .loc 2 1116 0
 1884 0010 3A68     	 ldr r2,[r7]
 1885 0012 B023     	 mov r3,#176
 1886 0014 5B00     	 lsl r3,r3,#1
 1887 0016 D358     	 ldr r3,[r2,r3]
 1888 0018 A22B     	 cmp r3,#162
 1889 001a 12D0     	 beq .L122
 1890 001c 04D8     	 bhi .L123
 1891 001e 022B     	 cmp r3,#2
 1892 0020 1FD0     	 beq .L124
 1893 0022 0A2B     	 cmp r3,#10
 1894 0024 15D0     	 beq .L125
 1895 0026 2CE0     	 b .L121
 1896              	.L123:
 1897 0028 E22B     	 cmp r3,#226
 1898 002a 02D0     	 beq .L126
 1899 002c F22B     	 cmp r3,#242
 1900 002e 20D0     	 beq .L127
 1901 0030 27E0     	 b .L121
 1902              	.L126:
1117:../Dave/Generated/E_EEPROM_XMC1/e_eeprom_xmc1.c ****   {
1118:../Dave/Generated/E_EEPROM_XMC1/e_eeprom_xmc1.c ****     /*
1119:../Dave/Generated/E_EEPROM_XMC1/e_eeprom_xmc1.c ****      * Normal Data write in Bank-1 interrupted (E2), Next step = Cache Update and get ready to acce
1120:../Dave/Generated/E_EEPROM_XMC1/e_eeprom_xmc1.c ****      * Transition states : Nothing
1121:../Dave/Generated/E_EEPROM_XMC1/e_eeprom_xmc1.c ****      */
1122:../Dave/Generated/E_EEPROM_XMC1/e_eeprom_xmc1.c ****     case E_EEPROM_XMC1_INIT_NORMAL2:
1123:../Dave/Generated/E_EEPROM_XMC1/e_eeprom_xmc1.c ****       data_ptr->current_bank = 1U;
 1903              	 .loc 2 1123 0
 1904 0032 3B68     	 ldr r3,[r7]
 1905 0034 0122     	 mov r2,#1
 1906 0036 1A62     	 str r2,[r3,#32]
1124:../Dave/Generated/E_EEPROM_XMC1/e_eeprom_xmc1.c ****       E_EEPROM_XMC1_lInitGcNormalStates( E_EEPROM_XMC1_GC_IDLE, E_EEPROM_XMC1_EXECUTE_CACHE_UPDATE)
 1907              	 .loc 2 1124 0
 1908 0038 0A20     	 mov r0,#10
 1909 003a 0021     	 mov r1,#0
 1910 003c FFF7FEFF 	 bl E_EEPROM_XMC1_lInitGcNormalStates
1125:../Dave/Generated/E_EEPROM_XMC1/e_eeprom_xmc1.c ****       break;
 1911              	 .loc 2 1125 0
 1912 0040 22E0     	 b .L128
 1913              	.L122:
1126:../Dave/Generated/E_EEPROM_XMC1/e_eeprom_xmc1.c ****     
1127:../Dave/Generated/E_EEPROM_XMC1/e_eeprom_xmc1.c ****     /*
1128:../Dave/Generated/E_EEPROM_XMC1/e_eeprom_xmc1.c ****      * Data copy from Bank1 to Bank0 interrupted (A2), Next step = Erasing Bank-0 and restart copy 
1129:../Dave/Generated/E_EEPROM_XMC1/e_eeprom_xmc1.c ****      * Transition states : (A2) -> ERASE_BANK0 (F2) -> E2 -> GC_PROCESS (A2 -> A0 -> 20 -> 2F -> 2E
1130:../Dave/Generated/E_EEPROM_XMC1/e_eeprom_xmc1.c ****      */
1131:../Dave/Generated/E_EEPROM_XMC1/e_eeprom_xmc1.c ****     case E_EEPROM_XMC1_INIT_DATA_COPY2:
1132:../Dave/Generated/E_EEPROM_XMC1/e_eeprom_xmc1.c ****       data_ptr->current_bank = 1U;
 1914              	 .loc 2 1132 0
 1915 0042 3B68     	 ldr r3,[r7]
 1916 0044 0122     	 mov r2,#1
 1917 0046 1A62     	 str r2,[r3,#32]
1133:../Dave/Generated/E_EEPROM_XMC1/e_eeprom_xmc1.c ****       E_EEPROM_XMC1_lInitGcDataCopyState( E_EEPROM_XMC1_GC_REQUESTED, E_EEPROM_XMC1_END_ERASE_OFFSE
 1918              	 .loc 2 1133 0
 1919 0048 0420     	 mov r0,#4
 1920 004a 3021     	 mov r1,#48
 1921 004c FFF7FEFF 	 bl E_EEPROM_XMC1_lInitGcDataCopyState
1134:../Dave/Generated/E_EEPROM_XMC1/e_eeprom_xmc1.c ****       break;
 1922              	 .loc 2 1134 0
 1923 0050 1AE0     	 b .L128
 1924              	.L125:
1135:../Dave/Generated/E_EEPROM_XMC1/e_eeprom_xmc1.c ****     
1136:../Dave/Generated/E_EEPROM_XMC1/e_eeprom_xmc1.c ****     /*
1137:../Dave/Generated/E_EEPROM_XMC1/e_eeprom_xmc1.c ****      * Interrupted after copy completion from Bank0 to Bank1 (0A),Next step = Writing Valid state i
1138:../Dave/Generated/E_EEPROM_XMC1/e_eeprom_xmc1.c ****      * Transition states : (0A) -> (02) -> GC_PROCESS (F2 -> E2)
1139:../Dave/Generated/E_EEPROM_XMC1/e_eeprom_xmc1.c ****      */
1140:../Dave/Generated/E_EEPROM_XMC1/e_eeprom_xmc1.c ****     case E_EEPROM_XMC1_INIT_COPY_DONE2:
1141:../Dave/Generated/E_EEPROM_XMC1/e_eeprom_xmc1.c ****       data_ptr->current_bank = 1U;
 1925              	 .loc 2 1141 0
 1926 0052 3B68     	 ldr r3,[r7]
 1927 0054 0122     	 mov r2,#1
 1928 0056 1A62     	 str r2,[r3,#32]
1142:../Dave/Generated/E_EEPROM_XMC1/e_eeprom_xmc1.c ****       E_EEPROM_XMC1_lInitGcNormalStates( E_EEPROM_XMC1_GC_NEXT_BANK_VALID, E_EEPROM_XMC1_EXECUTE_GC
 1929              	 .loc 2 1142 0
 1930 0058 0720     	 mov r0,#7
 1931 005a 0221     	 mov r1,#2
 1932 005c FFF7FEFF 	 bl E_EEPROM_XMC1_lInitGcNormalStates
1143:../Dave/Generated/E_EEPROM_XMC1/e_eeprom_xmc1.c ****       break;
 1933              	 .loc 2 1143 0
 1934 0060 12E0     	 b .L128
 1935              	.L124:
1144:../Dave/Generated/E_EEPROM_XMC1/e_eeprom_xmc1.c ****     
1145:../Dave/Generated/E_EEPROM_XMC1/e_eeprom_xmc1.c ****     /*
1146:../Dave/Generated/E_EEPROM_XMC1/e_eeprom_xmc1.c ****      * Interrupted after writing valid state to Bank1 (02), Next step = Erase of old redundant Bank
1147:../Dave/Generated/E_EEPROM_XMC1/e_eeprom_xmc1.c ****      * Transition states : (02) -> (F2) -> GC_PROCESS (E2)
1148:../Dave/Generated/E_EEPROM_XMC1/e_eeprom_xmc1.c ****      */
1149:../Dave/Generated/E_EEPROM_XMC1/e_eeprom_xmc1.c ****     case E_EEPROM_XMC1_INIT_NEXT_VALID2:
1150:../Dave/Generated/E_EEPROM_XMC1/e_eeprom_xmc1.c ****       data_ptr->current_bank = 1U;
 1936              	 .loc 2 1150 0
 1937 0062 3B68     	 ldr r3,[r7]
 1938 0064 0122     	 mov r2,#1
 1939 0066 1A62     	 str r2,[r3,#32]
1151:../Dave/Generated/E_EEPROM_XMC1/e_eeprom_xmc1.c ****       E_EEPROM_XMC1_lInitGcNormalStates( E_EEPROM_XMC1_GC_ERASE_PREV_BANK, E_EEPROM_XMC1_EXECUTE_GC
 1940              	 .loc 2 1151 0
 1941 0068 0320     	 mov r0,#3
 1942 006a 0221     	 mov r1,#2
 1943 006c FFF7FEFF 	 bl E_EEPROM_XMC1_lInitGcNormalStates
1152:../Dave/Generated/E_EEPROM_XMC1/e_eeprom_xmc1.c ****       break;
 1944              	 .loc 2 1152 0
 1945 0070 0AE0     	 b .L128
 1946              	.L127:
1153:../Dave/Generated/E_EEPROM_XMC1/e_eeprom_xmc1.c ****     
1154:../Dave/Generated/E_EEPROM_XMC1/e_eeprom_xmc1.c ****     /*
1155:../Dave/Generated/E_EEPROM_XMC1/e_eeprom_xmc1.c ****      * Interrupted after erase of old bank completed(F2), Next step = Mark erased Bank-0 with Forma
1156:../Dave/Generated/E_EEPROM_XMC1/e_eeprom_xmc1.c ****      * Transition states : (F2) -> GC_PROCESS (E2)
1157:../Dave/Generated/E_EEPROM_XMC1/e_eeprom_xmc1.c ****      */
1158:../Dave/Generated/E_EEPROM_XMC1/e_eeprom_xmc1.c ****     case E_EEPROM_XMC1_INIT_END_ERASE2:
1159:../Dave/Generated/E_EEPROM_XMC1/e_eeprom_xmc1.c ****       data_ptr->current_bank = 1U;
 1947              	 .loc 2 1159 0
 1948 0072 3B68     	 ldr r3,[r7]
 1949 0074 0122     	 mov r2,#1
 1950 0076 1A62     	 str r2,[r3,#32]
1160:../Dave/Generated/E_EEPROM_XMC1/e_eeprom_xmc1.c ****       E_EEPROM_XMC1_lInitGcNormalStates( E_EEPROM_XMC1_GC_MARK_END_ERASE1, E_EEPROM_XMC1_EXECUTE_GC
 1951              	 .loc 2 1160 0
 1952 0078 0820     	 mov r0,#8
 1953 007a 0221     	 mov r1,#2
 1954 007c FFF7FEFF 	 bl E_EEPROM_XMC1_lInitGcNormalStates
1161:../Dave/Generated/E_EEPROM_XMC1/e_eeprom_xmc1.c ****       break;
 1955              	 .loc 2 1161 0
 1956 0080 02E0     	 b .L128
 1957              	.L121:
1162:../Dave/Generated/E_EEPROM_XMC1/e_eeprom_xmc1.c ****     
1163:../Dave/Generated/E_EEPROM_XMC1/e_eeprom_xmc1.c ****     default:
1164:../Dave/Generated/E_EEPROM_XMC1/e_eeprom_xmc1.c ****       state_found = 0U;
 1958              	 .loc 2 1164 0
 1959 0082 0023     	 mov r3,#0
 1960 0084 7B60     	 str r3,[r7,#4]
1165:../Dave/Generated/E_EEPROM_XMC1/e_eeprom_xmc1.c ****       break;
 1961              	 .loc 2 1165 0
 1962 0086 C046     	 mov r8,r8
 1963              	.L128:
1166:../Dave/Generated/E_EEPROM_XMC1/e_eeprom_xmc1.c ****   }
1167:../Dave/Generated/E_EEPROM_XMC1/e_eeprom_xmc1.c ****   return (state_found);
 1964              	 .loc 2 1167 0
 1965 0088 7B68     	 ldr r3,[r7,#4]
1168:../Dave/Generated/E_EEPROM_XMC1/e_eeprom_xmc1.c **** }
 1966              	 .loc 2 1168 0
 1967 008a 181C     	 mov r0,r3
 1968 008c BD46     	 mov sp,r7
 1969 008e 02B0     	 add sp,sp,#8
 1970              	 
 1971 0090 80BD     	 pop {r7,pc}
 1972              	.L131:
 1973 0092 C046     	 .align 2
 1974              	.L130:
 1975 0094 00000000 	 .word E_EEPROM_XMC1_0
 1976              	 .cfi_endproc
 1977              	.LFE65:
 1979              	 .section .text.E_EEPROM_XMC1_lInitOtherNormalStateMachine,"ax",%progbits
 1980              	 .align 2
 1981              	 .code 16
 1982              	 .thumb_func
 1984              	E_EEPROM_XMC1_lInitOtherNormalStateMachine:
 1985              	.LFB66:
1169:../Dave/Generated/E_EEPROM_XMC1/e_eeprom_xmc1.c **** 
1170:../Dave/Generated/E_EEPROM_XMC1/e_eeprom_xmc1.c **** /*
1171:../Dave/Generated/E_EEPROM_XMC1/e_eeprom_xmc1.c **** * Parameters(IN)  : void
1172:../Dave/Generated/E_EEPROM_XMC1/e_eeprom_xmc1.c **** *
1173:../Dave/Generated/E_EEPROM_XMC1/e_eeprom_xmc1.c **** * Return value    : uint32_t : ( 1= state_found / 0 = State not found )
1174:../Dave/Generated/E_EEPROM_XMC1/e_eeprom_xmc1.c **** *
1175:../Dave/Generated/E_EEPROM_XMC1/e_eeprom_xmc1.c **** * Description     : Execute other state machine process and return the found states.
1176:../Dave/Generated/E_EEPROM_XMC1/e_eeprom_xmc1.c **** */
1177:../Dave/Generated/E_EEPROM_XMC1/e_eeprom_xmc1.c **** static uint32_t E_EEPROM_XMC1_lInitOtherNormalStateMachine(void)
1178:../Dave/Generated/E_EEPROM_XMC1/e_eeprom_xmc1.c **** {
 1986              	 .loc 2 1178 0
 1987              	 .cfi_startproc
 1988 0000 80B5     	 push {r7,lr}
 1989              	.LCFI56:
 1990              	 .cfi_def_cfa_offset 8
 1991              	 .cfi_offset 7,-8
 1992              	 .cfi_offset 14,-4
 1993 0002 82B0     	 sub sp,sp,#8
 1994              	.LCFI57:
 1995              	 .cfi_def_cfa_offset 16
 1996 0004 00AF     	 add r7,sp,#0
 1997              	.LCFI58:
 1998              	 .cfi_def_cfa_register 7
1179:../Dave/Generated/E_EEPROM_XMC1/e_eeprom_xmc1.c ****   uint32_t state_found;
1180:../Dave/Generated/E_EEPROM_XMC1/e_eeprom_xmc1.c ****   E_EEPROM_XMC1_DATA_t *data_ptr;
1181:../Dave/Generated/E_EEPROM_XMC1/e_eeprom_xmc1.c ****   data_ptr = (E_EEPROM_XMC1_DATA_t*)(void*)(E_EEPROM_XMC1_HANDLE_PTR->data_ptr);
 1999              	 .loc 2 1181 0
 2000 0006 244B     	 ldr r3,.L142
 2001 0008 5B68     	 ldr r3,[r3,#4]
 2002 000a 3B60     	 str r3,[r7]
1182:../Dave/Generated/E_EEPROM_XMC1/e_eeprom_xmc1.c ****   
1183:../Dave/Generated/E_EEPROM_XMC1/e_eeprom_xmc1.c ****   state_found = 1U;
 2003              	 .loc 2 1183 0
 2004 000c 0123     	 mov r3,#1
 2005 000e 7B60     	 str r3,[r7,#4]
1184:../Dave/Generated/E_EEPROM_XMC1/e_eeprom_xmc1.c ****   
1185:../Dave/Generated/E_EEPROM_XMC1/e_eeprom_xmc1.c ****   switch (data_ptr->init_gc_state)
 2006              	 .loc 2 1185 0
 2007 0010 3A68     	 ldr r2,[r7]
 2008 0012 B023     	 mov r3,#176
 2009 0014 5B00     	 lsl r3,r3,#1
 2010 0016 D358     	 ldr r3,[r2,r3]
 2011 0018 F02B     	 cmp r3,#240
 2012 001a 2CD0     	 beq .L134
 2013 001c 04D8     	 bhi .L135
 2014 001e 0F2B     	 cmp r3,#15
 2015 0020 20D0     	 beq .L136
 2016 0022 AF2B     	 cmp r3,#175
 2017 0024 0CD0     	 beq .L137
 2018 0026 2FE0     	 b .L133
 2019              	.L135:
 2020 0028 FA2B     	 cmp r3,#250
 2021 002a 12D0     	 beq .L138
 2022 002c FF2B     	 cmp r3,#255
 2023 002e 2BD1     	 bne .L133
1186:../Dave/Generated/E_EEPROM_XMC1/e_eeprom_xmc1.c ****   {
1187:../Dave/Generated/E_EEPROM_XMC1/e_eeprom_xmc1.c ****     /* Interrupted after erase of both banks completed (FF), Next step = Start Prepare DFlash  */
1188:../Dave/Generated/E_EEPROM_XMC1/e_eeprom_xmc1.c ****     case E_EEPROM_XMC1_INIT_ALL_ERASED:
1189:../Dave/Generated/E_EEPROM_XMC1/e_eeprom_xmc1.c ****       /* Change the current Bank to Bank0 */
1190:../Dave/Generated/E_EEPROM_XMC1/e_eeprom_xmc1.c ****       data_ptr->current_bank = 0U;
 2024              	 .loc 2 1190 0
 2025 0030 3B68     	 ldr r3,[r7]
 2026 0032 0022     	 mov r2,#0
 2027 0034 1A62     	 str r2,[r3,#32]
1191:../Dave/Generated/E_EEPROM_XMC1/e_eeprom_xmc1.c ****       /* Transition states : FF ->  PREPARE_DFLASH (2F) -> 2E */
1192:../Dave/Generated/E_EEPROM_XMC1/e_eeprom_xmc1.c ****       E_EEPROM_XMC1_lInitGcNormalStates( E_EEPROM_XMC1_PREPFLASH_FF, E_EEPROM_XMC1_EXECUTE_PREP_FLA
 2028              	 .loc 2 1192 0
 2029 0036 0120     	 mov r0,#1
 2030 0038 0121     	 mov r1,#1
 2031 003a FFF7FEFF 	 bl E_EEPROM_XMC1_lInitGcNormalStates
1193:../Dave/Generated/E_EEPROM_XMC1/e_eeprom_xmc1.c ****       break;
 2032              	 .loc 2 1193 0
 2033 003e 26E0     	 b .L140
 2034              	.L137:
1194:../Dave/Generated/E_EEPROM_XMC1/e_eeprom_xmc1.c ****     
1195:../Dave/Generated/E_EEPROM_XMC1/e_eeprom_xmc1.c ****     /*
1196:../Dave/Generated/E_EEPROM_XMC1/e_eeprom_xmc1.c ****      * Interrupted after erase of Bank1 during previous recovery(AF), Next step = Bank0 marker Page
1197:../Dave/Generated/E_EEPROM_XMC1/e_eeprom_xmc1.c ****      * Transition states : AF -> A0 -> GC PROCESS -> 20 -> 2F -> 2E
1198:../Dave/Generated/E_EEPROM_XMC1/e_eeprom_xmc1.c ****      */
1199:../Dave/Generated/E_EEPROM_XMC1/e_eeprom_xmc1.c ****     case E_EEPROM_XMC1_INIT_STATE_AF:
1200:../Dave/Generated/E_EEPROM_XMC1/e_eeprom_xmc1.c ****       /* Change the current Bank to Bank1 */
1201:../Dave/Generated/E_EEPROM_XMC1/e_eeprom_xmc1.c ****       data_ptr->current_bank = 0U;
 2035              	 .loc 2 1201 0
 2036 0040 3B68     	 ldr r3,[r7]
 2037 0042 0022     	 mov r2,#0
 2038 0044 1A62     	 str r2,[r3,#32]
1202:../Dave/Generated/E_EEPROM_XMC1/e_eeprom_xmc1.c ****     
1203:../Dave/Generated/E_EEPROM_XMC1/e_eeprom_xmc1.c ****       E_EEPROM_XMC1_lCopyProcessDirtyStateRecovery( E_EEPROM_XMC1_COPY_COMPLETED ,
 2039              	 .loc 2 1203 0
 2040 0046 0020     	 mov r0,#0
 2041 0048 0721     	 mov r1,#7
 2042 004a 0122     	 mov r2,#1
 2043 004c FFF7FEFF 	 bl E_EEPROM_XMC1_lCopyProcessDirtyStateRecovery
1204:../Dave/Generated/E_EEPROM_XMC1/e_eeprom_xmc1.c ****                                                     E_EEPROM_XMC1_GC_NEXT_BANK_VALID , 1U);
1205:../Dave/Generated/E_EEPROM_XMC1/e_eeprom_xmc1.c ****       break;
 2044              	 .loc 2 1205 0
 2045 0050 1DE0     	 b .L140
 2046              	.L138:
1206:../Dave/Generated/E_EEPROM_XMC1/e_eeprom_xmc1.c ****     
1207:../Dave/Generated/E_EEPROM_XMC1/e_eeprom_xmc1.c ****     /*
1208:../Dave/Generated/E_EEPROM_XMC1/e_eeprom_xmc1.c ****      * Interrupted after erase of Bank0 during previous recovery(FA), Next step = Bank1 marker Page
1209:../Dave/Generated/E_EEPROM_XMC1/e_eeprom_xmc1.c ****      * Transition states : FA -> 0A -> GC PROCESS -> 02 -> F2 -> E2
1210:../Dave/Generated/E_EEPROM_XMC1/e_eeprom_xmc1.c ****      */
1211:../Dave/Generated/E_EEPROM_XMC1/e_eeprom_xmc1.c ****     case E_EEPROM_XMC1_INIT_STATE_FA:
1212:../Dave/Generated/E_EEPROM_XMC1/e_eeprom_xmc1.c ****       data_ptr->current_bank = 1U;
 2047              	 .loc 2 1212 0
 2048 0052 3B68     	 ldr r3,[r7]
 2049 0054 0122     	 mov r2,#1
 2050 0056 1A62     	 str r2,[r3,#32]
1213:../Dave/Generated/E_EEPROM_XMC1/e_eeprom_xmc1.c ****       E_EEPROM_XMC1_lCopyProcessDirtyStateRecovery( E_EEPROM_XMC1_COPY_COMPLETED ,
 2051              	 .loc 2 1213 0
 2052 0058 0020     	 mov r0,#0
 2053 005a 0721     	 mov r1,#7
 2054 005c 0122     	 mov r2,#1
 2055 005e FFF7FEFF 	 bl E_EEPROM_XMC1_lCopyProcessDirtyStateRecovery
1214:../Dave/Generated/E_EEPROM_XMC1/e_eeprom_xmc1.c ****                                                     E_EEPROM_XMC1_GC_NEXT_BANK_VALID , 1U);
1215:../Dave/Generated/E_EEPROM_XMC1/e_eeprom_xmc1.c ****       break;
 2056              	 .loc 2 1215 0
 2057 0062 14E0     	 b .L140
 2058              	.L136:
1216:../Dave/Generated/E_EEPROM_XMC1/e_eeprom_xmc1.c ****     
1217:../Dave/Generated/E_EEPROM_XMC1/e_eeprom_xmc1.c ****     /*
1218:../Dave/Generated/E_EEPROM_XMC1/e_eeprom_xmc1.c ****      * Interrupted after erase of Bank1 during previous recover(0F), Next step = Bank1 marker Page 
1219:../Dave/Generated/E_EEPROM_XMC1/e_eeprom_xmc1.c ****      * Transition states : 0F -> 02 -> GC PROCESS -> F2 -> E2
1220:../Dave/Generated/E_EEPROM_XMC1/e_eeprom_xmc1.c ****      */
1221:../Dave/Generated/E_EEPROM_XMC1/e_eeprom_xmc1.c ****     case E_EEPROM_XMC1_INIT_STATE_0F:
1222:../Dave/Generated/E_EEPROM_XMC1/e_eeprom_xmc1.c ****       data_ptr->current_bank = 1U;
 2059              	 .loc 2 1222 0
 2060 0064 3B68     	 ldr r3,[r7]
 2061 0066 0122     	 mov r2,#1
 2062 0068 1A62     	 str r2,[r3,#32]
1223:../Dave/Generated/E_EEPROM_XMC1/e_eeprom_xmc1.c ****       E_EEPROM_XMC1_lCopyProcessDirtyStateRecovery( E_EEPROM_XMC1_VALID_STATE ,
 2063              	 .loc 2 1223 0
 2064 006a 2020     	 mov r0,#32
 2065 006c 0321     	 mov r1,#3
 2066 006e 0022     	 mov r2,#0
 2067 0070 FFF7FEFF 	 bl E_EEPROM_XMC1_lCopyProcessDirtyStateRecovery
1224:../Dave/Generated/E_EEPROM_XMC1/e_eeprom_xmc1.c ****                                                     E_EEPROM_XMC1_GC_ERASE_PREV_BANK , 0U);
1225:../Dave/Generated/E_EEPROM_XMC1/e_eeprom_xmc1.c ****       break;
 2068              	 .loc 2 1225 0
 2069 0074 0BE0     	 b .L140
 2070              	.L134:
1226:../Dave/Generated/E_EEPROM_XMC1/e_eeprom_xmc1.c ****     
1227:../Dave/Generated/E_EEPROM_XMC1/e_eeprom_xmc1.c ****     /*
1228:../Dave/Generated/E_EEPROM_XMC1/e_eeprom_xmc1.c ****      * Interrupted after erase of Bank1 during previous recover(F0), Next step = Bank1 marker Page 
1229:../Dave/Generated/E_EEPROM_XMC1/e_eeprom_xmc1.c ****      * Transition states : F0 -> 20 -> GC PROCESS -> 2F -> 2E
1230:../Dave/Generated/E_EEPROM_XMC1/e_eeprom_xmc1.c ****      */
1231:../Dave/Generated/E_EEPROM_XMC1/e_eeprom_xmc1.c ****     case E_EEPROM_XMC1_INIT_STATE_F0:
1232:../Dave/Generated/E_EEPROM_XMC1/e_eeprom_xmc1.c ****       /* Change the current Bank to Bank0 */
1233:../Dave/Generated/E_EEPROM_XMC1/e_eeprom_xmc1.c ****       data_ptr->current_bank = 0U;
 2071              	 .loc 2 1233 0
 2072 0076 3B68     	 ldr r3,[r7]
 2073 0078 0022     	 mov r2,#0
 2074 007a 1A62     	 str r2,[r3,#32]
1234:../Dave/Generated/E_EEPROM_XMC1/e_eeprom_xmc1.c ****       /* Transition states : D0 -> 20 -> GC PROCESS -> 2E */
1235:../Dave/Generated/E_EEPROM_XMC1/e_eeprom_xmc1.c ****       E_EEPROM_XMC1_lCopyProcessDirtyStateRecovery( E_EEPROM_XMC1_VALID_STATE ,
 2075              	 .loc 2 1235 0
 2076 007c 2020     	 mov r0,#32
 2077 007e 0321     	 mov r1,#3
 2078 0080 0022     	 mov r2,#0
 2079 0082 FFF7FEFF 	 bl E_EEPROM_XMC1_lCopyProcessDirtyStateRecovery
1236:../Dave/Generated/E_EEPROM_XMC1/e_eeprom_xmc1.c ****                                                     E_EEPROM_XMC1_GC_ERASE_PREV_BANK , 0U);
1237:../Dave/Generated/E_EEPROM_XMC1/e_eeprom_xmc1.c ****       break;
 2080              	 .loc 2 1237 0
 2081 0086 02E0     	 b .L140
 2082              	.L133:
1238:../Dave/Generated/E_EEPROM_XMC1/e_eeprom_xmc1.c ****     
1239:../Dave/Generated/E_EEPROM_XMC1/e_eeprom_xmc1.c ****     default:
1240:../Dave/Generated/E_EEPROM_XMC1/e_eeprom_xmc1.c ****       state_found = 0U;
 2083              	 .loc 2 1240 0
 2084 0088 0023     	 mov r3,#0
 2085 008a 7B60     	 str r3,[r7,#4]
1241:../Dave/Generated/E_EEPROM_XMC1/e_eeprom_xmc1.c ****       break;
 2086              	 .loc 2 1241 0
 2087 008c C046     	 mov r8,r8
 2088              	.L140:
1242:../Dave/Generated/E_EEPROM_XMC1/e_eeprom_xmc1.c ****   }
1243:../Dave/Generated/E_EEPROM_XMC1/e_eeprom_xmc1.c ****   return (state_found);
 2089              	 .loc 2 1243 0
 2090 008e 7B68     	 ldr r3,[r7,#4]
1244:../Dave/Generated/E_EEPROM_XMC1/e_eeprom_xmc1.c **** }
 2091              	 .loc 2 1244 0
 2092 0090 181C     	 mov r0,r3
 2093 0092 BD46     	 mov sp,r7
 2094 0094 02B0     	 add sp,sp,#8
 2095              	 
 2096 0096 80BD     	 pop {r7,pc}
 2097              	.L143:
 2098              	 .align 2
 2099              	.L142:
 2100 0098 00000000 	 .word E_EEPROM_XMC1_0
 2101              	 .cfi_endproc
 2102              	.LFE66:
 2104              	 .section .text.E_EEPROM_XMC1_lInitGcNormalStates,"ax",%progbits
 2105              	 .align 2
 2106              	 .code 16
 2107              	 .thumb_func
 2109              	E_EEPROM_XMC1_lInitGcNormalStates:
 2110              	.LFB67:
1245:../Dave/Generated/E_EEPROM_XMC1/e_eeprom_xmc1.c **** /*
1246:../Dave/Generated/E_EEPROM_XMC1/e_eeprom_xmc1.c **** * Parameters(IN)  : current_state  - Current GC state
1247:../Dave/Generated/E_EEPROM_XMC1/e_eeprom_xmc1.c **** *                   next_process  - Number of logical block
1248:../Dave/Generated/E_EEPROM_XMC1/e_eeprom_xmc1.c **** *
1249:../Dave/Generated/E_EEPROM_XMC1/e_eeprom_xmc1.c **** * Return value    : void
1250:../Dave/Generated/E_EEPROM_XMC1/e_eeprom_xmc1.c **** *
1251:../Dave/Generated/E_EEPROM_XMC1/e_eeprom_xmc1.c **** * Description     : Executes normal Garbage collection state machine sub process
1252:../Dave/Generated/E_EEPROM_XMC1/e_eeprom_xmc1.c **** */
1253:../Dave/Generated/E_EEPROM_XMC1/e_eeprom_xmc1.c **** static void E_EEPROM_XMC1_lInitGcNormalStates(uint32_t current_state, uint32_t next_process)
1254:../Dave/Generated/E_EEPROM_XMC1/e_eeprom_xmc1.c **** {
 2111              	 .loc 2 1254 0
 2112              	 .cfi_startproc
 2113 0000 80B5     	 push {r7,lr}
 2114              	.LCFI59:
 2115              	 .cfi_def_cfa_offset 8
 2116              	 .cfi_offset 7,-8
 2117              	 .cfi_offset 14,-4
 2118 0002 84B0     	 sub sp,sp,#16
 2119              	.LCFI60:
 2120              	 .cfi_def_cfa_offset 24
 2121 0004 00AF     	 add r7,sp,#0
 2122              	.LCFI61:
 2123              	 .cfi_def_cfa_register 7
 2124 0006 7860     	 str r0,[r7,#4]
 2125 0008 3960     	 str r1,[r7]
1255:../Dave/Generated/E_EEPROM_XMC1/e_eeprom_xmc1.c ****   E_EEPROM_XMC1_DATA_t *data_ptr;
1256:../Dave/Generated/E_EEPROM_XMC1/e_eeprom_xmc1.c ****   data_ptr = (E_EEPROM_XMC1_DATA_t*)(void*)(E_EEPROM_XMC1_HANDLE_PTR->data_ptr);
 2126              	 .loc 2 1256 0
 2127 000a 144B     	 ldr r3,.L148
 2128 000c 5B68     	 ldr r3,[r3,#4]
 2129 000e FB60     	 str r3,[r7,#12]
1257:../Dave/Generated/E_EEPROM_XMC1/e_eeprom_xmc1.c ****   
1258:../Dave/Generated/E_EEPROM_XMC1/e_eeprom_xmc1.c ****   /* Update the Bank related global variables */
1259:../Dave/Generated/E_EEPROM_XMC1/e_eeprom_xmc1.c ****   E_EEPROM_XMC1_lUpdateCurrBankInfo();
 2130              	 .loc 2 1259 0
 2131 0010 FFF7FEFF 	 bl E_EEPROM_XMC1_lUpdateCurrBankInfo
1260:../Dave/Generated/E_EEPROM_XMC1/e_eeprom_xmc1.c ****   
1261:../Dave/Generated/E_EEPROM_XMC1/e_eeprom_xmc1.c ****   if (next_process == E_EEPROM_XMC1_EXECUTE_PREP_FLASH)
 2132              	 .loc 2 1261 0
 2133 0014 3B68     	 ldr r3,[r7]
 2134 0016 012B     	 cmp r3,#1
 2135 0018 09D1     	 bne .L145
1262:../Dave/Generated/E_EEPROM_XMC1/e_eeprom_xmc1.c ****   {
1263:../Dave/Generated/E_EEPROM_XMC1/e_eeprom_xmc1.c ****     /* Update the GC state*/
1264:../Dave/Generated/E_EEPROM_XMC1/e_eeprom_xmc1.c ****     data_ptr->gc_state = current_state;
 2136              	 .loc 2 1264 0
 2137 001a FA68     	 ldr r2,[r7,#12]
 2138 001c AE23     	 mov r3,#174
 2139 001e 5B00     	 lsl r3,r3,#1
 2140 0020 7968     	 ldr r1,[r7,#4]
 2141 0022 D150     	 str r1,[r2,r3]
1265:../Dave/Generated/E_EEPROM_XMC1/e_eeprom_xmc1.c ****     /* Start Prepare DFlash routine to build FEE base  */
1266:../Dave/Generated/E_EEPROM_XMC1/e_eeprom_xmc1.c ****     E_EEPROM_XMC1_lPrepareDFlash();
 2142              	 .loc 2 1266 0
 2143 0024 FFF7FEFF 	 bl E_EEPROM_XMC1_lPrepareDFlash
